ccopy_reg
_reconstructor
p1
(cicarus.results.readwrite
ResultSet
p2
c__builtin__
object
p3
NtRp4
(dp5
S'attr'
p6
(dp7
sS'_results'
p8
ccollections
deque
p9
((lp10
(cicarus.util
Tree
p11
(tRp12
S'workload'
p13
g11
(tRp14
S'n_contents'
p15
I100000
sS'name'
p16
S'STATIONARY'
p17
sS'n_warmup'
p18
I100000
sS'rate'
p19
F1
sS'n_measured'
p20
I400000
sS'alpha'
p21
F0.80000000000000004
ssS'cache_policy'
p22
g11
(tRp23
g16
S'LRU'
p24
ssS'strategy'
p25
g11
(tRp26
g16
S'LCE'
p27
ssS'content_placement'
p28
g11
(tRp29
g16
S'UNIFORM'
p30
ssS'cache_placement'
p31
g11
(tRp32
S'network_cache'
p33
F0.01
sg16
g30
ssS'desc'
p34
S'Strategy: LCE'
p35
sS'topology'
p36
g11
(tRp37
g16
S'ROCKET_FUEL'
p38
sS'asn'
p39
I1221
ssg11
(tRp40
S'LATENCY'
p41
g11
(tRp42
S'MEAN'
p43
F87.811390000000003
ssS'LINK_LOAD'
p44
g11
(tRp45
S'MEAN_INTERNAL'
p46
F0.10663458200917882
sS'PER_LINK_INTERNAL'
p47
g11
(tRp48
(S'rec_102'
I106
tp49
F0.0096660284820653287
s(I66
I10
tp50
F0.0093689578753076395
s(S'rec_94'
I95
tp51
F0.0093090444756254165
s(I58
I36
tp52
F0.0027435344271151334
s(I10
I61
tp53
F0.026776296874646881
s(I34
I46
tp54
F0.67915832766445383
s(I33
I30
tp55
F0.005844052860670179
s(S'rec_78'
I65
tp56
F0.0097234454900941257
s(I44
I34
tp57
F0.041864488027953402
s(I102
I73
tp58
F0.1121703661633888
s(I34
I73
tp59
F1.4350132960971134
s(I71
I26
tp60
F0.0048130431078052564
s(I85
I22
tp61
F0.0094613243664844002
s(S'rec_17'
I61
tp62
F0.0094763027164049551
s(I25
I26
tp63
F0.0095462016827008826
s(S'rec_11'
I35
tp64
F0.0095462016827008826
s(S'rec_70'
I48
tp65
F0.0096835032236393098
s(I52
I50
tp66
F0.92929427494608186
s(I50
I1
tp67
F0.64279339044899775
s(I99
I5
tp68
F0.0094987702412857884
s(I46
I75
tp69
F0.46752422885361433
s(I101
I10
tp70
F0.0096086114740365318
s(I100
I6
tp71
F0.0095536908576611609
s(S'rec_40'
I54
tp72
F0.0094688135414446768
s(S'rec_3'
I18
tp73
F0.0093365047838131019
s(I79
I1
tp74
F0.0078311806167972453
s(S'rec_88'
I86
tp75
F0.0097858552814297749
s(I32
I35
tp76
F0.0033975890403127357
s(S'rec_31'
I36
tp77
F0.0097209490984406996
s(I69
I5
tp78
F0.0094064037501090294
s(S'rec_19'
I50
tp79
F0.0097583949732420894
s(I103
I102
tp80
F0.0027260596855411515
s(I35
I52
tp81
F0.02711580613951281
s(S'rec_37'
I33
tp82
F0.0093939217918418989
s(S'rec_16'
I51
tp83
F0.0097434166233215328
s(I95
I22
tp84
F0.0092266635510623585
s(I105
I18
tp85
F0.0093040516923185643
s(I70
I44
tp86
F0.0096585393071050504
s(I15
I16
tp87
F0.0096011222990762535
s(S'rec_83'
I70
tp88
F0.0097583949732420894
s(I48
I5
tp89
F0.0096011222990762535
s(S'rec_57'
I15
tp90
F0.0096984815735598664
s(S'rec_5'
I1
tp91
F0.0093265192171993975
s(S'rec_49'
I83
tp92
F0.0097434166233215328
s(I28
I22
tp93
F0.0096760140486790332
s(S'rec_22'
I41
tp94
F0.0095761583825419942
s(S'rec_59'
I19
tp95
F0.0095861439491556986
s(S'rec_103'
I107
tp96
F0.0095811511658488464
s(I46
I52
tp97
F1.7671282488855966
s(I78
I2
tp98
F0.0096635320904119026
s(I91
I22
tp99
F0.0096909923985995881
s(I46
I43
tp100
F0.072380379599432373
s(I8
I62
tp101
F0.0052723791720356338
s(S'rec_47'
I81
tp102
F0.0095187413745131972
s(S'rec_53'
I4
tp103
F0.0095012666329392145
s(S'rec_80'
I67
tp104
F0.0097658841482023678
s(I67
I18
tp105
F0.0096360717822242172
s(I41
I43
tp106
F0.00099606026971695927
s(I36
I35
tp107
F0.0063682951078896316
s(I47
I5
tp108
F0.0095961295157694013
s(S'rec_66'
I29
tp109
F0.0098208047645777386
s(I45
I34
tp110
F0.002893317926320691
s(I73
I34
tp111
F0.18079866910772194
s(I34
I75
tp112
F0.6066481356990433
s(S'rec_8'
I46
tp113
F0.0095337197244337521
s(I77
I76
tp114
F0.0093639650920007873
s(I50
I51
tp115
F0.22261322930260682
s(I74
I52
tp116
F0.0047955683662312745
s(S'rec_4'
I2
tp117
F0.0095462016827008826
s(S'rec_23'
I42
tp118
F0.0094363604499501409
s(I3
I5
tp119
F0.018810311108564633
s(S'rec_76'
I63
tp120
F0.0094987702412857884
s(S'rec_91'
I91
tp121
F0.0097633877565489417
s(I88
I18
tp122
F0.0097833588897763488
s(I57
I58
tp123
F0.0029107926678946729
s(I54
I50
tp124
F0.0075116424851587229
s(I42
I34
tp125
F0.0027410380354617073
s(S'rec_45'
I79
tp126
F0.0097534021899352372
s(S'rec_38'
I38
tp127
F0.0093315120005062497
s(I84
I44
tp128
F0.0096760140486790332
s(I42
I43
tp129
F0.00091867212846075434
s(S'rec_33'
I0
tp130
F0.0095012666329392145
s(I61
I62
tp131
F0.12616264138084132
s(I43
I34
tp132
F0.44051077477189199
s(I81
I1
tp133
F0.0076090017596423349
s(I62
I61
tp134
F0.039812454088837261
s(I83
I2
tp135
F0.0018523226068420644
s(I86
I34
tp136
F0.009688496006946162
s(I72
I61
tp137
F0.0066229270565390796
s(I12
I62
tp138
F0.0052549044304616519
s(I45
I40
tp139
F0.002019580847621604
s(S'rec_29'
I12
tp140
F0.0093290156088528236
s(I36
I30
tp141
F0.0060163038847565707
s(I5
I102
tp142
F0.97312092681362805
s(I29
I22
tp143
F0.0097284382734009779
s(S'rec_61'
I23
tp144
F0.0097434166233215328
s(S'rec_24'
I45
tp145
F0.0093040516923185643
s(I62
I102
tp146
F0.052234498956284847
s(I46
I40
tp147
F0.078499035541979401
s(I53
I51
tp148
F0.0017899128155064155
s(S'rec_74'
I59
tp149
F0.0092691022091706005
s(S'rec_62'
I24
tp150
F0.0096909923985995881
s(I40
I43
tp151
F0.012070053644314531
s(I30
I34
tp152
F0.041020707649095427
s(I20
I1
tp153
F0.0075590739265738163
s(I26
I75
tp154
F1.0782464757310488
s(I56
I22
tp155
F0.0095611800326214375
s(I18
I43
tp156
F0.017257555500133682
s(I82
I1
tp157
F0.0077537924755410412
s(I45
I46
tp158
F0.0033900998653524578
s(I75
I34
tp159
F0.59472037637897401
s(I102
I75
tp160
F0.77321487599058381
s(I39
I5
tp161
F0.0094238784916830104
s(S'rec_101'
I105
tp162
F0.0093939217918418989
s(S'rec_32'
I58
tp163
F0.009531223332780326
s(I2
I51
tp164
F0.84206286140041842
s(I26
I52
tp165
F0.1127670037685576
s(I107
I93
tp166
F0.0094912810663255118
s(I54
I51
tp167
F0.0018448334318817866
s(I40
I18
tp168
F0.089942494881284016
s(S'rec_64'
I27
tp169
F0.0095511944660077348
s(I42
I40
tp170
F0.0020944725972243828
s(S'rec_46'
I80
tp171
F0.0097059707485201447
s(I34
I18
tp172
F0.57449461120291689
s(S'rec_63'
I25
tp173
F0.0096485537404913477
s(I72
I62
tp174
F0.0026486715442849466
s(I106
I34
tp175
F0.0095686692075817158
s(I71
I52
tp176
F0.0047731008413504413
s(I52
I26
tp177
F0.17280771942510545
s(S'rec_51'
I103
tp178
F0.0095237341578200494
s(S'rec_54'
I7
tp179
F0.0095986259074228274
s(I1
I50
tp180
F0.9463071840641798
s(S'rec_43'
I74
tp181
F0.0096835032236393098
s(S'rec_0'
I22
tp182
F0.0095212377661666233
s(S'rec_60'
I21
tp183
F0.0095387125077406043
s(I53
I50
tp184
F0.0076539368094040022
s(I52
I46
tp185
F1.1539420634462307
s(I21
I22
tp186
F0.0094413532332569914
s(I61
I73
tp187
F0.078269367509864213
s(S'rec_65'
I28
tp188
F0.0098033300230037559
s(I50
I52
tp189
F0.85272245376054734
s(S'rec_34'
I16
tp190
F0.009513748591206345
s(I42
I46
tp191
F0.0035997967642402385
s(I18
I40
tp192
F0.04752380790627006
s(S'rec_98'
I99
tp193
F0.0096036186907296796
s(S'rec_39'
I53
tp194
F0.0095511944660077348
s(I44
I40
tp195
F0.0063458275830087976
s(S'rec_73'
I56
tp196
F0.0096909923985995881
s(I51
I50
tp197
F0.057114944638732609
s(S'rec_90'
I88
tp198
F0.0099206604307147776
s(I65
I22
tp199
F0.0096285826072639389
s(I79
I2
tp200
F0.0018173731236941011
s(S'rec_56'
I11
tp201
F0.0095911367324625491
s(S'rec_86'
I84
tp202
F0.0098033300230037559
s(S'rec_42'
I72
tp203
F0.009339001175466528
s(S'rec_87'
I85
tp204
F0.0095437052910474565
s(I31
I35
tp205
F0.0035573581061319973
s(I60
I57
tp206
F0.0097459130149749589
s(I17
I18
tp207
F0.0094787991080583812
s(I10
I62
tp208
F0.010926706267045441
s(S'rec_44'
I76
tp209
F0.0096810068319858836
s(I98
I52
tp210
F0.0095961295157694013
s(S'rec_72'
I55
tp211
F0.009963099088823018
s(S'rec_1'
I34
tp212
F0.0096335753905707911
s(I0
I1
tp213
F0.0074891749602778888
s(I49
I5
tp214
F0.0095187413745131972
s(S'rec_27'
I3
tp215
F0.0095886403408091247
s(I52
I22
tp216
F1.1860631348508628
s(S'rec_13'
I102
tp217
F0.0097683805398557939
s(S'rec_2'
I5
tp218
F0.009748409406628385
s(I41
I34
tp219
F0.002913289059548099
s(S'rec_100'
I101
tp220
F0.0096909923985995881
s(S'rec_84'
I77
tp221
F0.0094638207581378263
s(I7
I8
tp222
F0.0095112521995529189
s(S'rec_18'
I10
tp223
F0.0096335753905707911
s(S'rec_75'
I60
tp224
F0.0098332867228448674
s(S'rec_67'
I37
tp225
F0.0099131712557544993
s(I68
I5
tp226
F0.0093764470502679179
s(I41
I40
tp227
F0.0020420483725024376
s(S'rec_85'
I78
tp228
F0.0097733733231626443
s(S'rec_77'
I64
tp229
F0.0095611800326214375
s(S'rec_96'
I97
tp230
F0.0095986259074228274
s(I43
I46
tp231
F0.37761668345547827
s(S'rec_15'
I44
tp232
F0.0095212377661666233
s(S'rec_6'
I40
tp233
F0.0096210934323036606
s(I38
I35
tp234
F0.009239145509329489
s(I24
I18
tp235
F0.009573661990888568
s(S'rec_28'
I8
tp236
F0.0094163893167227321
s(I51
I26
tp237
F0.85511649335618278
s(S'rec_71'
I49
tp238
F0.0096235898239570867
s(I27
I5
tp239
F0.0094538351915241219
s(I102
I5
tp240
F1.1934150082702022
s(I22
I52
tp241
F0.39231543751085035
s(S'rec_52'
I104
tp242
F0.0097509057982818111
s(S'rec_93'
I94
tp243
F0.0096810068319858836
s(S'rec_89'
I87
tp244
F0.0095686692075817158
s(I92
I22
tp245
F0.0092116852011418036
s(I57
I44
tp246
F0.025280958274244727
s(I12
I61
tp247
F0.013463040186926218
s(I8
I61
tp248
F0.013497989670074182
s(S'rec_82'
I69
tp249
F0.0095287269411268999
s(I43
I18
tp250
F0.077178444357317078
s(S'rec_30'
I31
tp251
F0.0098183083729243125
s(S'rec_26'
I75
tp252
F0.0098557542477257024
s(I6
I62
tp253
F0.028121851975843472
s(I43
I40
tp254
F0.010969144925153681
s(I81
I2
tp255
F0.001814876732040675
s(S'rec_14'
I30
tp256
F0.0094638207581378263
s(I35
I30
tp257
F0.04649779093671199
s(I75
I46
tp258
F0.064938636080569573
s(I87
I6
tp259
F0.0094288712749898626
s(I103
I73
tp260
F0.0066978188061418585
s(I0
I2
tp261
F0.0019172287898311395
s(I64
I18
tp262
F0.0095087558078994928
s(I75
I26
tp263
F0.77715667841134339
s(S'rec_55'
I9
tp264
F0.0094862882830186596
s(S'rec_25'
I57
tp265
F0.0094812954997118074
s(S'rec_50'
I93
tp266
F0.0097658841482023678
s(I31
I30
tp267
F0.0061585982090018509
s(I46
I34
tp268
F0.94082261160160296
s(S'rec_35'
I20
tp269
F0.0094638207581378263
s(I40
I46
tp270
F0.41724939734526889
s(I104
I73
tp271
F0.006905019313376214
s(I34
I43
tp272
F0.074529772813032122
s(S'rec_99'
I100
tp273
F0.0096560429154516243
s(S'rec_92'
I92
tp274
F0.0092940661257048598
s(I80
I1
tp275
F0.007748799692234189
s(I83
I1
tp276
F0.007768770825461597
s(I23
I22
tp277
F0.0096061150823831057
s(I45
I43
tp278
F0.00092616130342103222
s(I18
I34
tp279
F0.88537775297901233
s(I22
I26
tp280
F0.52708563731270441
s(I97
I22
tp281
F0.0094513387998706958
s(I37
I5
tp282
F0.0097983372396969054
s(I76
I51
tp283
F0.018900181208087966
s(I63
I22
tp284
F0.0094263748833364365
s(I74
I26
tp285
F0.0047830864079641449
s(I26
I51
tp286
F0.4565176380536593
s(S'rec_12'
I62
tp287
F0.0096735176570256071
s(I19
I5
tp288
F0.0094912810663255118
s(I93
I22
tp289
F0.01914482759012371
s(I30
I35
tp290
F0.12095516839179477
s(I20
I2
tp291
F0.0017924092071598414
s(I32
I30
tp292
F0.0059039662603524029
s(I58
I18
tp293
F0.0095886403408091247
s(I59
I57
tp294
F0.0091767357179938398
s(I82
I2
tp295
F0.0017499705490516
s(S'rec_10'
I26
tp296
F0.0095636764242748636
s(S'rec_69'
I47
tp297
F0.0097184527067872735
s(S'rec_95'
I96
tp298
F0.0096984815735598664
s(I16
I102
tp299
F0.018955101824463336
s(S'rec_81'
I68
tp300
F0.0094862882830186596
s(I55
I22
tp301
F0.0098632434226859789
s(S'rec_36'
I32
tp302
F0.0093914254001884728
s(I75
I102
tp303
F1.407552987909428
s(I104
I102
tp304
F0.0027635055603425409
s(S'rec_41'
I71
tp305
F0.0097009779652132925
s(I33
I35
tp306
F0.003452509656688107
s(I41
I46
tp307
F0.00351242305637033
s(I40
I34
tp308
F0.47943950621541648
s(S'rec_97'
I98
tp309
F0.0096909923985995881
s(I96
I22
tp310
F0.009613604257343384
s(S'rec_9'
I52
tp311
F0.0095287269411268999
s(I34
I40
tp312
F0.076761546951194942
s(I80
I2
tp313
F0.0018673009567626204
s(I94
I22
tp314
F0.0096210934323036606
s(I9
I10
tp315
F0.0093639650920007873
s(S'rec_20'
I73
tp316
F0.0098382795061517196
s(S'rec_79'
I66
tp317
F0.0094588279748309741
s(I44
I43
tp318
F0.0056043992619412867
s(S'rec_7'
I43
tp319
F0.0096959851819064403
s(I11
I12
tp320
F0.0095012666329392145
s(S'rec_68'
I39
tp321
F0.0094812954997118074
s(I26
I22
tp322
F0.43425731368005999
s(I51
I2
tp323
F0.32348991962589657
s(S'rec_58'
I17
tp324
F0.0095811511658488464
s(S'rec_21'
I6
tp325
F0.0093539795253870829
s(I4
I3
tp326
F0.0093814398335747683
s(S'rec_48'
I82
tp327
F0.0095986259074228274
s(I73
I102
tp328
F0.46585663922912579
ssS'MEAN_EXTERNAL'
p329
F0.095307739822827114
sS'PER_LINK_EXTERNAL'
p330
g11
(tRp331
(I52
S'src_9'
p332
tp333
F0.089465684075479668
s(I40
S'src_6'
p334
tp335
F0.10204749800874652
s(I34
S'src_1'
p336
tp337
F0.10597432207958556
s(I1
S'src_5'
p338
tp339
F0.096021208557376239
s(I46
S'src_8'
p340
tp341
F0.089490647992013922
s(I18
S'src_3'
p342
tp343
F0.096388178130429852
s(I5
S'src_2'
p344
tp345
F0.098128163112867747
s(I22
S'src_0'
p346
tp347
F0.092219204069208499
s(I43
S'src_7'
p348
tp349
F0.094193849867068441
s(I2
S'src_4'
p350
tp351
F0.089148642335494563
sssS'CACHE_HIT_RATIO'
p352
g11
(tRp353
S'PER_NODE_SERVER_HIT_RATIO'
p354
g11
(tRp355
g340
F0.089620000000000005
sg332
F0.089594999999999994
sg334
F0.10219499999999999
sg348
F0.094329999999999997
sg350
F0.089277499999999996
sg338
F0.096159999999999995
sg344
F0.098269999999999996
sg342
F0.096527500000000002
sg346
F0.092352500000000004
sg336
F0.1061275
ssS'PER_NODE_CACHE_HIT_RATIO'
p356
g11
(tRp357
I0
F9.5000000000000005e-05
sI1
F0.00079000000000000001
sI2
F0.00049249999999999999
sI3
F0.00016000000000000001
sI4
F0.00012
sI5
F0.0011199999999999999
sI6
F0.00021499999999999999
sI7
F8.7499999999999999e-05
sI8
F0.00015750000000000001
sI9
F0.0001225
sI10
F0.00027250000000000001
sI11
F9.0000000000000006e-05
sI12
F0.0001125
sI15
F9.7499999999999998e-05
sI16
F0.00016000000000000001
sI17
F0.0001025
sI18
F0.0029975000000000002
sI19
F9.5000000000000005e-05
sI20
F0.0001125
sI21
F9.7499999999999998e-05
sI22
F0.0017775
sI23
F0.00013750000000000001
sI24
F0.0001175
sI25
F0.0001025
sI26
F0.00088750000000000005
sI27
F9.7499999999999998e-05
sI28
F0.00012750000000000001
sI29
F9.2499999999999999e-05
sI30
F0.00064000000000000005
sI31
F0.0001025
sI32
F9.0000000000000006e-05
sI33
F9.7499999999999998e-05
sI34
F0.0060175000000000003
sI35
F0.00017249999999999999
sI36
F8.0000000000000007e-05
sI37
F0.000115
sI38
F9.2499999999999999e-05
sI39
F5.7500000000000002e-05
sI40
F0.0073025
sI41
F0.0001125
sI42
F8.25e-05
sI43
F0.0050699999999999999
sI44
F0.00032249999999999998
sI45
F7.4999999999999993e-05
sI46
F0.00093000000000000005
sI47
F0.0001225
sI48
F8.25e-05
sI49
F0.000105
sI50
F0.0010824999999999999
sI51
F0.00055999999999999995
sI52
F0.0015874999999999999
sI53
F0.0001075
sI54
F0.0001125
sI55
F0.0001
sI56
F0.00012999999999999999
sI57
F0.00021249999999999999
sI58
F0.00011
sI59
F9.2499999999999999e-05
sI60
F8.7499999999999999e-05
sI61
F0.00095500000000000001
sI62
F0.00027750000000000002
sI63
F7.25e-05
sI64
F5.2500000000000002e-05
sI65
F9.5000000000000005e-05
sI66
F9.0000000000000006e-05
sI67
F0.00012999999999999999
sI68
F0.00011
sI69
F0.0001225
sI70
F0.0001
sI71
F0.000115
sI72
F6.7500000000000001e-05
sI73
F0.0018625
sI74
F0.000105
sI75
F0.0008275
sI76
F0.000145
sI77
F0.0001
sI78
F0.00011
sI79
F0.000105
sI80
F9.0000000000000006e-05
sI81
F9.5000000000000005e-05
sI82
F9.5000000000000005e-05
sI83
F0.0001225
sI84
F0.00012750000000000001
sI85
F8.25e-05
sI86
F9.7499999999999998e-05
sI87
F0.00013999999999999999
sI88
F0.00013750000000000001
sI91
F7.25e-05
sI92
F8.25e-05
sI93
F0.0001125
sI94
F6.0000000000000002e-05
sI95
F8.25e-05
sI96
F8.5000000000000006e-05
sI97
F0.00014750000000000001
sI98
F9.5000000000000005e-05
sI99
F0.000105
sI100
F0.0001025
sI101
F8.25e-05
sI102
F0.00093749999999999997
sI103
F0.0001
sI104
F8.25e-05
sI105
F9.0000000000000006e-05
sI106
F9.7499999999999998e-05
sI107
F9.0000000000000006e-05
ssg43
F0.045545000000000002
sstp358
a(g11
(tRp359
g13
g11
(tRp360
g15
I100000
sg16
g17
sg18
I100000
sg19
F1
sg20
I400000
sg21
F0.80000000000000004
ssg22
g11
(tRp361
g16
g24
ssg25
g11
(tRp362
g16
S'PROB_CACHE'
p363
ssg28
g11
(tRp364
g16
g30
ssg31
g11
(tRp365
g33
F0.01
sg16
g30
ssg34
S'Strategy: PROB_CACHE'
p366
sg36
g11
(tRp367
g16
g38
sg39
I1221
ssg11
(tRp368
g41
g11
(tRp369
g43
F85.551900000000003
ssg44
g11
(tRp370
g46
F0.10595432416639196
sg47
g11
(tRp371
(S'rec_102'
I106
tp372
F0.0095121483561940567
s(I74
I26
tp373
F0.0049273178475843582
s(I66
I10
tp374
F0.0091646612020518815
s(S'rec_94'
I95
tp375
F0.0097396399463159106
s(S'rec_83'
I70
tp376
F0.0095921453988742685
s(I10
I61
tp377
F0.026026537854490491
s(I34
I46
tp378
F0.65519077899644562
s(I33
I30
tp379
F0.0058272845777367528
s(S'rec_78'
I65
tp380
F0.0092896565812397146
s(I44
I34
tp381
F0.042990910717863123
s(I102
I73
tp382
F0.11577072020377049
s(I34
I73
tp383
F1.3734942248524116
s(I71
I26
tp384
F0.0048523206200716592
s(I85
I22
tp385
F0.0096421435505494018
s(S'rec_17'
I61
tp386
F0.0095671463230367019
s(I25
I26
tp387
F0.0093771533466711961
s(S'rec_11'
I35
tp388
F0.009472149834853949
s(S'rec_70'
I48
tp389
F0.0096721424415544821
s(I50
I1
tp390
F0.63013420528445263
s(I99
I5
tp391
F0.0095396473396153793
s(I46
I75
tp392
F0.48379211523892207
s(I101
I10
tp393
F0.0092871566736559569
s(I100
I6
tp394
F0.0094046523300925205
s(S'rec_40'
I54
tp395
F0.0094746497424377067
s(S'rec_3'
I18
tp396
F0.0093421546404986039
s(I79
I1
tp397
F0.0073047299597369334
s(S'rec_88'
I86
tp398
F0.0097446397614834243
s(I32
I35
tp399
F0.0036823638708735466
s(I17
I18
tp400
F0.0096546430884681851
s(I69
I5
tp401
F0.0095196480789453263
s(S'rec_19'
I50
tp402
F0.0095696462306204596
s(I103
I102
tp403
F0.0029498909488328479
s(I35
I52
tp404
F0.028451448210734441
s(S'rec_37'
I33
tp405
F0.0096096447519605655
s(I38
I35
tp406
F0.009767138929737235
s(I95
I22
tp407
F0.0096696425339707244
s(I12
I61
tp408
F0.013299508345585381
s(I70
I44
tp409
F0.0095321476168641096
s(I15
I16
tp410
F0.009244658244732095
s(I103
I73
tp411
F0.0066897526941327974
s(I48
I5
tp412
F0.0095821457685392429
s(S'rec_57'
I15
tp413
F0.0092696573205696617
s(S'rec_5'
I1
tp414
F0.0094496506666001401
s(S'rec_49'
I83
tp415
F0.0097771385600722606
s(I28
I22
tp416
F0.0097271404083971273
s(S'rec_22'
I41
tp417
F0.0097046412401433184
s(S'rec_59'
I19
tp418
F0.0099146334771788771
s(S'rec_103'
I107
tp419
F0.0095546467851179186
s(I46
I52
tp420
F1.6822878094132006
s(I78
I2
tp421
F0.009507148541026543
s(I75
I102
tp422
F1.4147501997071477
s(S'rec_65'
I28
tp423
F0.0097896380979910439
s(I46
I43
tp424
F0.067984986740262113
s(I8
I62
tp425
F0.0058272845777367528
s(S'rec_47'
I81
tp426
F0.0096071448443768095
s(S'rec_53'
I4
tp427
F0.0098371363420824212
s(S'rec_80'
I67
tp428
F0.0096896417946407791
s(I67
I18
tp429
F0.0096146445671280792
s(I41
I43
tp430
F0.00083996894814223461
s(I36
I35
tp431
F0.0064972598101835357
s(I47
I5
tp432
F0.0096496432733006714
s(S'rec_66'
I29
tp433
F0.0094746497424377067
s(I45
I34
tp434
F0.0029548907640003612
s(I73
I34
tp435
F0.17856089898498628
s(I34
I75
tp436
F0.57647618890669994
s(S'rec_8'
I46
tp437
F0.0096096447519605655
s(I77
I76
tp438
F0.0098946342165088241
s(I50
I51
tp439
F0.21597201597590457
s(I74
I52
tp440
F0.0045673311555234006
s(S'rec_4'
I2
tp441
F0.009712140962894588
s(S'rec_23'
I42
tp442
F0.0097796384676560183
s(I62
I102
tp443
F0.054635480243001605
s(S'rec_76'
I63
tp444
F0.0095696462306204596
s(S'rec_91'
I91
tp445
F0.0093946526997574931
s(I88
I18
tp446
F0.0094421509438488704
s(I57
I58
tp447
F0.0035323694158481476
s(I54
I50
tp448
F0.0074822233981836558
s(I42
I34
tp449
F0.002734898896629776
s(S'rec_45'
I79
tp450
F0.0094121520528437901
s(S'rec_38'
I38
tp451
F0.0098446360648336909
s(I84
I44
tp452
F0.0096821420718895077
s(I42
I43
tp453
F0.00077997116613207507
s(S'rec_33'
I0
tp454
F0.0096421435505494018
s(I61
I62
tp455
F0.12515037345802546
s(I43
I34
tp456
F0.37683856908306129
s(I81
I1
tp457
F0.0075522208105288421
s(I62
I61
tp458
F0.041643460530218286
s(I83
I2
tp459
F0.0020774232021017768
s(I72
I61
tp460
F0.0065947562059500446
s(I12
I62
tp461
F0.0057747865184778636
s(I45
I40
tp462
F0.0021474206144469631
s(S'rec_29'
I12
tp463
F0.0095771459533717292
s(I36
I30
tp464
F0.0057622869805590803
s(I5
I102
tp465
F0.99420824624485249
s(I29
I22
tp466
F0.0093946526997574931
s(S'rec_61'
I23
tp467
F0.0098446360648336909
s(S'rec_24'
I45
tp468
F0.0095721461382042156
s(I3
I5
tp469
F0.019181790890164783
s(I46
I40
tp470
F0.073997264479196856
s(I53
I51
tp471
F0.0019924263442540504
s(S'rec_74'
I59
tp472
F0.0094946490031077597
s(S'rec_62'
I24
tp473
F0.009694641609808291
s(I40
I43
tp474
F0.010959594847189157
s(I30
I34
tp475
F0.040595999252624249
s(I20
I1
tp476
F0.0075472209953613284
s(I26
I75
tp477
F1.0966169604134437
s(I56
I22
tp478
F0.0098221368965798802
s(I18
I43
tp479
F0.018694308911332235
s(I82
I1
tp480
F0.0075472209953613284
s(I45
I46
tp481
F0.0035673681220207407
s(I75
I34
tp482
F0.63605898625795587
s(I102
I75
tp483
F0.80756764594916475
s(I39
I5
tp484
F0.0096646427188032125
s(S'rec_101'
I105
tp485
F0.0096496432733006714
s(S'rec_32'
I58
tp486
F0.0094471507590163824
s(I2
I51
tp487
F0.84024893779161536
s(I26
I52
tp488
F0.11831312621645101
s(I107
I93
tp489
F0.0094921490955240037
s(I54
I51
tp490
F0.0019449281001626742
s(I40
I18
tp491
F0.082144463294659784
s(S'rec_64'
I27
tp492
F0.0096871418870570214
s(I42
I40
tp493
F0.0023424134059799816
s(S'rec_46'
I80
tp494
F0.0096821420718895077
s(I34
I18
tp495
F0.58052353928480194
s(S'rec_63'
I25
tp496
F0.0094596502969351657
s(I72
I62
tp497
F0.0028598942758176083
s(I106
I34
tp498
F0.009469649927270193
s(I71
I52
tp499
F0.0044823342976756751
s(I52
I26
tp500
F0.16971622595365526
s(S'rec_51'
I103
tp501
F0.0097096410553108321
s(S'rec_54'
I7
tp502
F0.009714640870478344
s(I1
I50
tp503
F0.94390760575208488
s(S'rec_43'
I74
tp504
F0.0095471470623666489
s(S'rec_0'
I22
tp505
F0.0098021376359098272
s(S'rec_60'
I21
tp506
F0.00952464789411284
s(I53
I50
tp507
F0.0075447210877775716
s(I52
I46
tp508
F1.1688392905081733
s(I21
I22
tp509
F0.0094646501121026794
s(I61
I73
tp510
F0.076942155612862204
s(I59
I57
tp511
F0.0094521505741838961
s(I50
I52
tp512
F0.84926110463105808
s(S'rec_34'
I16
tp513
F0.0099846308895240633
s(I42
I46
tp514
F0.0038723568472390519
s(I18
I40
tp515
F0.056202922298017023
s(S'rec_98'
I99
tp516
F0.0095996451216255382
s(S'rec_39'
I53
tp517
F0.0096171444747118352
s(I44
I40
tp518
F0.00582228476256924
s(S'rec_73'
I56
tp519
F0.0098571356027524742
s(I51
I50
tp520
F0.060547761678586082
s(S'rec_90'
I88
tp521
F0.0095221479865290823
s(I65
I22
tp522
F0.0092246589840620421
s(I79
I2
tp523
F0.0020299249580104004
s(S'rec_56'
I11
tp524
F0.0096746423491382381
s(S'rec_86'
I84
tp525
F0.0097371400387321547
s(S'rec_42'
I72
tp526
F0.00952464789411284
s(S'rec_87'
I85
tp527
F0.009729640315980885
s(I31
I35
tp528
F0.003599866920609577
s(I60
I57
tp529
F0.0096696425339707244
s(I0
I1
tp530
F0.0075247218271075186
s(I10
I62
tp531
F0.011227084958651119
s(S'rec_44'
I76
tp532
F0.0097721387449047487
s(I98
I52
tp533
F0.0096471433657169155
s(S'rec_72'
I55
tp534
F0.0097696388373209909
s(S'rec_1'
I34
tp535
F0.0094846493727727323
s(S'rec_50'
I93
tp536
F0.0096596429036356988
s(I49
I5
tp537
F0.0095296477092803519
s(S'rec_27'
I3
tp538
F0.0095821457685392429
s(I52
I22
tp539
F1.1633544932694113
s(S'rec_13'
I102
tp540
F0.0095221479865290823
s(S'rec_2'
I5
tp541
F0.0096121446595443215
s(I41
I34
tp542
F0.0028523945530663387
s(S'rec_100'
I101
tp543
F0.0093571540860011432
s(S'rec_84'
I77
tp544
F0.0099271330150976604
s(I7
I8
tp545
F0.0096546430884681851
s(S'rec_18'
I10
tp546
F0.0095146482637778126
s(S'rec_75'
I60
tp547
F0.0097221405932296154
s(S'rec_67'
I37
tp548
F0.0097621391145697213
s(I68
I5
tp549
F0.0092921564888234706
s(I23
I22
tp550
F0.0097721387449047487
s(I22
I26
tp551
F0.54340991129635063
s(S'rec_77'
I64
tp552
F0.0094571503893514097
s(S'rec_96'
I97
tp553
F0.0096646427188032125
s(I43
I46
tp554
F0.32158311175928805
s(S'rec_15'
I44
tp555
F0.0097846382828235302
s(S'rec_6'
I40
tp556
F0.0098321365269149075
s(I96
I22
tp557
F0.00952464789411284
s(I24
I18
tp558
F0.0096171444747118352
s(S'rec_28'
I8
tp559
F0.0093621539011686569
s(I51
I26
tp560
F0.84922110610971802
s(S'rec_71'
I49
tp561
F0.0096021450292092959
s(I27
I5
tp562
F0.0096296440126306185
s(I102
I5
tp563
F1.1831337620720939
s(I22
I52
tp564
F0.39871776025609951
s(S'rec_52'
I104
tp565
F0.0095571466927016763
s(S'rec_93'
I94
tp566
F0.0094221516831788175
s(S'rec_31'
I36
tp567
F0.0095521468775341626
s(S'rec_89'
I87
tp568
F0.0097721387449047487
s(I92
I22
tp569
F0.0095546467851179186
s(I57
I44
tp570
F0.024899079534216242
s(I105
I18
tp571
F0.0095346475244478656
s(I8
I61
tp572
F0.01309201601613358
s(S'rec_82'
I69
tp573
F0.0095821457685392429
s(I43
I18
tp574
F0.067405008180830575
s(S'rec_30'
I31
tp575
F0.0095996451216255382
s(S'rec_26'
I75
tp576
F0.0096721424415544821
s(I6
I62
tp577
F0.028793935549709104
s(I43
I40
tp578
F0.0088671721995848395
s(I81
I2
tp579
F0.0019749269911677539
s(S'rec_14'
I30
tp580
F0.0096696425339707244
s(I35
I30
tp581
F0.049478170897711629
s(I75
I46
tp582
F0.068584964560363712
s(I87
I6
tp583
F0.0097221405932296154
s(I0
I2
tp584
F0.0020674235717667504
s(I64
I18
tp585
F0.0093921527921737372
s(I75
I26
tp586
F0.81488737535440414
s(S'rec_55'
I9
tp587
F0.0095996451216255382
s(S'rec_25'
I57
tp588
F0.0094746497424377067
s(I31
I30
tp589
F0.005917281250751992
s(I46
I34
tp590
F0.94997238155027852
s(S'rec_35'
I20
tp591
F0.0094921490955240037
s(I40
I46
tp592
F0.37927847888480776
s(I104
I73
tp593
F0.0065222588860211015
s(I34
I43
tp594
F0.065932562613997908
s(S'rec_99'
I100
tp595
F0.0094821494651889764
s(S'rec_92'
I92
tp596
F0.0096671426263869684
s(I80
I1
tp597
F0.0075072224740212225
s(I83
I1
tp598
F0.0076397175759603244
s(I41
I40
tp599
F0.0022024185812896092
s(I45
I43
tp600
F0.00083996894814223461
s(I18
I34
tp601
F0.9207559616189146
s(S'rec_85'
I78
tp602
F0.0095621465078691899
s(I97
I22
tp603
F0.0095371474320316233
s(I37
I5
tp604
F0.0096671426263869684
s(I76
I51
tp605
F0.019544277489809497
s(I63
I22
tp606
F0.0094971489106915156
s(I52
I50
tp607
F0.90064920492275979
s(I26
I51
tp608
F0.47517243389012914
s(S'rec_12'
I62
tp609
F0.0097571392994022076
s(I19
I5
tp610
F0.0098596355103362301
s(I93
I22
tp611
F0.01905679551097695
s(I30
I35
tp612
F0.12255546938608605
s(I20
I2
tp613
F0.0018824304105687581
s(I32
I30
tp614
F0.0057622869805590803
s(I58
I18
tp615
F0.0096871418870570214
s(I86
I34
tp616
F0.0096571429960519411
s(I82
I2
tp617
F0.0019549277304977009
s(S'rec_10'
I26
tp618
F0.0095196480789453263
s(S'rec_69'
I47
tp619
F0.0096846419794732654
s(S'rec_95'
I96
tp620
F0.0095796458609554852
s(I16
I102
tp621
F0.019061795326144462
s(S'rec_81'
I68
tp622
F0.0093846530694224675
s(I55
I22
tp623
F0.009712140962894588
s(S'rec_36'
I32
tp624
F0.0094946490031077597
s(I91
I22
tp625
F0.0093471544556661176
s(I104
I102
tp626
F0.0029898894701729543
s(S'rec_41'
I71
tp627
F0.0094371511286813568
s(I33
I35
tp628
F0.0037098628542948696
s(I41
I46
tp629
F0.0037173625770461397
s(I40
I34
tp630
F0.44672598549456222
s(S'rec_97'
I98
tp631
F0.0096971415173920487
s(S'rec_9'
I52
tp632
F0.0097196406856458577
s(I34
I40
tp633
F0.075277217162080273
s(I80
I2
tp634
F0.0021474206144469631
s(I94
I22
tp635
F0.0093596539935849009
s(I9
I10
tp636
F0.0095521468775341626
s(S'rec_20'
I73
tp637
F0.0096421435505494018
s(S'rec_79'
I66
tp638
F0.0092221590764782844
s(I44
I43
tp639
F0.0048448208973203895
s(S'rec_7'
I43
tp640
F0.0095896454912905126
s(I11
I12
tp641
F0.0096071448443768095
s(I58
I36
tp642
F0.002762397880051099
s(S'rec_68'
I39
tp643
F0.009749639576650938
s(S'rec_16'
I51
tp644
F0.0095796458609554852
s(I26
I22
tp645
F0.46146544060839145
s(I51
I2
tp646
F0.33156524274122834
s(S'rec_58'
I17
tp647
F0.0097071411477270744
s(S'rec_21'
I6
tp648
F0.0098571356027524742
s(I4
I3
tp649
F0.0097571392994022076
s(S'rec_48'
I82
tp650
F0.0095746460457879715
s(I73
I102
tp651
F0.44760095314887705
ssg329
F0.092188841975435629
sg330
g11
(tRp652
(I52
S'src_9'
p653
tp654
F0.091349123018051773
s(I40
S'src_6'
p655
tp656
F0.087999246855817864
s(I34
S'src_1'
p657
tp658
F0.092671574129859047
s(I1
S'src_5'
p659
tp660
F0.095771459533717296
s(I46
S'src_8'
p661
tp662
F0.090161666915767366
s(I18
S'src_3'
p663
tp664
F0.095173981621199458
s(I5
S'src_2'
p665
tp666
F0.10133625381515959
s(I22
S'src_0'
p667
tp668
F0.094993988275168972
s(I43
S'src_7'
p669
tp670
F0.084426878918629614
s(I2
S'src_4'
p671
tp672
F0.088004246670985373
sssg352
g11
(tRp673
g354
g11
(tRp674
g661
F0.090164999999999995
sg653
F0.091352500000000003
sg655
F0.088002499999999997
sg669
F0.084430000000000005
sg671
F0.088007500000000002
sg659
F0.095774999999999999
sg665
F0.10134
sg663
F0.095177499999999998
sg667
F0.094997499999999999
sg657
F0.092674999999999993
ssg356
g11
(tRp675
I0
F5.0000000000000002e-05
sI1
F0.001165
sI2
F0.0018699999999999999
sI3
F0.00015750000000000001
sI4
F8.0000000000000007e-05
sI5
F0.0023999999999999998
sI6
F0.00019000000000000001
sI7
F6.0000000000000002e-05
sI8
F9.7499999999999998e-05
sI9
F4.7500000000000003e-05
sI10
F0.00026499999999999999
sI11
F6.7500000000000001e-05
sI12
F0.00011
sI15
F2.5000000000000001e-05
sI16
F0.00016750000000000001
sI17
F5.2500000000000002e-05
sI18
F0.010619999999999999
sI19
F5.5000000000000002e-05
sI20
F6.2500000000000001e-05
sI21
F6.0000000000000002e-05
sI22
F0.0012600000000000001
sI23
F7.25e-05
sI24
F7.75e-05
sI25
F8.25e-05
sI26
F0.0036024999999999998
sI27
F5.7500000000000002e-05
sI28
F6.2500000000000001e-05
sI29
F8.0000000000000007e-05
sI30
F0.00046250000000000002
sI31
F8.25e-05
sI32
F5.0000000000000002e-05
sI33
F7.25e-05
sI34
F0.0078449999999999995
sI35
F0.00015750000000000001
sI36
F5.5000000000000002e-05
sI37
F9.5000000000000005e-05
sI38
F7.75e-05
sI39
F8.5000000000000006e-05
sI40
F0.012655
sI41
F9.2499999999999999e-05
sI42
F5.0000000000000002e-05
sI43
F0.00036999999999999999
sI44
F0.00024000000000000001
sI45
F6.2500000000000001e-05
sI46
F0.0044450000000000002
sI47
F3.4999999999999997e-05
sI48
F9.0000000000000006e-05
sI49
F7.25e-05
sI50
F0.0012925
sI51
F0.00083250000000000002
sI52
F0.0048500000000000001
sI53
F8.0000000000000007e-05
sI54
F4.7500000000000003e-05
sI55
F5.7500000000000002e-05
sI56
F3.4999999999999997e-05
sI57
F0.000165
sI58
F0.00052999999999999998
sI59
F4.2500000000000003e-05
sI60
F5.2500000000000002e-05
sI61
F0.00050250000000000002
sI62
F0.00073999999999999999
sI63
F7.25e-05
sI64
F6.4999999999999994e-05
sI65
F6.4999999999999994e-05
sI66
F5.7500000000000002e-05
sI67
F7.4999999999999993e-05
sI68
F9.2499999999999999e-05
sI69
F6.2500000000000001e-05
sI70
F6.0000000000000002e-05
sI71
F0.0001025
sI72
F6.9999999999999994e-05
sI73
F0.0043099999999999996
sI74
F5.2500000000000002e-05
sI75
F0.0063200000000000001
sI76
F0.0001225
sI77
F3.2499999999999997e-05
sI78
F5.5000000000000002e-05
sI79
F7.75e-05
sI80
F2.7500000000000001e-05
sI81
F8.0000000000000007e-05
sI82
F7.25e-05
sI83
F6.0000000000000002e-05
sI84
F5.5000000000000002e-05
sI85
F8.7499999999999999e-05
sI86
F8.7499999999999999e-05
sI87
F5.0000000000000002e-05
sI88
F8.0000000000000007e-05
sI91
F4.7500000000000003e-05
sI92
F0.0001125
sI93
F9.5000000000000005e-05
sI94
F6.2500000000000001e-05
sI95
F6.9999999999999994e-05
sI96
F5.5000000000000002e-05
sI97
F0.00012750000000000001
sI98
F5.0000000000000002e-05
sI99
F6.0000000000000002e-05
sI100
F7.75e-05
sI101
F6.9999999999999994e-05
sI102
F0.0054025000000000002
sI103
F6.9999999999999994e-05
sI104
F4.5000000000000003e-05
sI105
F0.000115
sI106
F4.2500000000000003e-05
sI107
F6.2500000000000001e-05
ssg43
F0.078077499999999994
sstp676
atRp677
sb.