ccopy_reg
_reconstructor
p1
(cicarus.results.readwrite
ResultSet
p2
c__builtin__
object
p3
NtRp4
(dp5
S'attr'
p6
(dp7
sS'_results'
p8
ccollections
deque
p9
((lp10
(cicarus.util
Tree
p11
(tRp12
S'workload'
p13
g11
(tRp14
S'n_contents'
p15
I10000
sS'name'
p16
S'STATIONARY'
p17
sS'n_warmup'
p18
I360000
sS'rate'
p19
I1000
sS'n_measured'
p20
I3600000
sS'alpha'
p21
F0.80000000000000004
ssS'cache_policy'
p22
g11
(tRp23
g16
S'LRU'
p24
ssS'desc'
p25
S'caching probability: 0.33'
p26
sS'strategy'
p27
g11
(tRp28
S'extra_quota'
p29
I0
sS'rsn_fresh'
p30
F5
sg16
S'LIRA_BC_HYBRID'
p31
sS'p'
F0.33000000000000002
ssS'content_placement'
p32
g11
(tRp33
g16
S'LOWEST_DEGREE'
p34
ssS'joint_cache_rsn_placement'
p35
g11
(tRp36
S'network_cache'
p37
F0.94999999999999996
sS'network_rsn'
p38
F60.799999999999997
sg16
S'CACHE_ALL_RSN_ALL'
p39
sS'rsn_cache_ratio'
p40
I64
ssS'warmup_strategy'
p41
g11
(tRp42
S'p'
F0.10000000000000001
sg16
S'NDN'
p43
ssS'topology'
p44
g11
(tRp45
S'ext_delay'
p46
I5
sS'source_ratio'
p47
F0.10000000000000001
sg16
S'ROCKET_FUEL'
p48
sS'asn'
p49
I3257
ssg11
(tRp50
S'SAT_RATE'
p51
g11
(tRp52
S'MEAN_CACHE_HIT'
p53
F0.60598055555555552
sS'MEAN_SERVER_HIT'
p54
F0.22714694444444444
sS'MEAN'
p55
F0.83312750000000002
ssS'CACHE_HIT_RATIO'
p56
g11
(tRp57
S'MEAN_OFF_PATH'
p58
F0.55318995818687633
sS'MEAN_ON_PATH'
p59
F0.052790597368679193
sg55
F0.60598055555555552
ssS'OVERHEAD'
p60
g11
(tRp61
g55
F4.9694897222222219
ssS'LATENCY'
p62
g11
(tRp63
g55
F38.247678531382157
sstp64
a(g11
(tRp65
S'workload'
p66
g11
(tRp67
S'n_contents'
p68
I10000
sS'name'
p69
S'STATIONARY'
p70
sS'n_warmup'
p71
I360000
sS'rate'
p72
I1000
sS'n_measured'
p73
I3600000
sS'alpha'
p74
F0.80000000000000004
ssS'cache_policy'
p75
g11
(tRp76
g69
S'LRU'
p77
ssS'desc'
p78
S'caching probability: 0.25'
p79
sS'strategy'
p80
g11
(tRp81
S'extra_quota'
p82
I0
sS'rsn_fresh'
p83
F5
sg69
S'LIRA_BC_HYBRID'
p84
sS'p'
F0.25
ssS'content_placement'
p85
g11
(tRp86
g69
S'LOWEST_DEGREE'
p87
ssS'joint_cache_rsn_placement'
p88
g11
(tRp89
S'network_cache'
p90
F0.94999999999999996
sS'network_rsn'
p91
F60.799999999999997
sg69
S'CACHE_ALL_RSN_ALL'
p92
sS'rsn_cache_ratio'
p93
I64
ssS'warmup_strategy'
p94
g11
(tRp95
S'p'
F0.10000000000000001
sg69
S'NDN'
p96
ssS'topology'
p97
g11
(tRp98
S'ext_delay'
p99
I5
sS'source_ratio'
p100
F0.10000000000000001
sg69
S'ROCKET_FUEL'
p101
sS'asn'
p102
I3257
ssg11
(tRp103
S'SAT_RATE'
p104
g11
(tRp105
S'MEAN_CACHE_HIT'
p106
F0.60159222222222219
sS'MEAN_SERVER_HIT'
p107
F0.22818305555555554
sS'MEAN'
p108
F0.82977527777777782
ssS'CACHE_HIT_RATIO'
p109
g11
(tRp110
S'MEAN_OFF_PATH'
p111
F0.54217470036507842
sS'MEAN_ON_PATH'
p112
F0.059417521857143774
sg108
F0.60159222222222219
ssS'OVERHEAD'
p113
g11
(tRp114
g108
F4.9067661111111107
ssS'LATENCY'
p115
g11
(tRp116
g108
F38.251715544882458
sstp117
a(g11
(tRp118
S'workload'
p119
g11
(tRp120
S'n_contents'
p121
I10000
sS'name'
p122
S'STATIONARY'
p123
sS'n_warmup'
p124
I360000
sS'rate'
p125
I1000
sS'n_measured'
p126
I3600000
sS'alpha'
p127
F0.80000000000000004
ssS'cache_policy'
p128
g11
(tRp129
g122
S'LRU'
p130
ssS'desc'
p131
S'caching probability: 0.1'
p132
sS'strategy'
p133
g11
(tRp134
S'extra_quota'
p135
I0
sS'rsn_fresh'
p136
F5
sg122
S'LIRA_BC_HYBRID'
p137
sS'p'
F0.10000000000000001
ssS'content_placement'
p138
g11
(tRp139
g122
S'LOWEST_DEGREE'
p140
ssS'joint_cache_rsn_placement'
p141
g11
(tRp142
S'network_cache'
p143
F0.94999999999999996
sS'network_rsn'
p144
F60.799999999999997
sg122
S'CACHE_ALL_RSN_ALL'
p145
sS'rsn_cache_ratio'
p146
I64
ssS'warmup_strategy'
p147
g11
(tRp148
S'p'
F0.10000000000000001
sg122
S'NDN'
p149
ssS'topology'
p150
g11
(tRp151
S'ext_delay'
p152
I5
sS'source_ratio'
p153
F0.10000000000000001
sg122
S'ROCKET_FUEL'
p154
sS'asn'
p155
I3257
ssg11
(tRp156
S'SAT_RATE'
p157
g11
(tRp158
S'MEAN_CACHE_HIT'
p159
F0.58269694444444442
sS'MEAN_SERVER_HIT'
p160
F0.23214444444444443
sS'MEAN'
p161
F0.81484138888888891
ssS'CACHE_HIT_RATIO'
p162
g11
(tRp163
S'MEAN_OFF_PATH'
p164
F0.49498292090804547
sS'MEAN_ON_PATH'
p165
F0.087714023536398955
sg161
F0.58269694444444442
ssS'OVERHEAD'
p166
g11
(tRp167
g161
F4.6144063888888889
ssS'LATENCY'
p168
g11
(tRp169
g161
F38.156289312929538
sstp170
a(g11
(tRp171
S'workload'
p172
g11
(tRp173
S'n_contents'
p174
I10000
sS'name'
p175
S'STATIONARY'
p176
sS'n_warmup'
p177
I360000
sS'rate'
p178
I1000
sS'n_measured'
p179
I3600000
sS'alpha'
p180
F0.80000000000000004
ssS'cache_policy'
p181
g11
(tRp182
g175
S'LRU'
p183
ssS'desc'
p184
S'caching probability: 0.1'
p185
sS'strategy'
p186
g11
(tRp187
S'extra_quota'
p188
I1
sS'rsn_fresh'
p189
F5
sg175
S'LIRA_BC_HYBRID'
p190
sS'p'
F0.10000000000000001
ssS'content_placement'
p191
g11
(tRp192
g175
S'LOWEST_DEGREE'
p193
ssS'joint_cache_rsn_placement'
p194
g11
(tRp195
S'network_cache'
p196
F0.94999999999999996
sS'network_rsn'
p197
F60.799999999999997
sg175
S'CACHE_ALL_RSN_ALL'
p198
sS'rsn_cache_ratio'
p199
I64
ssS'warmup_strategy'
p200
g11
(tRp201
S'p'
F0.10000000000000001
sg175
S'NDN'
p202
ssS'topology'
p203
g11
(tRp204
S'ext_delay'
p205
I5
sS'source_ratio'
p206
F0.10000000000000001
sg175
S'ROCKET_FUEL'
p207
sS'asn'
p208
I3257
ssg11
(tRp209
S'SAT_RATE'
p210
g11
(tRp211
S'MEAN_CACHE_HIT'
p212
F0.58555916666666663
sS'MEAN_SERVER_HIT'
p213
F0.3764811111111111
sS'MEAN'
p214
F0.96204027777777779
ssS'CACHE_HIT_RATIO'
p215
g11
(tRp216
S'MEAN_OFF_PATH'
p217
F0.36602886074259883
sS'MEAN_ON_PATH'
p218
F0.2195303059240678
sg214
F0.58555916666666663
ssS'OVERHEAD'
p219
g11
(tRp220
g214
F6.4366730555555556
ssS'LATENCY'
p221
g11
(tRp222
g214
F58.990234582769595
sstp223
a(g11
(tRp224
S'workload'
p225
g11
(tRp226
S'n_contents'
p227
I10000
sS'name'
p228
S'STATIONARY'
p229
sS'n_warmup'
p230
I360000
sS'rate'
p231
I1000
sS'n_measured'
p232
I3600000
sS'alpha'
p233
F0.80000000000000004
ssS'cache_policy'
p234
g11
(tRp235
g228
S'LRU'
p236
ssS'desc'
p237
S'caching probability: 0.1'
p238
sS'strategy'
p239
g11
(tRp240
S'extra_quota'
p241
I2
sS'rsn_fresh'
p242
F5
sg228
S'LIRA_BC_HYBRID'
p243
sS'p'
F0.10000000000000001
ssS'content_placement'
p244
g11
(tRp245
g228
S'LOWEST_DEGREE'
p246
ssS'joint_cache_rsn_placement'
p247
g11
(tRp248
S'network_cache'
p249
F0.94999999999999996
sS'network_rsn'
p250
F60.799999999999997
sg228
S'CACHE_ALL_RSN_ALL'
p251
sS'rsn_cache_ratio'
p252
I64
ssS'warmup_strategy'
p253
g11
(tRp254
S'p'
F0.10000000000000001
sg228
S'NDN'
p255
ssS'topology'
p256
g11
(tRp257
S'ext_delay'
p258
I5
sS'source_ratio'
p259
F0.10000000000000001
sg228
S'ROCKET_FUEL'
p260
sS'asn'
p261
I3257
ssg11
(tRp262
S'SAT_RATE'
p263
g11
(tRp264
S'MEAN_CACHE_HIT'
p265
F0.58782777777777773
sS'MEAN_SERVER_HIT'
p266
F0.40856138888888888
sS'MEAN'
p267
F0.99638916666666666
ssS'CACHE_HIT_RATIO'
p268
g11
(tRp269
S'MEAN_OFF_PATH'
p270
F0.30036132406430277
sS'MEAN_ON_PATH'
p271
F0.28746645371347496
sg267
F0.58782777777777773
ssS'OVERHEAD'
p272
g11
(tRp273
g267
F6.8288666666666664
ssS'LATENCY'
p274
g11
(tRp275
g267
F63.331690683150342
sstp276
a(g11
(tRp277
S'workload'
p278
g11
(tRp279
S'n_contents'
p280
I10000
sS'name'
p281
S'STATIONARY'
p282
sS'n_warmup'
p283
I360000
sS'rate'
p284
I1000
sS'n_measured'
p285
I3600000
sS'alpha'
p286
F0.80000000000000004
ssS'cache_policy'
p287
g11
(tRp288
g281
S'LRU'
p289
ssS'desc'
p290
S'caching probability: 0.1'
p291
sS'strategy'
p292
g11
(tRp293
S'extra_quota'
p294
I4
sS'rsn_fresh'
p295
F5
sg281
S'LIRA_BC_HYBRID'
p296
sS'p'
F0.10000000000000001
ssS'content_placement'
p297
g11
(tRp298
g281
S'LOWEST_DEGREE'
p299
ssS'joint_cache_rsn_placement'
p300
g11
(tRp301
S'network_cache'
p302
F0.94999999999999996
sS'network_rsn'
p303
F60.799999999999997
sg281
S'CACHE_ALL_RSN_ALL'
p304
sS'rsn_cache_ratio'
p305
I64
ssS'warmup_strategy'
p306
g11
(tRp307
S'p'
F0.10000000000000001
sg281
S'NDN'
p308
ssS'topology'
p309
g11
(tRp310
S'ext_delay'
p311
I5
sS'source_ratio'
p312
F0.10000000000000001
sg281
S'ROCKET_FUEL'
p313
sS'asn'
p314
I3257
ssg11
(tRp315
S'SAT_RATE'
p316
g11
(tRp317
S'MEAN_CACHE_HIT'
p318
F0.59005333333333332
sS'MEAN_SERVER_HIT'
p319
F0.40968583333333336
sS'MEAN'
p320
F0.99973916666666662
ssS'CACHE_HIT_RATIO'
p321
g11
(tRp322
S'MEAN_OFF_PATH'
p323
F0.29041209917547034
sS'MEAN_ON_PATH'
p324
F0.29964123415786298
sg320
F0.59005333333333332
ssS'OVERHEAD'
p325
g11
(tRp326
g320
F6.9966736111111114
ssS'LATENCY'
p327
g11
(tRp328
g320
F63.43258238664594
sstp329
a(g11
(tRp330
S'workload'
p331
g11
(tRp332
S'n_contents'
p333
I10000
sS'name'
p334
S'STATIONARY'
p335
sS'n_warmup'
p336
I360000
sS'rate'
p337
I1000
sS'n_measured'
p338
I3600000
sS'alpha'
p339
F0.80000000000000004
ssS'cache_policy'
p340
g11
(tRp341
g334
S'LRU'
p342
ssS'desc'
p343
S'caching probability: 0.25'
p344
sS'strategy'
p345
g11
(tRp346
S'extra_quota'
p347
I2
sS'rsn_fresh'
p348
F5
sg334
S'LIRA_BC_HYBRID'
p349
sS'p'
F0.25
ssS'content_placement'
p350
g11
(tRp351
g334
S'LOWEST_DEGREE'
p352
ssS'joint_cache_rsn_placement'
p353
g11
(tRp354
S'network_cache'
p355
F0.94999999999999996
sS'network_rsn'
p356
F60.799999999999997
sg334
S'CACHE_ALL_RSN_ALL'
p357
sS'rsn_cache_ratio'
p358
I64
ssS'warmup_strategy'
p359
g11
(tRp360
S'p'
F0.10000000000000001
sg334
S'NDN'
p361
ssS'topology'
p362
g11
(tRp363
S'ext_delay'
p364
I5
sS'source_ratio'
p365
F0.10000000000000001
sg334
S'ROCKET_FUEL'
p366
sS'asn'
p367
I3257
ssg11
(tRp368
S'SAT_RATE'
p369
g11
(tRp370
S'MEAN_CACHE_HIT'
p371
F0.5953802777777778
sS'MEAN_SERVER_HIT'
p372
F0.40122666666666668
sS'MEAN'
p373
F0.99660694444444442
ssS'CACHE_HIT_RATIO'
p374
g11
(tRp375
S'MEAN_OFF_PATH'
p376
F0.31501195457199604
sS'MEAN_ON_PATH'
p377
F0.28036832320578176
sg373
F0.5953802777777778
ssS'OVERHEAD'
p378
g11
(tRp379
g373
F6.9601533333333334
ssS'LATENCY'
p380
g11
(tRp381
g373
F62.560917064998442
sstp382
a(g11
(tRp383
S'workload'
p384
g11
(tRp385
S'n_contents'
p386
I10000
sS'name'
p387
S'STATIONARY'
p388
sS'n_warmup'
p389
I360000
sS'rate'
p390
I1000
sS'n_measured'
p391
I3600000
sS'alpha'
p392
F0.80000000000000004
ssS'cache_policy'
p393
g11
(tRp394
g387
S'LRU'
p395
ssS'desc'
p396
S'caching probability: 0.25'
p397
sS'strategy'
p398
g11
(tRp399
S'extra_quota'
p400
I1
sS'rsn_fresh'
p401
F5
sg387
S'LIRA_BC_HYBRID'
p402
sS'p'
F0.25
ssS'content_placement'
p403
g11
(tRp404
g387
S'LOWEST_DEGREE'
p405
ssS'joint_cache_rsn_placement'
p406
g11
(tRp407
S'network_cache'
p408
F0.94999999999999996
sS'network_rsn'
p409
F60.799999999999997
sg387
S'CACHE_ALL_RSN_ALL'
p410
sS'rsn_cache_ratio'
p411
I64
ssS'warmup_strategy'
p412
g11
(tRp413
S'p'
F0.10000000000000001
sg387
S'NDN'
p414
ssS'topology'
p415
g11
(tRp416
S'ext_delay'
p417
I5
sS'source_ratio'
p418
F0.10000000000000001
sg387
S'ROCKET_FUEL'
p419
sS'asn'
p420
I3257
ssg11
(tRp421
S'SAT_RATE'
p422
g11
(tRp423
S'MEAN_CACHE_HIT'
p424
F0.60272888888888887
sS'MEAN_SERVER_HIT'
p425
F0.36346111111111112
sS'MEAN'
p426
F0.96618999999999999
ssS'CACHE_HIT_RATIO'
p427
g11
(tRp428
S'MEAN_OFF_PATH'
p429
F0.39438787969890871
sS'MEAN_ON_PATH'
p430
F0.20834100918998016
sg426
F0.60272888888888887
ssS'OVERHEAD'
p431
g11
(tRp432
g426
F6.6740055555555555
ssS'LATENCY'
p433
g11
(tRp434
g426
F58.329932761089523
sstp435
a(g11
(tRp436
S'workload'
p437
g11
(tRp438
S'n_contents'
p439
I10000
sS'name'
p440
S'STATIONARY'
p441
sS'n_warmup'
p442
I360000
sS'rate'
p443
I1000
sS'n_measured'
p444
I3600000
sS'alpha'
p445
F0.80000000000000004
ssS'cache_policy'
p446
g11
(tRp447
g440
S'LRU'
p448
ssS'desc'
p449
S'caching probability: 0.25'
p450
sS'strategy'
p451
g11
(tRp452
S'extra_quota'
p453
I4
sS'rsn_fresh'
p454
F5
sg440
S'LIRA_BC_HYBRID'
p455
sS'p'
F0.25
ssS'content_placement'
p456
g11
(tRp457
g440
S'LOWEST_DEGREE'
p458
ssS'joint_cache_rsn_placement'
p459
g11
(tRp460
S'network_cache'
p461
F0.94999999999999996
sS'network_rsn'
p462
F60.799999999999997
sg440
S'CACHE_ALL_RSN_ALL'
p463
sS'rsn_cache_ratio'
p464
I64
ssS'warmup_strategy'
p465
g11
(tRp466
S'p'
F0.10000000000000001
sg440
S'NDN'
p467
ssS'topology'
p468
g11
(tRp469
S'ext_delay'
p470
I5
sS'source_ratio'
p471
F0.10000000000000001
sg440
S'ROCKET_FUEL'
p472
sS'asn'
p473
I3257
ssg11
(tRp474
S'SAT_RATE'
p475
g11
(tRp476
S'MEAN_CACHE_HIT'
p477
F0.59508722222222221
sS'MEAN_SERVER_HIT'
p478
F0.40463972222222222
sS'MEAN'
p479
F0.99972694444444443
ssS'CACHE_HIT_RATIO'
p480
g11
(tRp481
S'MEAN_OFF_PATH'
p482
F0.30407524531716262
sS'MEAN_ON_PATH'
p483
F0.29101197690505959
sg479
F0.59508722222222221
ssS'OVERHEAD'
p484
g11
(tRp485
g479
F7.1229241666666665
ssS'LATENCY'
p486
g11
(tRp487
g479
F63.071018423792268
sstp488
a(g11
(tRp489
S'workload'
p490
g11
(tRp491
S'n_contents'
p492
I10000
sS'name'
p493
S'STATIONARY'
p494
sS'n_warmup'
p495
I360000
sS'rate'
p496
I1000
sS'n_measured'
p497
I3600000
sS'alpha'
p498
F0.80000000000000004
ssS'cache_policy'
p499
g11
(tRp500
g493
S'LRU'
p501
ssS'desc'
p502
S'caching probability: 0.1'
p503
sS'strategy'
p504
g11
(tRp505
S'extra_quota'
p506
I3
sS'rsn_fresh'
p507
F5
sg493
S'LIRA_BC_HYBRID'
p508
sS'p'
F0.10000000000000001
ssS'content_placement'
p509
g11
(tRp510
g493
S'LOWEST_DEGREE'
p511
ssS'joint_cache_rsn_placement'
p512
g11
(tRp513
S'network_cache'
p514
F0.94999999999999996
sS'network_rsn'
p515
F60.799999999999997
sg493
S'CACHE_ALL_RSN_ALL'
p516
sS'rsn_cache_ratio'
p517
I64
ssS'warmup_strategy'
p518
g11
(tRp519
S'p'
F0.10000000000000001
sg493
S'NDN'
p520
ssS'topology'
p521
g11
(tRp522
S'ext_delay'
p523
I5
sS'source_ratio'
p524
F0.10000000000000001
sg493
S'ROCKET_FUEL'
p525
sS'asn'
p526
I3257
ssg11
(tRp527
S'SAT_RATE'
p528
g11
(tRp529
S'MEAN_CACHE_HIT'
p530
F0.58948527777777782
sS'MEAN_SERVER_HIT'
p531
F0.40980694444444443
sS'MEAN'
p532
F0.99929222222222225
ssS'CACHE_HIT_RATIO'
p533
g11
(tRp534
S'MEAN_OFF_PATH'
p535
F0.2930468439712246
sS'MEAN_ON_PATH'
p536
F0.29643843380655321
sg532
F0.58948527777777782
ssS'OVERHEAD'
p537
g11
(tRp538
g532
F6.9671113888888891
ssS'LATENCY'
p539
g11
(tRp540
g532
F63.498111189976271
sstp541
a(g11
(tRp542
S'workload'
p543
g11
(tRp544
S'n_contents'
p545
I10000
sS'name'
p546
S'STATIONARY'
p547
sS'n_warmup'
p548
I360000
sS'rate'
p549
I1000
sS'n_measured'
p550
I3600000
sS'alpha'
p551
F0.80000000000000004
ssS'cache_policy'
p552
g11
(tRp553
g546
S'LRU'
p554
ssS'desc'
p555
S'caching probability: 0.1'
p556
sS'strategy'
p557
g11
(tRp558
S'extra_quota'
p559
I5
sS'rsn_fresh'
p560
F5
sg546
S'LIRA_BC_HYBRID'
p561
sS'p'
F0.10000000000000001
ssS'content_placement'
p562
g11
(tRp563
g546
S'LOWEST_DEGREE'
p564
ssS'joint_cache_rsn_placement'
p565
g11
(tRp566
S'network_cache'
p567
F0.94999999999999996
sS'network_rsn'
p568
F60.799999999999997
sg546
S'CACHE_ALL_RSN_ALL'
p569
sS'rsn_cache_ratio'
p570
I64
ssS'warmup_strategy'
p571
g11
(tRp572
S'p'
F0.10000000000000001
sg546
S'NDN'
p573
ssS'topology'
p574
g11
(tRp575
S'ext_delay'
p576
I5
sS'source_ratio'
p577
F0.10000000000000001
sg546
S'ROCKET_FUEL'
p578
sS'asn'
p579
I3257
ssg11
(tRp580
S'SAT_RATE'
p581
g11
(tRp582
S'MEAN_CACHE_HIT'
p583
F0.58899583333333339
sS'MEAN_SERVER_HIT'
p584
F0.41088166666666665
sS'MEAN'
p585
F0.99987749999999997
ssS'CACHE_HIT_RATIO'
p586
g11
(tRp587
S'MEAN_OFF_PATH'
p588
F0.28927559441232242
sS'MEAN_ON_PATH'
p589
F0.29972023892101096
sg585
F0.58899583333333339
ssS'OVERHEAD'
p590
g11
(tRp591
g585
F6.997943055555556
ssS'LATENCY'
p592
g11
(tRp593
g585
F63.554214997331307
sstp594
a(g11
(tRp595
S'workload'
p596
g11
(tRp597
S'n_contents'
p598
I10000
sS'name'
p599
S'STATIONARY'
p600
sS'n_warmup'
p601
I360000
sS'rate'
p602
I1000
sS'n_measured'
p603
I3600000
sS'alpha'
p604
F0.80000000000000004
ssS'cache_policy'
p605
g11
(tRp606
g599
S'LRU'
p607
ssS'desc'
p608
S'caching probability: 0.25'
p609
sS'strategy'
p610
g11
(tRp611
S'extra_quota'
p612
I3
sS'rsn_fresh'
p613
F5
sg599
S'LIRA_BC_HYBRID'
p614
sS'p'
F0.25
ssS'content_placement'
p615
g11
(tRp616
g599
S'LOWEST_DEGREE'
p617
ssS'joint_cache_rsn_placement'
p618
g11
(tRp619
S'network_cache'
p620
F0.94999999999999996
sS'network_rsn'
p621
F60.799999999999997
sg599
S'CACHE_ALL_RSN_ALL'
p622
sS'rsn_cache_ratio'
p623
I64
ssS'warmup_strategy'
p624
g11
(tRp625
S'p'
F0.10000000000000001
sg599
S'NDN'
p626
ssS'topology'
p627
g11
(tRp628
S'ext_delay'
p629
I5
sS'source_ratio'
p630
F0.10000000000000001
sg599
S'ROCKET_FUEL'
p631
sS'asn'
p632
I3257
ssg11
(tRp633
S'SAT_RATE'
p634
g11
(tRp635
S'MEAN_CACHE_HIT'
p636
F0.59571194444444442
sS'MEAN_SERVER_HIT'
p637
F0.4036386111111111
sS'MEAN'
p638
F0.99935055555555552
ssS'CACHE_HIT_RATIO'
p639
g11
(tRp640
S'MEAN_OFF_PATH'
p641
F0.30643789428756513
sS'MEAN_ON_PATH'
p642
F0.28927405015687929
sg638
F0.59571194444444442
ssS'OVERHEAD'
p643
g11
(tRp644
g638
F7.0834038888888893
ssS'LATENCY'
p645
g11
(tRp646
g638
F62.886103494530616
sstp647
a(g11
(tRp648
S'workload'
p649
g11
(tRp650
S'n_contents'
p651
I10000
sS'name'
p652
S'STATIONARY'
p653
sS'n_warmup'
p654
I360000
sS'rate'
p655
I1000
sS'n_measured'
p656
I3600000
sS'alpha'
p657
F0.80000000000000004
ssS'cache_policy'
p658
g11
(tRp659
g652
S'LRU'
p660
ssS'desc'
p661
S'caching probability: 0.25'
p662
sS'strategy'
p663
g11
(tRp664
S'extra_quota'
p665
I5
sS'rsn_fresh'
p666
F5
sg652
S'LIRA_BC_HYBRID'
p667
sS'p'
F0.25
ssS'content_placement'
p668
g11
(tRp669
g652
S'LOWEST_DEGREE'
p670
ssS'joint_cache_rsn_placement'
p671
g11
(tRp672
S'network_cache'
p673
F0.94999999999999996
sS'network_rsn'
p674
F60.799999999999997
sg652
S'CACHE_ALL_RSN_ALL'
p675
sS'rsn_cache_ratio'
p676
I64
ssS'warmup_strategy'
p677
g11
(tRp678
S'p'
F0.10000000000000001
sg652
S'NDN'
p679
ssS'topology'
p680
g11
(tRp681
S'ext_delay'
p682
I5
sS'source_ratio'
p683
F0.10000000000000001
sg652
S'ROCKET_FUEL'
p684
sS'asn'
p685
I3257
ssg11
(tRp686
S'SAT_RATE'
p687
g11
(tRp688
S'MEAN_CACHE_HIT'
p689
F0.59471472222222221
sS'MEAN_SERVER_HIT'
p690
F0.40515472222222221
sS'MEAN'
p691
F0.99986944444444448
ssS'CACHE_HIT_RATIO'
p692
g11
(tRp693
S'MEAN_OFF_PATH'
p694
F0.30321907995935199
sS'MEAN_ON_PATH'
p695
F0.29149564226287022
sg691
F0.59471472222222221
ssS'OVERHEAD'
p696
g11
(tRp697
g691
F7.1254197222222224
ssS'LATENCY'
p698
g11
(tRp699
g691
F63.036012711513735
sstp700
a(g11
(tRp701
S'workload'
p702
g11
(tRp703
S'n_contents'
p704
I10000
sS'name'
p705
S'STATIONARY'
p706
sS'n_warmup'
p707
I360000
sS'rate'
p708
I1000
sS'n_measured'
p709
I3600000
sS'alpha'
p710
F0.80000000000000004
ssS'cache_policy'
p711
g11
(tRp712
g705
S'LRU'
p713
ssS'desc'
p714
S'caching probability: 0.33'
p715
sS'strategy'
p716
g11
(tRp717
S'extra_quota'
p718
I1
sS'rsn_fresh'
p719
F5
sg705
S'LIRA_BC_HYBRID'
p720
sS'p'
F0.33000000000000002
ssS'content_placement'
p721
g11
(tRp722
g705
S'LOWEST_DEGREE'
p723
ssS'joint_cache_rsn_placement'
p724
g11
(tRp725
S'network_cache'
p726
F0.94999999999999996
sS'network_rsn'
p727
F60.799999999999997
sg705
S'CACHE_ALL_RSN_ALL'
p728
sS'rsn_cache_ratio'
p729
I64
ssS'warmup_strategy'
p730
g11
(tRp731
S'p'
F0.10000000000000001
sg705
S'NDN'
p732
ssS'topology'
p733
g11
(tRp734
S'ext_delay'
p735
I5
sS'source_ratio'
p736
F0.10000000000000001
sg705
S'ROCKET_FUEL'
p737
sS'asn'
p738
I3257
ssg11
(tRp739
S'SAT_RATE'
p740
g11
(tRp741
S'MEAN_CACHE_HIT'
p742
F0.60597749999999995
sS'MEAN_SERVER_HIT'
p743
F0.36128305555555557
sS'MEAN'
p744
F0.96726055555555557
ssS'CACHE_HIT_RATIO'
p745
g11
(tRp746
S'MEAN_OFF_PATH'
p747
F0.39834205995946126
sS'MEAN_ON_PATH'
p748
F0.20763544004053869
sg744
F0.60597749999999995
ssS'OVERHEAD'
p749
g11
(tRp750
g744
F6.7596616666666662
ssS'LATENCY'
p751
g11
(tRp752
g744
F57.869478603885703
sstp753
a(g11
(tRp754
S'workload'
p755
g11
(tRp756
S'n_contents'
p757
I10000
sS'name'
p758
S'STATIONARY'
p759
sS'n_warmup'
p760
I360000
sS'rate'
p761
I1000
sS'n_measured'
p762
I3600000
sS'alpha'
p763
F0.80000000000000004
ssS'cache_policy'
p764
g11
(tRp765
g758
S'LRU'
p766
ssS'desc'
p767
S'caching probability: 0.33'
p768
sS'strategy'
p769
g11
(tRp770
S'extra_quota'
p771
I2
sS'rsn_fresh'
p772
F5
sg758
S'LIRA_BC_HYBRID'
p773
sS'p'
F0.33000000000000002
ssS'content_placement'
p774
g11
(tRp775
g758
S'LOWEST_DEGREE'
p776
ssS'joint_cache_rsn_placement'
p777
g11
(tRp778
S'network_cache'
p779
F0.94999999999999996
sS'network_rsn'
p780
F60.799999999999997
sg758
S'CACHE_ALL_RSN_ALL'
p781
sS'rsn_cache_ratio'
p782
I64
ssS'warmup_strategy'
p783
g11
(tRp784
S'p'
F0.10000000000000001
sg758
S'NDN'
p785
ssS'topology'
p786
g11
(tRp787
S'ext_delay'
p788
I5
sS'source_ratio'
p789
F0.10000000000000001
sg758
S'ROCKET_FUEL'
p790
sS'asn'
p791
I3257
ssg11
(tRp792
S'SAT_RATE'
p793
g11
(tRp794
S'MEAN_CACHE_HIT'
p795
F0.59596083333333338
sS'MEAN_SERVER_HIT'
p796
F0.40075472222222225
sS'MEAN'
p797
F0.99671555555555558
ssS'CACHE_HIT_RATIO'
p798
g11
(tRp799
S'MEAN_OFF_PATH'
p800
F0.3177761685167943
sS'MEAN_ON_PATH'
p801
F0.27818466481653908
sg797
F0.59596083333333338
ssS'OVERHEAD'
p802
g11
(tRp803
g797
F6.995183611111111
ssS'LATENCY'
p804
g11
(tRp805
g797
F62.578475505709036
sstp806
a(g11
(tRp807
S'workload'
p808
g11
(tRp809
S'n_contents'
p810
I10000
sS'name'
p811
S'STATIONARY'
p812
sS'n_warmup'
p813
I360000
sS'rate'
p814
I1000
sS'n_measured'
p815
I3600000
sS'alpha'
p816
F0.80000000000000004
ssS'cache_policy'
p817
g11
(tRp818
g811
S'LRU'
p819
ssS'desc'
p820
S'caching probability: 0.5'
p821
sS'strategy'
p822
g11
(tRp823
S'extra_quota'
p824
I0
sS'rsn_fresh'
p825
F5
sg811
S'LIRA_BC_HYBRID'
p826
sS'p'
F0.5
ssS'content_placement'
p827
g11
(tRp828
g811
S'LOWEST_DEGREE'
p829
ssS'joint_cache_rsn_placement'
p830
g11
(tRp831
S'network_cache'
p832
F0.94999999999999996
sS'network_rsn'
p833
F60.799999999999997
sg811
S'CACHE_ALL_RSN_ALL'
p834
sS'rsn_cache_ratio'
p835
I64
ssS'warmup_strategy'
p836
g11
(tRp837
S'p'
F0.10000000000000001
sg811
S'NDN'
p838
ssS'topology'
p839
g11
(tRp840
S'ext_delay'
p841
I5
sS'source_ratio'
p842
F0.10000000000000001
sg811
S'ROCKET_FUEL'
p843
sS'asn'
p844
I3257
ssg11
(tRp845
S'SAT_RATE'
p846
g11
(tRp847
S'MEAN_CACHE_HIT'
p848
F0.6096975
sS'MEAN_SERVER_HIT'
p849
F0.2264225
sS'MEAN'
p850
F0.83611999999999997
ssS'CACHE_HIT_RATIO'
p851
g11
(tRp852
S'MEAN_OFF_PATH'
p853
F0.56810011748181921
sS'MEAN_ON_PATH'
p854
F0.041597382518180792
sg850
F0.6096975
ssS'OVERHEAD'
p855
g11
(tRp856
g850
F5.0574330555555553
ssS'LATENCY'
p857
g11
(tRp858
g850
F38.467862764595189
sstp859
a(g11
(tRp860
S'workload'
p861
g11
(tRp862
S'n_contents'
p863
I10000
sS'name'
p864
S'STATIONARY'
p865
sS'n_warmup'
p866
I360000
sS'rate'
p867
I1000
sS'n_measured'
p868
I3600000
sS'alpha'
p869
F0.80000000000000004
ssS'cache_policy'
p870
g11
(tRp871
g864
S'LRU'
p872
ssS'desc'
p873
S'caching probability: 0.33'
p874
sS'strategy'
p875
g11
(tRp876
S'extra_quota'
p877
I3
sS'rsn_fresh'
p878
F5
sg864
S'LIRA_BC_HYBRID'
p879
sS'p'
F0.33000000000000002
ssS'content_placement'
p880
g11
(tRp881
g864
S'LOWEST_DEGREE'
p882
ssS'joint_cache_rsn_placement'
p883
g11
(tRp884
S'network_cache'
p885
F0.94999999999999996
sS'network_rsn'
p886
F60.799999999999997
sg864
S'CACHE_ALL_RSN_ALL'
p887
sS'rsn_cache_ratio'
p888
I64
ssS'warmup_strategy'
p889
g11
(tRp890
S'p'
F0.10000000000000001
sg864
S'NDN'
p891
ssS'topology'
p892
g11
(tRp893
S'ext_delay'
p894
I5
sS'source_ratio'
p895
F0.10000000000000001
sg864
S'ROCKET_FUEL'
p896
sS'asn'
p897
I3257
ssg11
(tRp898
S'SAT_RATE'
p899
g11
(tRp900
S'MEAN_CACHE_HIT'
p901
F0.59786861111111111
sS'MEAN_SERVER_HIT'
p902
F0.40148416666666664
sS'MEAN'
p903
F0.99935277777777776
ssS'CACHE_HIT_RATIO'
p904
g11
(tRp905
S'MEAN_OFF_PATH'
p906
F0.3111118897173123
sS'MEAN_ON_PATH'
p907
F0.28675672139379882
sg903
F0.59786861111111111
ssS'OVERHEAD'
p908
g11
(tRp909
g903
F7.138200277777778
ssS'LATENCY'
p910
g11
(tRp911
g903
F62.669818415264629
sstp912
a(g11
(tRp913
S'workload'
p914
g11
(tRp915
S'n_contents'
p916
I10000
sS'name'
p917
S'STATIONARY'
p918
sS'n_warmup'
p919
I360000
sS'rate'
p920
I1000
sS'n_measured'
p921
I3600000
sS'alpha'
p922
F0.80000000000000004
ssS'cache_policy'
p923
g11
(tRp924
g917
S'LRU'
p925
ssS'desc'
p926
S'caching probability: 0.66'
p927
sS'strategy'
p928
g11
(tRp929
S'extra_quota'
p930
I0
sS'rsn_fresh'
p931
F5
sg917
S'LIRA_BC_HYBRID'
p932
sS'p'
F0.66000000000000003
ssS'content_placement'
p933
g11
(tRp934
g917
S'LOWEST_DEGREE'
p935
ssS'joint_cache_rsn_placement'
p936
g11
(tRp937
S'network_cache'
p938
F0.94999999999999996
sS'network_rsn'
p939
F60.799999999999997
sg917
S'CACHE_ALL_RSN_ALL'
p940
sS'rsn_cache_ratio'
p941
I64
ssS'warmup_strategy'
p942
g11
(tRp943
S'p'
F0.10000000000000001
sg917
S'NDN'
p944
ssS'topology'
p945
g11
(tRp946
S'ext_delay'
p947
I5
sS'source_ratio'
p948
F0.10000000000000001
sg917
S'ROCKET_FUEL'
p949
sS'asn'
p950
I3257
ssg11
(tRp951
S'SAT_RATE'
p952
g11
(tRp953
S'MEAN_CACHE_HIT'
p954
F0.61046833333333328
sS'MEAN_SERVER_HIT'
p955
F0.22640111111111111
sS'MEAN'
p956
F0.83686944444444444
ssS'CACHE_HIT_RATIO'
p957
g11
(tRp958
S'MEAN_OFF_PATH'
p959
F0.57337087557664823
sS'MEAN_ON_PATH'
p960
F0.037097457756685048
sg956
F0.61046833333333328
ssS'OVERHEAD'
p961
g11
(tRp962
g956
F5.0608075000000001
ssS'LATENCY'
p963
g11
(tRp964
g956
F38.212796264559849
sstp965
a(g11
(tRp966
S'workload'
p967
g11
(tRp968
S'n_contents'
p969
I10000
sS'name'
p970
S'STATIONARY'
p971
sS'n_warmup'
p972
I360000
sS'rate'
p973
I1000
sS'n_measured'
p974
I3600000
sS'alpha'
p975
F0.80000000000000004
ssS'cache_policy'
p976
g11
(tRp977
g970
S'LRU'
p978
ssS'desc'
p979
S'caching probability: 0.33'
p980
sS'strategy'
p981
g11
(tRp982
S'extra_quota'
p983
I4
sS'rsn_fresh'
p984
F5
sg970
S'LIRA_BC_HYBRID'
p985
sS'p'
F0.33000000000000002
ssS'content_placement'
p986
g11
(tRp987
g970
S'LOWEST_DEGREE'
p988
ssS'joint_cache_rsn_placement'
p989
g11
(tRp990
S'network_cache'
p991
F0.94999999999999996
sS'network_rsn'
p992
F60.799999999999997
sg970
S'CACHE_ALL_RSN_ALL'
p993
sS'rsn_cache_ratio'
p994
I64
ssS'warmup_strategy'
p995
g11
(tRp996
S'p'
F0.10000000000000001
sg970
S'NDN'
p997
ssS'topology'
p998
g11
(tRp999
S'ext_delay'
p1000
I5
sS'source_ratio'
p1001
F0.10000000000000001
sg970
S'ROCKET_FUEL'
p1002
sS'asn'
p1003
I3257
ssg11
(tRp1004
S'SAT_RATE'
p1005
g11
(tRp1006
S'MEAN_CACHE_HIT'
p1007
F0.59658472222222225
sS'MEAN_SERVER_HIT'
p1008
F0.40315638888888888
sS'MEAN'
p1009
F0.99974111111111108
ssS'CACHE_HIT_RATIO'
p1010
g11
(tRp1011
S'MEAN_OFF_PATH'
p1012
F0.30734078743653331
sS'MEAN_ON_PATH'
p1013
F0.28924393478568894
sg1009
F0.59658472222222225
ssS'OVERHEAD'
p1014
g11
(tRp1015
g1009
F7.1526497222222218
ssS'LATENCY'
p1016
g11
(tRp1017
g1009
F62.931210085719634
sstp1018
a(g11
(tRp1019
S'workload'
p1020
g11
(tRp1021
S'n_contents'
p1022
I10000
sS'name'
p1023
S'STATIONARY'
p1024
sS'n_warmup'
p1025
I360000
sS'rate'
p1026
I1000
sS'n_measured'
p1027
I3600000
sS'alpha'
p1028
F0.80000000000000004
ssS'cache_policy'
p1029
g11
(tRp1030
g1023
S'LRU'
p1031
ssS'desc'
p1032
S'caching probability: 0.5'
p1033
sS'strategy'
p1034
g11
(tRp1035
S'extra_quota'
p1036
I1
sS'rsn_fresh'
p1037
F5
sg1023
S'LIRA_BC_HYBRID'
p1038
sS'p'
F0.5
ssS'content_placement'
p1039
g11
(tRp1040
g1023
S'LOWEST_DEGREE'
p1041
ssS'joint_cache_rsn_placement'
p1042
g11
(tRp1043
S'network_cache'
p1044
F0.94999999999999996
sS'network_rsn'
p1045
F60.799999999999997
sg1023
S'CACHE_ALL_RSN_ALL'
p1046
sS'rsn_cache_ratio'
p1047
I64
ssS'warmup_strategy'
p1048
g11
(tRp1049
S'p'
F0.10000000000000001
sg1023
S'NDN'
p1050
ssS'topology'
p1051
g11
(tRp1052
S'ext_delay'
p1053
I5
sS'source_ratio'
p1054
F0.10000000000000001
sg1023
S'ROCKET_FUEL'
p1055
sS'asn'
p1056
I3257
ssg11
(tRp1057
S'SAT_RATE'
p1058
g11
(tRp1059
S'MEAN_CACHE_HIT'
p1060
F0.61197111111111113
sS'MEAN_SERVER_HIT'
p1061
F0.35653194444444447
sS'MEAN'
p1062
F0.9685030555555556
ssS'CACHE_HIT_RATIO'
p1063
g11
(tRp1064
S'MEAN_OFF_PATH'
p1065
F0.40590203074737774
sS'MEAN_ON_PATH'
p1066
F0.20606908036373339
sg1062
F0.61197111111111113
ssS'OVERHEAD'
p1067
g11
(tRp1068
g1062
F6.792879444444444
ssS'LATENCY'
p1069
g11
(tRp1070
g1062
F57.239566285675302
sstp1071
a(g11
(tRp1072
S'workload'
p1073
g11
(tRp1074
S'n_contents'
p1075
I10000
sS'name'
p1076
S'STATIONARY'
p1077
sS'n_warmup'
p1078
I360000
sS'rate'
p1079
I1000
sS'n_measured'
p1080
I3600000
sS'alpha'
p1081
F0.80000000000000004
ssS'cache_policy'
p1082
g11
(tRp1083
g1076
S'LRU'
p1084
ssS'desc'
p1085
S'caching probability: 0.33'
p1086
sS'strategy'
p1087
g11
(tRp1088
S'extra_quota'
p1089
I5
sS'rsn_fresh'
p1090
F5
sg1076
S'LIRA_BC_HYBRID'
p1091
sS'p'
F0.33000000000000002
ssS'content_placement'
p1092
g11
(tRp1093
g1076
S'LOWEST_DEGREE'
p1094
ssS'joint_cache_rsn_placement'
p1095
g11
(tRp1096
S'network_cache'
p1097
F0.94999999999999996
sS'network_rsn'
p1098
F60.799999999999997
sg1076
S'CACHE_ALL_RSN_ALL'
p1099
sS'rsn_cache_ratio'
p1100
I64
ssS'warmup_strategy'
p1101
g11
(tRp1102
S'p'
F0.10000000000000001
sg1076
S'NDN'
p1103
ssS'topology'
p1104
g11
(tRp1105
S'ext_delay'
p1106
I5
sS'source_ratio'
p1107
F0.10000000000000001
sg1076
S'ROCKET_FUEL'
p1108
sS'asn'
p1109
I3257
ssg11
(tRp1110
S'SAT_RATE'
p1111
g11
(tRp1112
S'MEAN_CACHE_HIT'
p1113
F0.59633222222222226
sS'MEAN_SERVER_HIT'
p1114
F0.4035361111111111
sS'MEAN'
p1115
F0.99986833333333336
ssS'CACHE_HIT_RATIO'
p1116
g11
(tRp1117
S'MEAN_OFF_PATH'
p1118
F0.30660166654606652
sS'MEAN_ON_PATH'
p1119
F0.28973055567615574
sg1115
F0.59633222222222226
ssS'OVERHEAD'
p1120
g11
(tRp1121
g1115
F7.1614647222222221
ssS'LATENCY'
p1122
g11
(tRp1123
g1115
F62.907469316580702
sstp1124
a(g11
(tRp1125
S'workload'
p1126
g11
(tRp1127
S'n_contents'
p1128
I10000
sS'name'
p1129
S'STATIONARY'
p1130
sS'n_warmup'
p1131
I360000
sS'rate'
p1132
I1000
sS'n_measured'
p1133
I3600000
sS'alpha'
p1134
F0.80000000000000004
ssS'cache_policy'
p1135
g11
(tRp1136
g1129
S'LRU'
p1137
ssS'desc'
p1138
S'caching probability: 0.5'
p1139
sS'strategy'
p1140
g11
(tRp1141
S'extra_quota'
p1142
I3
sS'rsn_fresh'
p1143
F5
sg1129
S'LIRA_BC_HYBRID'
p1144
sS'p'
F0.5
ssS'content_placement'
p1145
g11
(tRp1146
g1129
S'LOWEST_DEGREE'
p1147
ssS'joint_cache_rsn_placement'
p1148
g11
(tRp1149
S'network_cache'
p1150
F0.94999999999999996
sS'network_rsn'
p1151
F60.799999999999997
sg1129
S'CACHE_ALL_RSN_ALL'
p1152
sS'rsn_cache_ratio'
p1153
I64
ssS'warmup_strategy'
p1154
g11
(tRp1155
S'p'
F0.10000000000000001
sg1129
S'NDN'
p1156
ssS'topology'
p1157
g11
(tRp1158
S'ext_delay'
p1159
I5
sS'source_ratio'
p1160
F0.10000000000000001
sg1129
S'ROCKET_FUEL'
p1161
sS'asn'
p1162
I3257
ssg11
(tRp1163
S'SAT_RATE'
p1164
g11
(tRp1165
S'MEAN_CACHE_HIT'
p1166
F0.59730416666666664
sS'MEAN_SERVER_HIT'
p1167
F0.40200222222222221
sS'MEAN'
p1168
F0.9993063888888889
ssS'CACHE_HIT_RATIO'
p1169
g11
(tRp1170
S'MEAN_OFF_PATH'
p1171
F0.3145624002287028
sS'MEAN_ON_PATH'
p1172
F0.28274176643796384
sg1168
F0.59730416666666664
ssS'OVERHEAD'
p1173
g11
(tRp1174
g1168
F7.1887461111111115
ssS'LATENCY'
p1175
g11
(tRp1176
g1168
F62.780609466812123
sstp1177
a(g11
(tRp1178
S'workload'
p1179
g11
(tRp1180
S'n_contents'
p1181
I10000
sS'name'
p1182
S'STATIONARY'
p1183
sS'n_warmup'
p1184
I360000
sS'rate'
p1185
I1000
sS'n_measured'
p1186
I3600000
sS'alpha'
p1187
F0.80000000000000004
ssS'cache_policy'
p1188
g11
(tRp1189
g1182
S'LRU'
p1190
ssS'desc'
p1191
S'caching probability: 0.5'
p1192
sS'strategy'
p1193
g11
(tRp1194
S'extra_quota'
p1195
I2
sS'rsn_fresh'
p1196
F5
sg1182
S'LIRA_BC_HYBRID'
p1197
sS'p'
F0.5
ssS'content_placement'
p1198
g11
(tRp1199
g1182
S'LOWEST_DEGREE'
p1200
ssS'joint_cache_rsn_placement'
p1201
g11
(tRp1202
S'network_cache'
p1203
F0.94999999999999996
sS'network_rsn'
p1204
F60.799999999999997
sg1182
S'CACHE_ALL_RSN_ALL'
p1205
sS'rsn_cache_ratio'
p1206
I64
ssS'warmup_strategy'
p1207
g11
(tRp1208
S'p'
F0.10000000000000001
sg1182
S'NDN'
p1209
ssS'topology'
p1210
g11
(tRp1211
S'ext_delay'
p1212
I5
sS'source_ratio'
p1213
F0.10000000000000001
sg1182
S'ROCKET_FUEL'
p1214
sS'asn'
p1215
I3257
ssg11
(tRp1216
S'SAT_RATE'
p1217
g11
(tRp1218
S'MEAN_CACHE_HIT'
p1219
F0.59664583333333332
sS'MEAN_SERVER_HIT'
p1220
F0.40011694444444446
sS'MEAN'
p1221
F0.99676277777777778
ssS'CACHE_HIT_RATIO'
p1222
g11
(tRp1223
S'MEAN_OFF_PATH'
p1224
F0.32282364558183552
sS'MEAN_ON_PATH'
p1225
F0.2738221877514978
sg1221
F0.59664583333333332
ssS'OVERHEAD'
p1226
g11
(tRp1227
g1221
F7.0733174999999999
ssS'LATENCY'
p1228
g11
(tRp1229
g1221
F62.523506376615131
sstp1230
a(g11
(tRp1231
S'workload'
p1232
g11
(tRp1233
S'n_contents'
p1234
I10000
sS'name'
p1235
S'STATIONARY'
p1236
sS'n_warmup'
p1237
I360000
sS'rate'
p1238
I1000
sS'n_measured'
p1239
I3600000
sS'alpha'
p1240
F0.80000000000000004
ssS'cache_policy'
p1241
g11
(tRp1242
g1235
S'LRU'
p1243
ssS'desc'
p1244
S'caching probability: 0.5'
p1245
sS'strategy'
p1246
g11
(tRp1247
S'extra_quota'
p1248
I4
sS'rsn_fresh'
p1249
F5
sg1235
S'LIRA_BC_HYBRID'
p1250
sS'p'
F0.5
ssS'content_placement'
p1251
g11
(tRp1252
g1235
S'LOWEST_DEGREE'
p1253
ssS'joint_cache_rsn_placement'
p1254
g11
(tRp1255
S'network_cache'
p1256
F0.94999999999999996
sS'network_rsn'
p1257
F60.799999999999997
sg1235
S'CACHE_ALL_RSN_ALL'
p1258
sS'rsn_cache_ratio'
p1259
I64
ssS'warmup_strategy'
p1260
g11
(tRp1261
S'p'
F0.10000000000000001
sg1235
S'NDN'
p1262
ssS'topology'
p1263
g11
(tRp1264
S'ext_delay'
p1265
I5
sS'source_ratio'
p1266
F0.10000000000000001
sg1235
S'ROCKET_FUEL'
p1267
sS'asn'
p1268
I3257
ssg11
(tRp1269
S'SAT_RATE'
p1270
g11
(tRp1271
S'MEAN_CACHE_HIT'
p1272
F0.59662111111111116
sS'MEAN_SERVER_HIT'
p1273
F0.40310972222222224
sS'MEAN'
p1274
F0.99973083333333335
ssS'CACHE_HIT_RATIO'
p1275
g11
(tRp1276
S'MEAN_OFF_PATH'
p1277
F0.31157293670795921
sS'MEAN_ON_PATH'
p1278
F0.28504817440315194
sg1274
F0.59662111111111116
ssS'OVERHEAD'
p1279
g11
(tRp1280
g1274
F7.2162855555555554
ssS'LATENCY'
p1281
g11
(tRp1282
g1274
F62.99380168538579
sstp1283
a(g11
(tRp1284
S'workload'
p1285
g11
(tRp1286
S'n_contents'
p1287
I10000
sS'name'
p1288
S'STATIONARY'
p1289
sS'n_warmup'
p1290
I360000
sS'rate'
p1291
I1000
sS'n_measured'
p1292
I3600000
sS'alpha'
p1293
F0.80000000000000004
ssS'cache_policy'
p1294
g11
(tRp1295
g1288
S'LRU'
p1296
ssS'desc'
p1297
S'caching probability: 0.66'
p1298
sS'strategy'
p1299
g11
(tRp1300
S'extra_quota'
p1301
I1
sS'rsn_fresh'
p1302
F5
sg1288
S'LIRA_BC_HYBRID'
p1303
sS'p'
F0.66000000000000003
ssS'content_placement'
p1304
g11
(tRp1305
g1288
S'LOWEST_DEGREE'
p1306
ssS'joint_cache_rsn_placement'
p1307
g11
(tRp1308
S'network_cache'
p1309
F0.94999999999999996
sS'network_rsn'
p1310
F60.799999999999997
sg1288
S'CACHE_ALL_RSN_ALL'
p1311
sS'rsn_cache_ratio'
p1312
I64
ssS'warmup_strategy'
p1313
g11
(tRp1314
S'p'
F0.10000000000000001
sg1288
S'NDN'
p1315
ssS'topology'
p1316
g11
(tRp1317
S'ext_delay'
p1318
I5
sS'source_ratio'
p1319
F0.10000000000000001
sg1288
S'ROCKET_FUEL'
p1320
sS'asn'
p1321
I3257
ssg11
(tRp1322
S'SAT_RATE'
p1323
g11
(tRp1324
S'MEAN_CACHE_HIT'
p1325
F0.61163250000000002
sS'MEAN_SERVER_HIT'
p1326
F0.35704750000000002
sS'MEAN'
p1327
F0.96867999999999999
ssS'CACHE_HIT_RATIO'
p1328
g11
(tRp1329
S'MEAN_OFF_PATH'
p1330
F0.40863117830448153
sS'MEAN_ON_PATH'
p1331
F0.20300132169551849
sg1327
F0.61163250000000002
ssS'OVERHEAD'
p1332
g11
(tRp1333
g1327
F6.8633447222222221
ssS'LATENCY'
p1334
g11
(tRp1335
g1327
F57.523228353149783
sstp1336
a(g11
(tRp1337
S'workload'
p1338
g11
(tRp1339
S'n_contents'
p1340
I10000
sS'name'
p1341
S'STATIONARY'
p1342
sS'n_warmup'
p1343
I360000
sS'rate'
p1344
I1000
sS'n_measured'
p1345
I3600000
sS'alpha'
p1346
F0.80000000000000004
ssS'cache_policy'
p1347
g11
(tRp1348
g1341
S'LRU'
p1349
ssS'desc'
p1350
S'caching probability: 0.5'
p1351
sS'strategy'
p1352
g11
(tRp1353
S'extra_quota'
p1354
I5
sS'rsn_fresh'
p1355
F5
sg1341
S'LIRA_BC_HYBRID'
p1356
sS'p'
F0.5
ssS'content_placement'
p1357
g11
(tRp1358
g1341
S'LOWEST_DEGREE'
p1359
ssS'joint_cache_rsn_placement'
p1360
g11
(tRp1361
S'network_cache'
p1362
F0.94999999999999996
sS'network_rsn'
p1363
F60.799999999999997
sg1341
S'CACHE_ALL_RSN_ALL'
p1364
sS'rsn_cache_ratio'
p1365
I64
ssS'warmup_strategy'
p1366
g11
(tRp1367
S'p'
F0.10000000000000001
sg1341
S'NDN'
p1368
ssS'topology'
p1369
g11
(tRp1370
S'ext_delay'
p1371
I5
sS'source_ratio'
p1372
F0.10000000000000001
sg1341
S'ROCKET_FUEL'
p1373
sS'asn'
p1374
I3257
ssg11
(tRp1375
S'SAT_RATE'
p1376
g11
(tRp1377
S'MEAN_CACHE_HIT'
p1378
F0.5966475
sS'MEAN_SERVER_HIT'
p1379
F0.40321249999999997
sS'MEAN'
p1380
F0.99985999999999997
ssS'CACHE_HIT_RATIO'
p1381
g11
(tRp1382
S'MEAN_OFF_PATH'
p1383
F0.31058352856587679
sS'MEAN_ON_PATH'
p1384
F0.28606397143412321
sg1380
F0.5966475
ssS'OVERHEAD'
p1385
g11
(tRp1386
g1380
F7.217756944444444
ssS'LATENCY'
p1387
g11
(tRp1388
g1380
F62.956653196831596
sstp1389
a(g11
(tRp1390
S'workload'
p1391
g11
(tRp1392
S'n_contents'
p1393
I10000
sS'name'
p1394
S'STATIONARY'
p1395
sS'n_warmup'
p1396
I360000
sS'rate'
p1397
I1000
sS'n_measured'
p1398
I3600000
sS'alpha'
p1399
F0.80000000000000004
ssS'cache_policy'
p1400
g11
(tRp1401
g1394
S'LRU'
p1402
ssS'desc'
p1403
S'caching probability: 0.75'
p1404
sS'strategy'
p1405
g11
(tRp1406
S'extra_quota'
p1407
I0
sS'rsn_fresh'
p1408
F5
sg1394
S'LIRA_BC_HYBRID'
p1409
sS'p'
F0.75
ssS'content_placement'
p1410
g11
(tRp1411
g1394
S'LOWEST_DEGREE'
p1412
ssS'joint_cache_rsn_placement'
p1413
g11
(tRp1414
S'network_cache'
p1415
F0.94999999999999996
sS'network_rsn'
p1416
F60.799999999999997
sg1394
S'CACHE_ALL_RSN_ALL'
p1417
sS'rsn_cache_ratio'
p1418
I64
ssS'warmup_strategy'
p1419
g11
(tRp1420
S'p'
F0.10000000000000001
sg1394
S'NDN'
p1421
ssS'topology'
p1422
g11
(tRp1423
S'ext_delay'
p1424
I5
sS'source_ratio'
p1425
F0.10000000000000001
sg1394
S'ROCKET_FUEL'
p1426
sS'asn'
p1427
I3257
ssg11
(tRp1428
S'SAT_RATE'
p1429
g11
(tRp1430
S'MEAN_CACHE_HIT'
p1431
F0.61114638888888884
sS'MEAN_SERVER_HIT'
p1432
F0.22676194444444445
sS'MEAN'
p1433
F0.83790833333333337
ssS'CACHE_HIT_RATIO'
p1434
g11
(tRp1435
S'MEAN_OFF_PATH'
p1436
F0.57807216424843955
sS'MEAN_ON_PATH'
p1437
F0.03307422464044929
sg1433
F0.61114638888888884
ssS'OVERHEAD'
p1438
g11
(tRp1439
g1433
F5.0973958333333336
ssS'LATENCY'
p1440
g11
(tRp1441
g1433
F38.610275872071753
sstp1442
a(g11
(tRp1443
S'workload'
p1444
g11
(tRp1445
S'n_contents'
p1446
I10000
sS'name'
p1447
S'STATIONARY'
p1448
sS'n_warmup'
p1449
I360000
sS'rate'
p1450
I1000
sS'n_measured'
p1451
I3600000
sS'alpha'
p1452
F0.80000000000000004
ssS'cache_policy'
p1453
g11
(tRp1454
g1447
S'LRU'
p1455
ssS'desc'
p1456
S'caching probability: 0.66'
p1457
sS'strategy'
p1458
g11
(tRp1459
S'extra_quota'
p1460
I2
sS'rsn_fresh'
p1461
F5
sg1447
S'LIRA_BC_HYBRID'
p1462
sS'p'
F0.66000000000000003
ssS'content_placement'
p1463
g11
(tRp1464
g1447
S'LOWEST_DEGREE'
p1465
ssS'joint_cache_rsn_placement'
p1466
g11
(tRp1467
S'network_cache'
p1468
F0.94999999999999996
sS'network_rsn'
p1469
F60.799999999999997
sg1447
S'CACHE_ALL_RSN_ALL'
p1470
sS'rsn_cache_ratio'
p1471
I64
ssS'warmup_strategy'
p1472
g11
(tRp1473
S'p'
F0.10000000000000001
sg1447
S'NDN'
p1474
ssS'topology'
p1475
g11
(tRp1476
S'ext_delay'
p1477
I5
sS'source_ratio'
p1478
F0.10000000000000001
sg1447
S'ROCKET_FUEL'
p1479
sS'asn'
p1480
I3257
ssg11
(tRp1481
S'SAT_RATE'
p1482
g11
(tRp1483
S'MEAN_CACHE_HIT'
p1484
F0.59595805555555559
sS'MEAN_SERVER_HIT'
p1485
F0.40087055555555556
sS'MEAN'
p1486
F0.9968286111111111
ssS'CACHE_HIT_RATIO'
p1487
g11
(tRp1488
S'MEAN_OFF_PATH'
p1489
F0.32484269790946985
sS'MEAN_ON_PATH'
p1490
F0.27111535764608574
sg1486
F0.59595805555555559
ssS'OVERHEAD'
p1491
g11
(tRp1492
g1486
F7.1122766666666664
ssS'LATENCY'
p1493
g11
(tRp1494
g1486
F62.662267141917745
sstp1495
a(g11
(tRp1496
S'workload'
p1497
g11
(tRp1498
S'n_contents'
p1499
I10000
sS'name'
p1500
S'STATIONARY'
p1501
sS'n_warmup'
p1502
I360000
sS'rate'
p1503
I1000
sS'n_measured'
p1504
I3600000
sS'alpha'
p1505
F0.80000000000000004
ssS'cache_policy'
p1506
g11
(tRp1507
g1500
S'LRU'
p1508
ssS'desc'
p1509
S'caching probability: 0.66'
p1510
sS'strategy'
p1511
g11
(tRp1512
S'extra_quota'
p1513
I3
sS'rsn_fresh'
p1514
F5
sg1500
S'LIRA_BC_HYBRID'
p1515
sS'p'
F0.66000000000000003
ssS'content_placement'
p1516
g11
(tRp1517
g1500
S'LOWEST_DEGREE'
p1518
ssS'joint_cache_rsn_placement'
p1519
g11
(tRp1520
S'network_cache'
p1521
F0.94999999999999996
sS'network_rsn'
p1522
F60.799999999999997
sg1500
S'CACHE_ALL_RSN_ALL'
p1523
sS'rsn_cache_ratio'
p1524
I64
ssS'warmup_strategy'
p1525
g11
(tRp1526
S'p'
F0.10000000000000001
sg1500
S'NDN'
p1527
ssS'topology'
p1528
g11
(tRp1529
S'ext_delay'
p1530
I5
sS'source_ratio'
p1531
F0.10000000000000001
sg1500
S'ROCKET_FUEL'
p1532
sS'asn'
p1533
I3257
ssg11
(tRp1534
S'SAT_RATE'
p1535
g11
(tRp1536
S'MEAN_CACHE_HIT'
p1537
F0.59623000000000004
sS'MEAN_SERVER_HIT'
p1538
F0.40311277777777776
sS'MEAN'
p1539
F0.9993427777777778
ssS'CACHE_HIT_RATIO'
p1540
g11
(tRp1541
S'MEAN_OFF_PATH'
p1542
F0.31622857733477172
sS'MEAN_ON_PATH'
p1543
F0.28000142266522832
sg1539
F0.59623000000000004
ssS'OVERHEAD'
p1544
g11
(tRp1545
g1539
F7.2249819444444441
ssS'LATENCY'
p1546
g11
(tRp1547
g1539
F62.908005953668258
sstp1548
a(g11
(tRp1549
S'workload'
p1550
g11
(tRp1551
S'n_contents'
p1552
I10000
sS'name'
p1553
S'STATIONARY'
p1554
sS'n_warmup'
p1555
I360000
sS'rate'
p1556
I1000
sS'n_measured'
p1557
I3600000
sS'alpha'
p1558
F0.80000000000000004
ssS'cache_policy'
p1559
g11
(tRp1560
g1553
S'LRU'
p1561
ssS'desc'
p1562
S'caching probability: 0.66'
p1563
sS'strategy'
p1564
g11
(tRp1565
S'extra_quota'
p1566
I4
sS'rsn_fresh'
p1567
F5
sg1553
S'LIRA_BC_HYBRID'
p1568
sS'p'
F0.66000000000000003
ssS'content_placement'
p1569
g11
(tRp1570
g1553
S'LOWEST_DEGREE'
p1571
ssS'joint_cache_rsn_placement'
p1572
g11
(tRp1573
S'network_cache'
p1574
F0.94999999999999996
sS'network_rsn'
p1575
F60.799999999999997
sg1553
S'CACHE_ALL_RSN_ALL'
p1576
sS'rsn_cache_ratio'
p1577
I64
ssS'warmup_strategy'
p1578
g11
(tRp1579
S'p'
F0.10000000000000001
sg1553
S'NDN'
p1580
ssS'topology'
p1581
g11
(tRp1582
S'ext_delay'
p1583
I5
sS'source_ratio'
p1584
F0.10000000000000001
sg1553
S'ROCKET_FUEL'
p1585
sS'asn'
p1586
I3257
ssg11
(tRp1587
S'SAT_RATE'
p1588
g11
(tRp1589
S'MEAN_CACHE_HIT'
p1590
F0.59546416666666668
sS'MEAN_SERVER_HIT'
p1591
F0.40425833333333333
sS'MEAN'
p1592
F0.99972249999999996
ssS'CACHE_HIT_RATIO'
p1593
g11
(tRp1594
S'MEAN_OFF_PATH'
p1595
F0.31312496203085932
sS'MEAN_ON_PATH'
p1596
F0.28233920463580736
sg1592
F0.59546416666666668
ssS'OVERHEAD'
p1597
g11
(tRp1598
g1592
F7.2613300000000001
ssS'LATENCY'
p1599
g11
(tRp1600
g1592
F63.061257336068216
sstp1601
a(g11
(tRp1602
S'workload'
p1603
g11
(tRp1604
S'n_contents'
p1605
I10000
sS'name'
p1606
S'STATIONARY'
p1607
sS'n_warmup'
p1608
I360000
sS'rate'
p1609
I1000
sS'n_measured'
p1610
I3600000
sS'alpha'
p1611
F0.80000000000000004
ssS'cache_policy'
p1612
g11
(tRp1613
g1606
S'LRU'
p1614
ssS'desc'
p1615
S'caching probability: 1.0'
p1616
sS'strategy'
p1617
g11
(tRp1618
S'extra_quota'
p1619
I0
sS'rsn_fresh'
p1620
F5
sg1606
S'LIRA_BC_HYBRID'
p1621
sS'p'
F1
ssS'content_placement'
p1622
g11
(tRp1623
g1606
S'LOWEST_DEGREE'
p1624
ssS'joint_cache_rsn_placement'
p1625
g11
(tRp1626
S'network_cache'
p1627
F0.94999999999999996
sS'network_rsn'
p1628
F60.799999999999997
sg1606
S'CACHE_ALL_RSN_ALL'
p1629
sS'rsn_cache_ratio'
p1630
I64
ssS'warmup_strategy'
p1631
g11
(tRp1632
S'p'
F0.10000000000000001
sg1606
S'NDN'
p1633
ssS'topology'
p1634
g11
(tRp1635
S'ext_delay'
p1636
I5
sS'source_ratio'
p1637
F0.10000000000000001
sg1606
S'ROCKET_FUEL'
p1638
sS'asn'
p1639
I3257
ssg11
(tRp1640
S'SAT_RATE'
p1641
g11
(tRp1642
S'MEAN_CACHE_HIT'
p1643
F0.60815555555555556
sS'MEAN_SERVER_HIT'
p1644
F0.22759611111111111
sS'MEAN'
p1645
F0.83575166666666667
ssS'CACHE_HIT_RATIO'
p1646
g11
(tRp1647
S'MEAN_OFF_PATH'
p1648
F0.579090541704121
sS'MEAN_ON_PATH'
p1649
F0.029065013851434562
sg1645
F0.60815555555555556
ssS'OVERHEAD'
p1650
g11
(tRp1651
g1645
F5.1281172222222224
ssS'LATENCY'
p1652
g11
(tRp1653
g1645
F38.795722309136167
sstp1654
a(g11
(tRp1655
S'workload'
p1656
g11
(tRp1657
S'n_contents'
p1658
I10000
sS'name'
p1659
S'STATIONARY'
p1660
sS'n_warmup'
p1661
I360000
sS'rate'
p1662
I1000
sS'n_measured'
p1663
I3600000
sS'alpha'
p1664
F0.80000000000000004
ssS'cache_policy'
p1665
g11
(tRp1666
g1659
S'LRU'
p1667
ssS'desc'
p1668
S'caching probability: 0.75'
p1669
sS'strategy'
p1670
g11
(tRp1671
S'extra_quota'
p1672
I1
sS'rsn_fresh'
p1673
F5
sg1659
S'LIRA_BC_HYBRID'
p1674
sS'p'
F0.75
ssS'content_placement'
p1675
g11
(tRp1676
g1659
S'LOWEST_DEGREE'
p1677
ssS'joint_cache_rsn_placement'
p1678
g11
(tRp1679
S'network_cache'
p1680
F0.94999999999999996
sS'network_rsn'
p1681
F60.799999999999997
sg1659
S'CACHE_ALL_RSN_ALL'
p1682
sS'rsn_cache_ratio'
p1683
I64
ssS'warmup_strategy'
p1684
g11
(tRp1685
S'p'
F0.10000000000000001
sg1659
S'NDN'
p1686
ssS'topology'
p1687
g11
(tRp1688
S'ext_delay'
p1689
I5
sS'source_ratio'
p1690
F0.10000000000000001
sg1659
S'ROCKET_FUEL'
p1691
sS'asn'
p1692
I3257
ssg11
(tRp1693
S'SAT_RATE'
p1694
g11
(tRp1695
S'MEAN_CACHE_HIT'
p1696
F0.61059416666666666
sS'MEAN_SERVER_HIT'
p1697
F0.35819222222222225
sS'MEAN'
p1698
F0.96878638888888891
ssS'CACHE_HIT_RATIO'
p1699
g11
(tRp1700
S'MEAN_OFF_PATH'
p1701
F0.40529535712982467
sS'MEAN_ON_PATH'
p1702
F0.20529880953684199
sg1698
F0.61059416666666666
ssS'OVERHEAD'
p1703
g11
(tRp1704
g1698
F6.815543611111111
ssS'LATENCY'
p1705
g11
(tRp1706
g1698
F57.568899380204321
sstp1707
a(g11
(tRp1708
S'workload'
p1709
g11
(tRp1710
S'n_contents'
p1711
I10000
sS'name'
p1712
S'STATIONARY'
p1713
sS'n_warmup'
p1714
I360000
sS'rate'
p1715
I1000
sS'n_measured'
p1716
I3600000
sS'alpha'
p1717
F0.80000000000000004
ssS'cache_policy'
p1718
g11
(tRp1719
g1712
S'LRU'
p1720
ssS'desc'
p1721
S'caching probability: 0.66'
p1722
sS'strategy'
p1723
g11
(tRp1724
S'extra_quota'
p1725
I5
sS'rsn_fresh'
p1726
F5
sg1712
S'LIRA_BC_HYBRID'
p1727
sS'p'
F0.66000000000000003
ssS'content_placement'
p1728
g11
(tRp1729
g1712
S'LOWEST_DEGREE'
p1730
ssS'joint_cache_rsn_placement'
p1731
g11
(tRp1732
S'network_cache'
p1733
F0.94999999999999996
sS'network_rsn'
p1734
F60.799999999999997
sg1712
S'CACHE_ALL_RSN_ALL'
p1735
sS'rsn_cache_ratio'
p1736
I64
ssS'warmup_strategy'
p1737
g11
(tRp1738
S'p'
F0.10000000000000001
sg1712
S'NDN'
p1739
ssS'topology'
p1740
g11
(tRp1741
S'ext_delay'
p1742
I5
sS'source_ratio'
p1743
F0.10000000000000001
sg1712
S'ROCKET_FUEL'
p1744
sS'asn'
p1745
I3257
ssg11
(tRp1746
S'SAT_RATE'
p1747
g11
(tRp1748
S'MEAN_CACHE_HIT'
p1749
F0.59453500000000004
sS'MEAN_SERVER_HIT'
p1750
F0.40531083333333334
sS'MEAN'
p1751
F0.99984583333333332
ssS'CACHE_HIT_RATIO'
p1752
g11
(tRp1753
S'MEAN_OFF_PATH'
p1754
F0.31176975305231314
sS'MEAN_ON_PATH'
p1755
F0.2827652469476869
sg1751
F0.59453500000000004
ssS'OVERHEAD'
p1756
g11
(tRp1757
g1751
F7.2646936111111113
ssS'LATENCY'
p1758
g11
(tRp1759
g1751
F63.243429161471759
sstp1760
a(g11
(tRp1761
S'workload'
p1762
g11
(tRp1763
S'n_contents'
p1764
I10000
sS'name'
p1765
S'STATIONARY'
p1766
sS'n_warmup'
p1767
I360000
sS'rate'
p1768
I1000
sS'n_measured'
p1769
I3600000
sS'alpha'
p1770
F0.80000000000000004
ssS'cache_policy'
p1771
g11
(tRp1772
g1765
S'LRU'
p1773
ssS'desc'
p1774
S'caching probability: 0.75'
p1775
sS'strategy'
p1776
g11
(tRp1777
S'extra_quota'
p1778
I2
sS'rsn_fresh'
p1779
F5
sg1765
S'LIRA_BC_HYBRID'
p1780
sS'p'
F0.75
ssS'content_placement'
p1781
g11
(tRp1782
g1765
S'LOWEST_DEGREE'
p1783
ssS'joint_cache_rsn_placement'
p1784
g11
(tRp1785
S'network_cache'
p1786
F0.94999999999999996
sS'network_rsn'
p1787
F60.799999999999997
sg1765
S'CACHE_ALL_RSN_ALL'
p1788
sS'rsn_cache_ratio'
p1789
I64
ssS'warmup_strategy'
p1790
g11
(tRp1791
S'p'
F0.10000000000000001
sg1765
S'NDN'
p1792
ssS'topology'
p1793
g11
(tRp1794
S'ext_delay'
p1795
I5
sS'source_ratio'
p1796
F0.10000000000000001
sg1765
S'ROCKET_FUEL'
p1797
sS'asn'
p1798
I3257
ssg11
(tRp1799
S'SAT_RATE'
p1800
g11
(tRp1801
S'MEAN_CACHE_HIT'
p1802
F0.59514083333333334
sS'MEAN_SERVER_HIT'
p1803
F0.40169194444444445
sS'MEAN'
p1804
F0.99683277777777779
ssS'CACHE_HIT_RATIO'
p1805
g11
(tRp1806
S'MEAN_OFF_PATH'
p1807
F0.32532406387858592
sS'MEAN_ON_PATH'
p1808
F0.26981676945474742
sg1804
F0.59514083333333334
ssS'OVERHEAD'
p1809
g11
(tRp1810
g1804
F7.1326111111111112
ssS'LATENCY'
p1811
g11
(tRp1812
g1804
F62.80169362971106
sstp1813
a(g11
(tRp1814
S'workload'
p1815
g11
(tRp1816
S'n_contents'
p1817
I10000
sS'name'
p1818
S'STATIONARY'
p1819
sS'n_warmup'
p1820
I360000
sS'rate'
p1821
I1000
sS'n_measured'
p1822
I3600000
sS'alpha'
p1823
F0.80000000000000004
ssS'cache_policy'
p1824
g11
(tRp1825
g1818
S'LRU'
p1826
ssS'desc'
p1827
S'caching probability: 0.75'
p1828
sS'strategy'
p1829
g11
(tRp1830
S'extra_quota'
p1831
I3
sS'rsn_fresh'
p1832
F5
sg1818
S'LIRA_BC_HYBRID'
p1833
sS'p'
F0.75
ssS'content_placement'
p1834
g11
(tRp1835
g1818
S'LOWEST_DEGREE'
p1836
ssS'joint_cache_rsn_placement'
p1837
g11
(tRp1838
S'network_cache'
p1839
F0.94999999999999996
sS'network_rsn'
p1840
F60.799999999999997
sg1818
S'CACHE_ALL_RSN_ALL'
p1841
sS'rsn_cache_ratio'
p1842
I64
ssS'warmup_strategy'
p1843
g11
(tRp1844
S'p'
F0.10000000000000001
sg1818
S'NDN'
p1845
ssS'topology'
p1846
g11
(tRp1847
S'ext_delay'
p1848
I5
sS'source_ratio'
p1849
F0.10000000000000001
sg1818
S'ROCKET_FUEL'
p1850
sS'asn'
p1851
I3257
ssg11
(tRp1852
S'SAT_RATE'
p1853
g11
(tRp1854
S'MEAN_CACHE_HIT'
p1855
F0.59570333333333336
sS'MEAN_SERVER_HIT'
p1856
F0.40360555555555555
sS'MEAN'
p1857
F0.99930888888888891
ssS'CACHE_HIT_RATIO'
p1858
g11
(tRp1859
S'MEAN_OFF_PATH'
p1860
F0.31691651927981207
sS'MEAN_ON_PATH'
p1861
F0.27878681405352129
sg1857
F0.59570333333333336
ssS'OVERHEAD'
p1862
g11
(tRp1863
g1857
F7.2467097222222225
ssS'LATENCY'
p1864
g11
(tRp1865
g1857
F63.063346188459406
sstp1866
a(g11
(tRp1867
S'workload'
p1868
g11
(tRp1869
S'n_contents'
p1870
I10000
sS'name'
p1871
S'STATIONARY'
p1872
sS'n_warmup'
p1873
I360000
sS'rate'
p1874
I1000
sS'n_measured'
p1875
I3600000
sS'alpha'
p1876
F0.80000000000000004
ssS'cache_policy'
p1877
g11
(tRp1878
g1871
S'LRU'
p1879
ssS'desc'
p1880
S'caching probability: 0.75'
p1881
sS'strategy'
p1882
g11
(tRp1883
S'extra_quota'
p1884
I4
sS'rsn_fresh'
p1885
F5
sg1871
S'LIRA_BC_HYBRID'
p1886
sS'p'
F0.75
ssS'content_placement'
p1887
g11
(tRp1888
g1871
S'LOWEST_DEGREE'
p1889
ssS'joint_cache_rsn_placement'
p1890
g11
(tRp1891
S'network_cache'
p1892
F0.94999999999999996
sS'network_rsn'
p1893
F60.799999999999997
sg1871
S'CACHE_ALL_RSN_ALL'
p1894
sS'rsn_cache_ratio'
p1895
I64
ssS'warmup_strategy'
p1896
g11
(tRp1897
S'p'
F0.10000000000000001
sg1871
S'NDN'
p1898
ssS'topology'
p1899
g11
(tRp1900
S'ext_delay'
p1901
I5
sS'source_ratio'
p1902
F0.10000000000000001
sg1871
S'ROCKET_FUEL'
p1903
sS'asn'
p1904
I3257
ssg11
(tRp1905
S'SAT_RATE'
p1906
g11
(tRp1907
S'MEAN_CACHE_HIT'
p1908
F0.5963869444444444
sS'MEAN_SERVER_HIT'
p1909
F0.40333083333333336
sS'MEAN'
p1910
F0.99971777777777782
ssS'CACHE_HIT_RATIO'
p1911
g11
(tRp1912
S'MEAN_OFF_PATH'
p1913
F0.31458258803278449
sS'MEAN_ON_PATH'
p1914
F0.28180435641165991
sg1910
F0.5963869444444444
ssS'OVERHEAD'
p1915
g11
(tRp1916
g1910
F7.2803338888888893
ssS'LATENCY'
p1917
g11
(tRp1918
g1910
F63.060273206071606
sstp1919
a(g11
(tRp1920
S'workload'
p1921
g11
(tRp1922
S'n_contents'
p1923
I10000
sS'name'
p1924
S'STATIONARY'
p1925
sS'n_warmup'
p1926
I360000
sS'rate'
p1927
I1000
sS'n_measured'
p1928
I3600000
sS'alpha'
p1929
F0.80000000000000004
ssS'cache_policy'
p1930
g11
(tRp1931
g1924
S'LRU'
p1932
ssS'desc'
p1933
S'caching probability: 1.0'
p1934
sS'strategy'
p1935
g11
(tRp1936
S'extra_quota'
p1937
I1
sS'rsn_fresh'
p1938
F5
sg1924
S'LIRA_BC_HYBRID'
p1939
sS'p'
F1
ssS'content_placement'
p1940
g11
(tRp1941
g1924
S'LOWEST_DEGREE'
p1942
ssS'joint_cache_rsn_placement'
p1943
g11
(tRp1944
S'network_cache'
p1945
F0.94999999999999996
sS'network_rsn'
p1946
F60.799999999999997
sg1924
S'CACHE_ALL_RSN_ALL'
p1947
sS'rsn_cache_ratio'
p1948
I64
ssS'warmup_strategy'
p1949
g11
(tRp1950
S'p'
F0.10000000000000001
sg1924
S'NDN'
p1951
ssS'topology'
p1952
g11
(tRp1953
S'ext_delay'
p1954
I5
sS'source_ratio'
p1955
F0.10000000000000001
sg1924
S'ROCKET_FUEL'
p1956
sS'asn'
p1957
I3257
ssg11
(tRp1958
S'SAT_RATE'
p1959
g11
(tRp1960
S'MEAN_CACHE_HIT'
p1961
F0.60825722222222223
sS'MEAN_SERVER_HIT'
p1962
F0.3605922222222222
sS'MEAN'
p1963
F0.96884944444444443
ssS'CACHE_HIT_RATIO'
p1964
g11
(tRp1965
S'MEAN_OFF_PATH'
p1966
F0.40652194095366323
sS'MEAN_ON_PATH'
p1967
F0.201735281268559
sg1963
F0.60825722222222223
ssS'OVERHEAD'
p1968
g11
(tRp1969
g1963
F6.9396138888888892
ssS'LATENCY'
p1970
g11
(tRp1971
g1963
F58.148282765251459
sstp1972
a(g11
(tRp1973
S'workload'
p1974
g11
(tRp1975
S'n_contents'
p1976
I10000
sS'name'
p1977
S'STATIONARY'
p1978
sS'n_warmup'
p1979
I360000
sS'rate'
p1980
I1000
sS'n_measured'
p1981
I3600000
sS'alpha'
p1982
F0.80000000000000004
ssS'cache_policy'
p1983
g11
(tRp1984
g1977
S'LRU'
p1985
ssS'desc'
p1986
S'caching probability: 0.75'
p1987
sS'strategy'
p1988
g11
(tRp1989
S'extra_quota'
p1990
I5
sS'rsn_fresh'
p1991
F5
sg1977
S'LIRA_BC_HYBRID'
p1992
sS'p'
F0.75
ssS'content_placement'
p1993
g11
(tRp1994
g1977
S'LOWEST_DEGREE'
p1995
ssS'joint_cache_rsn_placement'
p1996
g11
(tRp1997
S'network_cache'
p1998
F0.94999999999999996
sS'network_rsn'
p1999
F60.799999999999997
sg1977
S'CACHE_ALL_RSN_ALL'
p2000
sS'rsn_cache_ratio'
p2001
I64
ssS'warmup_strategy'
p2002
g11
(tRp2003
S'p'
F0.10000000000000001
sg1977
S'NDN'
p2004
ssS'topology'
p2005
g11
(tRp2006
S'ext_delay'
p2007
I5
sS'source_ratio'
p2008
F0.10000000000000001
sg1977
S'ROCKET_FUEL'
p2009
sS'asn'
p2010
I3257
ssg11
(tRp2011
S'SAT_RATE'
p2012
g11
(tRp2013
S'MEAN_CACHE_HIT'
p2014
F0.59549138888888886
sS'MEAN_SERVER_HIT'
p2015
F0.40437416666666665
sS'MEAN'
p2016
F0.99986555555555556
ssS'CACHE_HIT_RATIO'
p2017
g11
(tRp2018
S'MEAN_OFF_PATH'
p2019
F0.31308545656852399
sS'MEAN_ON_PATH'
p2020
F0.28240593232036487
sg2016
F0.59549138888888886
ssS'OVERHEAD'
p2021
g11
(tRp2022
g2016
F7.2817369444444449
ssS'LATENCY'
p2023
g11
(tRp2024
g2016
F63.126160478771645
sstp2025
a(g11
(tRp2026
S'workload'
p2027
g11
(tRp2028
S'n_contents'
p2029
I10000
sS'name'
p2030
S'STATIONARY'
p2031
sS'n_warmup'
p2032
I360000
sS'rate'
p2033
I1000
sS'n_measured'
p2034
I3600000
sS'alpha'
p2035
F0.80000000000000004
ssS'cache_policy'
p2036
g11
(tRp2037
g2030
S'LRU'
p2038
ssS'desc'
p2039
S'caching probability: 1.0'
p2040
sS'strategy'
p2041
g11
(tRp2042
S'extra_quota'
p2043
I2
sS'rsn_fresh'
p2044
F5
sg2030
S'LIRA_BC_HYBRID'
p2045
sS'p'
F1
ssS'content_placement'
p2046
g11
(tRp2047
g2030
S'LOWEST_DEGREE'
p2048
ssS'joint_cache_rsn_placement'
p2049
g11
(tRp2050
S'network_cache'
p2051
F0.94999999999999996
sS'network_rsn'
p2052
F60.799999999999997
sg2030
S'CACHE_ALL_RSN_ALL'
p2053
sS'rsn_cache_ratio'
p2054
I64
ssS'warmup_strategy'
p2055
g11
(tRp2056
S'p'
F0.10000000000000001
sg2030
S'NDN'
p2057
ssS'topology'
p2058
g11
(tRp2059
S'ext_delay'
p2060
I5
sS'source_ratio'
p2061
F0.10000000000000001
sg2030
S'ROCKET_FUEL'
p2062
sS'asn'
p2063
I3257
ssg11
(tRp2064
S'SAT_RATE'
p2065
g11
(tRp2066
S'MEAN_CACHE_HIT'
p2067
F0.59318472222222218
sS'MEAN_SERVER_HIT'
p2068
F0.40363583333333336
sS'MEAN'
p2069
F0.9968205555555556
ssS'CACHE_HIT_RATIO'
p2070
g11
(tRp2071
S'MEAN_OFF_PATH'
p2072
F0.32655082261871604
sS'MEAN_ON_PATH'
p2073
F0.26663389960350614
sg2069
F0.59318472222222218
ssS'OVERHEAD'
p2074
g11
(tRp2075
g2069
F7.1708647222222224
ssS'LATENCY'
p2076
g11
(tRp2077
g2069
F63.092616662590117
sstp2078
a(g11
(tRp2079
S'workload'
p2080
g11
(tRp2081
S'n_contents'
p2082
I10000
sS'name'
p2083
S'STATIONARY'
p2084
sS'n_warmup'
p2085
I360000
sS'rate'
p2086
I1000
sS'n_measured'
p2087
I3600000
sS'alpha'
p2088
F0.80000000000000004
ssS'cache_policy'
p2089
g11
(tRp2090
g2083
S'LRU'
p2091
ssS'desc'
p2092
S'caching probability: 0.1'
p2093
sS'strategy'
p2094
g11
(tRp2095
S'extra_quota'
p2096
I0
sS'rsn_fresh'
p2097
F5
sg2083
S'LIRA_DFIB'
p2098
sS'p'
F0.10000000000000001
ssS'content_placement'
p2099
g11
(tRp2100
g2083
S'LOWEST_DEGREE'
p2101
ssS'joint_cache_rsn_placement'
p2102
g11
(tRp2103
S'network_cache'
p2104
F0.94999999999999996
sS'network_rsn'
p2105
F60.799999999999997
sg2083
S'CACHE_ALL_RSN_ALL'
p2106
sS'rsn_cache_ratio'
p2107
I64
ssS'warmup_strategy'
p2108
g11
(tRp2109
S'p'
F0.10000000000000001
sg2083
S'NDN'
p2110
ssS'topology'
p2111
g11
(tRp2112
S'ext_delay'
p2113
I5
sS'source_ratio'
p2114
F0.10000000000000001
sg2083
S'ROCKET_FUEL'
p2115
sS'asn'
p2116
I3257
ssg11
(tRp2117
S'SAT_RATE'
p2118
g11
(tRp2119
S'MEAN_CACHE_HIT'
p2120
F0.47583833333333331
sS'MEAN_SERVER_HIT'
p2121
F0.23905805555555557
sS'MEAN'
p2122
F0.71489638888888885
ssS'CACHE_HIT_RATIO'
p2123
g11
(tRp2124
S'MEAN_OFF_PATH'
p2125
F0.36544365784231109
sS'MEAN_ON_PATH'
p2126
F0.11039467549102222
sg2122
F0.47583833333333331
ssS'OVERHEAD'
p2127
g11
(tRp2128
g2122
F3.3873344444444444
ssS'LATENCY'
p2129
g11
(tRp2130
g2122
F36.114687890316489
sstp2131
a(g11
(tRp2132
S'workload'
p2133
g11
(tRp2134
S'n_contents'
p2135
I10000
sS'name'
p2136
S'STATIONARY'
p2137
sS'n_warmup'
p2138
I360000
sS'rate'
p2139
I1000
sS'n_measured'
p2140
I3600000
sS'alpha'
p2141
F0.80000000000000004
ssS'cache_policy'
p2142
g11
(tRp2143
g2136
S'LRU'
p2144
ssS'desc'
p2145
S'caching probability: 0.25'
p2146
sS'strategy'
p2147
g11
(tRp2148
S'extra_quota'
p2149
I0
sS'rsn_fresh'
p2150
F5
sg2136
S'LIRA_DFIB'
p2151
sS'p'
F0.25
ssS'content_placement'
p2152
g11
(tRp2153
g2136
S'LOWEST_DEGREE'
p2154
ssS'joint_cache_rsn_placement'
p2155
g11
(tRp2156
S'network_cache'
p2157
F0.94999999999999996
sS'network_rsn'
p2158
F60.799999999999997
sg2136
S'CACHE_ALL_RSN_ALL'
p2159
sS'rsn_cache_ratio'
p2160
I64
ssS'warmup_strategy'
p2161
g11
(tRp2162
S'p'
F0.10000000000000001
sg2136
S'NDN'
p2163
ssS'topology'
p2164
g11
(tRp2165
S'ext_delay'
p2166
I5
sS'source_ratio'
p2167
F0.10000000000000001
sg2136
S'ROCKET_FUEL'
p2168
sS'asn'
p2169
I3257
ssg11
(tRp2170
S'SAT_RATE'
p2171
g11
(tRp2172
S'MEAN_CACHE_HIT'
p2173
F0.46891916666666666
sS'MEAN_SERVER_HIT'
p2174
F0.23775666666666667
sS'MEAN'
p2175
F0.70667583333333328
ssS'CACHE_HIT_RATIO'
p2176
g11
(tRp2177
S'MEAN_OFF_PATH'
p2178
F0.38169477490755194
sS'MEAN_ON_PATH'
p2179
F0.087224391759114728
sg2175
F0.46891916666666666
ssS'OVERHEAD'
p2180
g11
(tRp2181
g2175
F3.3811686111111112
ssS'LATENCY'
p2182
g11
(tRp2183
g2175
F35.958809522141593
sstp2184
a(g11
(tRp2185
S'workload'
p2186
g11
(tRp2187
S'n_contents'
p2188
I10000
sS'name'
p2189
S'STATIONARY'
p2190
sS'n_warmup'
p2191
I360000
sS'rate'
p2192
I1000
sS'n_measured'
p2193
I3600000
sS'alpha'
p2194
F0.80000000000000004
ssS'cache_policy'
p2195
g11
(tRp2196
g2189
S'LRU'
p2197
ssS'desc'
p2198
S'caching probability: 0.1'
p2199
sS'strategy'
p2200
g11
(tRp2201
S'extra_quota'
p2202
I1
sS'rsn_fresh'
p2203
F5
sg2189
S'LIRA_DFIB'
p2204
sS'p'
F0.10000000000000001
ssS'content_placement'
p2205
g11
(tRp2206
g2189
S'LOWEST_DEGREE'
p2207
ssS'joint_cache_rsn_placement'
p2208
g11
(tRp2209
S'network_cache'
p2210
F0.94999999999999996
sS'network_rsn'
p2211
F60.799999999999997
sg2189
S'CACHE_ALL_RSN_ALL'
p2212
sS'rsn_cache_ratio'
p2213
I64
ssS'warmup_strategy'
p2214
g11
(tRp2215
S'p'
F0.10000000000000001
sg2189
S'NDN'
p2216
ssS'topology'
p2217
g11
(tRp2218
S'ext_delay'
p2219
I5
sS'source_ratio'
p2220
F0.10000000000000001
sg2189
S'ROCKET_FUEL'
p2221
sS'asn'
p2222
I3257
ssg11
(tRp2223
S'SAT_RATE'
p2224
g11
(tRp2225
S'MEAN_CACHE_HIT'
p2226
F0.49023972222222223
sS'MEAN_SERVER_HIT'
p2227
F0.41341416666666669
sS'MEAN'
p2228
F0.90365388888888887
ssS'CACHE_HIT_RATIO'
p2229
g11
(tRp2230
S'MEAN_OFF_PATH'
p2231
F0.30387870222910895
sS'MEAN_ON_PATH'
p2232
F0.18636101999311327
sg2228
F0.49023972222222223
ssS'OVERHEAD'
p2233
g11
(tRp2234
g2228
F4.9328983333333332
ssS'LATENCY'
p2235
g11
(tRp2236
g2228
F60.733354278851458
sstp2237
a(g11
(tRp2238
S'workload'
p2239
g11
(tRp2240
S'n_contents'
p2241
I10000
sS'name'
p2242
S'STATIONARY'
p2243
sS'n_warmup'
p2244
I360000
sS'rate'
p2245
I1000
sS'n_measured'
p2246
I3600000
sS'alpha'
p2247
F0.80000000000000004
ssS'cache_policy'
p2248
g11
(tRp2249
g2242
S'LRU'
p2250
ssS'desc'
p2251
S'caching probability: 1.0'
p2252
sS'strategy'
p2253
g11
(tRp2254
S'extra_quota'
p2255
I3
sS'rsn_fresh'
p2256
F5
sg2242
S'LIRA_BC_HYBRID'
p2257
sS'p'
F1
ssS'content_placement'
p2258
g11
(tRp2259
g2242
S'LOWEST_DEGREE'
p2260
ssS'joint_cache_rsn_placement'
p2261
g11
(tRp2262
S'network_cache'
p2263
F0.94999999999999996
sS'network_rsn'
p2264
F60.799999999999997
sg2242
S'CACHE_ALL_RSN_ALL'
p2265
sS'rsn_cache_ratio'
p2266
I64
ssS'warmup_strategy'
p2267
g11
(tRp2268
S'p'
F0.10000000000000001
sg2242
S'NDN'
p2269
ssS'topology'
p2270
g11
(tRp2271
S'ext_delay'
p2272
I5
sS'source_ratio'
p2273
F0.10000000000000001
sg2242
S'ROCKET_FUEL'
p2274
sS'asn'
p2275
I3257
ssg11
(tRp2276
S'SAT_RATE'
p2277
g11
(tRp2278
S'MEAN_CACHE_HIT'
p2279
F0.59337083333333329
sS'MEAN_SERVER_HIT'
p2280
F0.40592861111111112
sS'MEAN'
p2281
F0.99929944444444441
ssS'CACHE_HIT_RATIO'
p2282
g11
(tRp2283
S'MEAN_OFF_PATH'
p2284
F0.31731044619161103
sS'MEAN_ON_PATH'
p2285
F0.27606038714172226
sg2281
F0.59337083333333329
ssS'OVERHEAD'
p2286
g11
(tRp2287
g2281
F7.2915133333333335
ssS'LATENCY'
p2288
g11
(tRp2289
g2281
F63.404280568748788
sstp2290
a(g11
(tRp2291
S'workload'
p2292
g11
(tRp2293
S'n_contents'
p2294
I10000
sS'name'
p2295
S'STATIONARY'
p2296
sS'n_warmup'
p2297
I360000
sS'rate'
p2298
I1000
sS'n_measured'
p2299
I3600000
sS'alpha'
p2300
F0.80000000000000004
ssS'cache_policy'
p2301
g11
(tRp2302
g2295
S'LRU'
p2303
ssS'desc'
p2304
S'caching probability: 1.0'
p2305
sS'strategy'
p2306
g11
(tRp2307
S'extra_quota'
p2308
I4
sS'rsn_fresh'
p2309
F5
sg2295
S'LIRA_BC_HYBRID'
p2310
sS'p'
F1
ssS'content_placement'
p2311
g11
(tRp2312
g2295
S'LOWEST_DEGREE'
p2313
ssS'joint_cache_rsn_placement'
p2314
g11
(tRp2315
S'network_cache'
p2316
F0.94999999999999996
sS'network_rsn'
p2317
F60.799999999999997
sg2295
S'CACHE_ALL_RSN_ALL'
p2318
sS'rsn_cache_ratio'
p2319
I64
ssS'warmup_strategy'
p2320
g11
(tRp2321
S'p'
F0.10000000000000001
sg2295
S'NDN'
p2322
ssS'topology'
p2323
g11
(tRp2324
S'ext_delay'
p2325
I5
sS'source_ratio'
p2326
F0.10000000000000001
sg2295
S'ROCKET_FUEL'
p2327
sS'asn'
p2328
I3257
ssg11
(tRp2329
S'SAT_RATE'
p2330
g11
(tRp2331
S'MEAN_CACHE_HIT'
p2332
F0.59244305555555554
sS'MEAN_SERVER_HIT'
p2333
F0.40726833333333334
sS'MEAN'
p2334
F0.99971138888888889
ssS'CACHE_HIT_RATIO'
p2335
g11
(tRp2336
S'MEAN_OFF_PATH'
p2337
F0.31393448359537673
sS'MEAN_ON_PATH'
p2338
F0.27850857196017881
sg2334
F0.59244305555555554
ssS'OVERHEAD'
p2339
g11
(tRp2340
g2334
F7.323698055555556
ssS'LATENCY'
p2341
g11
(tRp2342
g2334
F63.489864393708025
sstp2343
a(g11
(tRp2344
S'workload'
p2345
g11
(tRp2346
S'n_contents'
p2347
I10000
sS'name'
p2348
S'STATIONARY'
p2349
sS'n_warmup'
p2350
I360000
sS'rate'
p2351
I1000
sS'n_measured'
p2352
I3600000
sS'alpha'
p2353
F0.80000000000000004
ssS'cache_policy'
p2354
g11
(tRp2355
g2348
S'LRU'
p2356
ssS'desc'
p2357
S'caching probability: 0.1'
p2358
sS'strategy'
p2359
g11
(tRp2360
S'extra_quota'
p2361
I2
sS'rsn_fresh'
p2362
F5
sg2348
S'LIRA_DFIB'
p2363
sS'p'
F0.10000000000000001
ssS'content_placement'
p2364
g11
(tRp2365
g2348
S'LOWEST_DEGREE'
p2366
ssS'joint_cache_rsn_placement'
p2367
g11
(tRp2368
S'network_cache'
p2369
F0.94999999999999996
sS'network_rsn'
p2370
F60.799999999999997
sg2348
S'CACHE_ALL_RSN_ALL'
p2371
sS'rsn_cache_ratio'
p2372
I64
ssS'warmup_strategy'
p2373
g11
(tRp2374
S'p'
F0.10000000000000001
sg2348
S'NDN'
p2375
ssS'topology'
p2376
g11
(tRp2377
S'ext_delay'
p2378
I5
sS'source_ratio'
p2379
F0.10000000000000001
sg2348
S'ROCKET_FUEL'
p2380
sS'asn'
p2381
I3257
ssg11
(tRp2382
S'SAT_RATE'
p2383
g11
(tRp2384
S'MEAN_CACHE_HIT'
p2385
F0.51240694444444446
sS'MEAN_SERVER_HIT'
p2386
F0.46611444444444444
sS'MEAN'
p2387
F0.97852138888888884
ssS'CACHE_HIT_RATIO'
p2388
g11
(tRp2389
S'MEAN_OFF_PATH'
p2390
F0.28608263735625206
sS'MEAN_ON_PATH'
p2391
F0.2263243070881924
sg2387
F0.51240694444444446
ssS'OVERHEAD'
p2392
g11
(tRp2393
g2387
F5.7826588888888892
ssS'LATENCY'
p2394
g11
(tRp2395
g2387
F68.625981749139939
sstp2396
a(g11
(tRp2397
S'workload'
p2398
g11
(tRp2399
S'n_contents'
p2400
I10000
sS'name'
p2401
S'STATIONARY'
p2402
sS'n_warmup'
p2403
I360000
sS'rate'
p2404
I1000
sS'n_measured'
p2405
I3600000
sS'alpha'
p2406
F0.80000000000000004
ssS'cache_policy'
p2407
g11
(tRp2408
g2401
S'LRU'
p2409
ssS'desc'
p2410
S'caching probability: 1.0'
p2411
sS'strategy'
p2412
g11
(tRp2413
S'extra_quota'
p2414
I5
sS'rsn_fresh'
p2415
F5
sg2401
S'LIRA_BC_HYBRID'
p2416
sS'p'
F1
ssS'content_placement'
p2417
g11
(tRp2418
g2401
S'LOWEST_DEGREE'
p2419
ssS'joint_cache_rsn_placement'
p2420
g11
(tRp2421
S'network_cache'
p2422
F0.94999999999999996
sS'network_rsn'
p2423
F60.799999999999997
sg2401
S'CACHE_ALL_RSN_ALL'
p2424
sS'rsn_cache_ratio'
p2425
I64
ssS'warmup_strategy'
p2426
g11
(tRp2427
S'p'
F0.10000000000000001
sg2401
S'NDN'
p2428
ssS'topology'
p2429
g11
(tRp2430
S'ext_delay'
p2431
I5
sS'source_ratio'
p2432
F0.10000000000000001
sg2401
S'ROCKET_FUEL'
p2433
sS'asn'
p2434
I3257
ssg11
(tRp2435
S'SAT_RATE'
p2436
g11
(tRp2437
S'MEAN_CACHE_HIT'
p2438
F0.59359833333333334
sS'MEAN_SERVER_HIT'
p2439
F0.40625666666666665
sS'MEAN'
p2440
F0.99985500000000005
ssS'CACHE_HIT_RATIO'
p2441
g11
(tRp2442
S'MEAN_OFF_PATH'
p2443
F0.31440349130245754
sS'MEAN_ON_PATH'
p2444
F0.2791948420308758
sg2440
F0.59359833333333334
ssS'OVERHEAD'
p2445
g11
(tRp2446
g2440
F7.3490905555555557
ssS'LATENCY'
p2447
g11
(tRp2448
g2440
F63.426795276033893
sstp2449
a(g11
(tRp2450
S'workload'
p2451
g11
(tRp2452
S'n_contents'
p2453
I10000
sS'name'
p2454
S'STATIONARY'
p2455
sS'n_warmup'
p2456
I360000
sS'rate'
p2457
I1000
sS'n_measured'
p2458
I3600000
sS'alpha'
p2459
F0.80000000000000004
ssS'cache_policy'
p2460
g11
(tRp2461
g2454
S'LRU'
p2462
ssS'desc'
p2463
S'caching probability: 0.1'
p2464
sS'strategy'
p2465
g11
(tRp2466
S'extra_quota'
p2467
I4
sS'rsn_fresh'
p2468
F5
sg2454
S'LIRA_DFIB'
p2469
sS'p'
F0.10000000000000001
ssS'content_placement'
p2470
g11
(tRp2471
g2454
S'LOWEST_DEGREE'
p2472
ssS'joint_cache_rsn_placement'
p2473
g11
(tRp2474
S'network_cache'
p2475
F0.94999999999999996
sS'network_rsn'
p2476
F60.799999999999997
sg2454
S'CACHE_ALL_RSN_ALL'
p2477
sS'rsn_cache_ratio'
p2478
I64
ssS'warmup_strategy'
p2479
g11
(tRp2480
S'p'
F0.10000000000000001
sg2454
S'NDN'
p2481
ssS'topology'
p2482
g11
(tRp2483
S'ext_delay'
p2484
I5
sS'source_ratio'
p2485
F0.10000000000000001
sg2454
S'ROCKET_FUEL'
p2486
sS'asn'
p2487
I3257
ssg11
(tRp2488
S'SAT_RATE'
p2489
g11
(tRp2490
S'MEAN_CACHE_HIT'
p2491
F0.50699000000000005
sS'MEAN_SERVER_HIT'
p2492
F0.49190305555555558
sS'MEAN'
p2493
F0.99889305555555552
ssS'CACHE_HIT_RATIO'
p2494
g11
(tRp2495
S'MEAN_OFF_PATH'
p2496
F0.24869360719508393
sS'MEAN_ON_PATH'
p2497
F0.25829639280491612
sg2493
F0.50699000000000005
ssS'OVERHEAD'
p2498
g11
(tRp2499
g2493
F6.2511455555555555
ssS'LATENCY'
p2500
g11
(tRp2501
g2493
F72.38761893543402
sstp2502
a(g11
(tRp2503
S'workload'
p2504
g11
(tRp2505
S'n_contents'
p2506
I10000
sS'name'
p2507
S'STATIONARY'
p2508
sS'n_warmup'
p2509
I360000
sS'rate'
p2510
I1000
sS'n_measured'
p2511
I3600000
sS'alpha'
p2512
F0.80000000000000004
ssS'cache_policy'
p2513
g11
(tRp2514
g2507
S'LRU'
p2515
ssS'desc'
p2516
S'caching probability: 0.1'
p2517
sS'strategy'
p2518
g11
(tRp2519
S'extra_quota'
p2520
I3
sS'rsn_fresh'
p2521
F5
sg2507
S'LIRA_DFIB'
p2522
sS'p'
F0.10000000000000001
ssS'content_placement'
p2523
g11
(tRp2524
g2507
S'LOWEST_DEGREE'
p2525
ssS'joint_cache_rsn_placement'
p2526
g11
(tRp2527
S'network_cache'
p2528
F0.94999999999999996
sS'network_rsn'
p2529
F60.799999999999997
sg2507
S'CACHE_ALL_RSN_ALL'
p2530
sS'rsn_cache_ratio'
p2531
I64
ssS'warmup_strategy'
p2532
g11
(tRp2533
S'p'
F0.10000000000000001
sg2507
S'NDN'
p2534
ssS'topology'
p2535
g11
(tRp2536
S'ext_delay'
p2537
I5
sS'source_ratio'
p2538
F0.10000000000000001
sg2507
S'ROCKET_FUEL'
p2539
sS'asn'
p2540
I3257
ssg11
(tRp2541
S'SAT_RATE'
p2542
g11
(tRp2543
S'MEAN_CACHE_HIT'
p2544
F0.51321888888888889
sS'MEAN_SERVER_HIT'
p2545
F0.48173444444444447
sS'MEAN'
p2546
F0.99495333333333336
ssS'CACHE_HIT_RATIO'
p2547
g11
(tRp2548
S'MEAN_OFF_PATH'
p2549
F0.26507662809087318
sS'MEAN_ON_PATH'
p2550
F0.24814226079801571
sg2546
F0.51321888888888889
ssS'OVERHEAD'
p2551
g11
(tRp2552
g2546
F6.1233886111111113
ssS'LATENCY'
p2553
g11
(tRp2554
g2546
F70.99301448247266
sstp2555
a(g11
(tRp2556
S'workload'
p2557
g11
(tRp2558
S'n_contents'
p2559
I10000
sS'name'
p2560
S'STATIONARY'
p2561
sS'n_warmup'
p2562
I360000
sS'rate'
p2563
I1000
sS'n_measured'
p2564
I3600000
sS'alpha'
p2565
F0.80000000000000004
ssS'cache_policy'
p2566
g11
(tRp2567
g2560
S'LRU'
p2568
ssS'desc'
p2569
S'caching probability: 0.25'
p2570
sS'strategy'
p2571
g11
(tRp2572
S'extra_quota'
p2573
I1
sS'rsn_fresh'
p2574
F5
sg2560
S'LIRA_DFIB'
p2575
sS'p'
F0.25
ssS'content_placement'
p2576
g11
(tRp2577
g2560
S'LOWEST_DEGREE'
p2578
ssS'joint_cache_rsn_placement'
p2579
g11
(tRp2580
S'network_cache'
p2581
F0.94999999999999996
sS'network_rsn'
p2582
F60.799999999999997
sg2560
S'CACHE_ALL_RSN_ALL'
p2583
sS'rsn_cache_ratio'
p2584
I64
ssS'warmup_strategy'
p2585
g11
(tRp2586
S'p'
F0.10000000000000001
sg2560
S'NDN'
p2587
ssS'topology'
p2588
g11
(tRp2589
S'ext_delay'
p2590
I5
sS'source_ratio'
p2591
F0.10000000000000001
sg2560
S'ROCKET_FUEL'
p2592
sS'asn'
p2593
I3257
ssg11
(tRp2594
S'SAT_RATE'
p2595
g11
(tRp2596
S'MEAN_CACHE_HIT'
p2597
F0.48826333333333333
sS'MEAN_SERVER_HIT'
p2598
F0.40526444444444443
sS'MEAN'
p2599
F0.89352777777777781
ssS'CACHE_HIT_RATIO'
p2600
g11
(tRp2601
S'MEAN_OFF_PATH'
p2602
F0.32144969525023143
sS'MEAN_ON_PATH'
p2603
F0.1668136380831019
sg2599
F0.48826333333333333
ssS'OVERHEAD'
p2604
g11
(tRp2605
g2599
F4.9374302777777777
ssS'LATENCY'
p2606
g11
(tRp2607
g2599
F59.715176364191635
sstp2608
a(g11
(tRp2609
S'workload'
p2610
g11
(tRp2611
S'n_contents'
p2612
I10000
sS'name'
p2613
S'STATIONARY'
p2614
sS'n_warmup'
p2615
I360000
sS'rate'
p2616
I1000
sS'n_measured'
p2617
I3600000
sS'alpha'
p2618
F0.80000000000000004
ssS'cache_policy'
p2619
g11
(tRp2620
g2613
S'LRU'
p2621
ssS'desc'
p2622
S'caching probability: 0.1'
p2623
sS'strategy'
p2624
g11
(tRp2625
S'extra_quota'
p2626
I5
sS'rsn_fresh'
p2627
F5
sg2613
S'LIRA_DFIB'
p2628
sS'p'
F0.10000000000000001
ssS'content_placement'
p2629
g11
(tRp2630
g2613
S'LOWEST_DEGREE'
p2631
ssS'joint_cache_rsn_placement'
p2632
g11
(tRp2633
S'network_cache'
p2634
F0.94999999999999996
sS'network_rsn'
p2635
F60.799999999999997
sg2613
S'CACHE_ALL_RSN_ALL'
p2636
sS'rsn_cache_ratio'
p2637
I64
ssS'warmup_strategy'
p2638
g11
(tRp2639
S'p'
F0.10000000000000001
sg2613
S'NDN'
p2640
ssS'topology'
p2641
g11
(tRp2642
S'ext_delay'
p2643
I5
sS'source_ratio'
p2644
F0.10000000000000001
sg2613
S'ROCKET_FUEL'
p2645
sS'asn'
p2646
I3257
ssg11
(tRp2647
S'SAT_RATE'
p2648
g11
(tRp2649
S'MEAN_CACHE_HIT'
p2650
F0.50172777777777777
sS'MEAN_SERVER_HIT'
p2651
F0.49795805555555556
sS'MEAN'
p2652
F0.99968583333333338
ssS'CACHE_HIT_RATIO'
p2653
g11
(tRp2654
S'MEAN_OFF_PATH'
p2655
F0.2403811692425302
sS'MEAN_ON_PATH'
p2656
F0.2613466085352476
sg2652
F0.50172777777777777
ssS'OVERHEAD'
p2657
g11
(tRp2658
g2652
F6.2846569444444444
ssS'LATENCY'
p2659
g11
(tRp2660
g2652
F73.1315610832159
sstp2661
a(g11
(tRp2662
S'workload'
p2663
g11
(tRp2664
S'n_contents'
p2665
I10000
sS'name'
p2666
S'STATIONARY'
p2667
sS'n_warmup'
p2668
I360000
sS'rate'
p2669
I1000
sS'n_measured'
p2670
I3600000
sS'alpha'
p2671
F0.80000000000000004
ssS'cache_policy'
p2672
g11
(tRp2673
g2666
S'LRU'
p2674
ssS'desc'
p2675
S'caching probability: 0.25'
p2676
sS'strategy'
p2677
g11
(tRp2678
S'extra_quota'
p2679
I2
sS'rsn_fresh'
p2680
F5
sg2666
S'LIRA_DFIB'
p2681
sS'p'
F0.25
ssS'content_placement'
p2682
g11
(tRp2683
g2666
S'LOWEST_DEGREE'
p2684
ssS'joint_cache_rsn_placement'
p2685
g11
(tRp2686
S'network_cache'
p2687
F0.94999999999999996
sS'network_rsn'
p2688
F60.799999999999997
sg2666
S'CACHE_ALL_RSN_ALL'
p2689
sS'rsn_cache_ratio'
p2690
I64
ssS'warmup_strategy'
p2691
g11
(tRp2692
S'p'
F0.10000000000000001
sg2666
S'NDN'
p2693
ssS'topology'
p2694
g11
(tRp2695
S'ext_delay'
p2696
I5
sS'source_ratio'
p2697
F0.10000000000000001
sg2666
S'ROCKET_FUEL'
p2698
sS'asn'
p2699
I3257
ssg11
(tRp2700
S'SAT_RATE'
p2701
g11
(tRp2702
S'MEAN_CACHE_HIT'
p2703
F0.50522916666666662
sS'MEAN_SERVER_HIT'
p2704
F0.46658694444444443
sS'MEAN'
p2705
F0.9718161111111111
ssS'CACHE_HIT_RATIO'
p2706
g11
(tRp2707
S'MEAN_OFF_PATH'
p2708
F0.29516692118805327
sS'MEAN_ON_PATH'
p2709
F0.21006224547861335
sg2705
F0.50522916666666662
ssS'OVERHEAD'
p2710
g11
(tRp2711
g2705
F5.7993008333333336
ssS'LATENCY'
p2712
g11
(tRp2713
g2705
F68.831689993117507
sstp2714
a(g11
(tRp2715
S'workload'
p2716
g11
(tRp2717
S'n_contents'
p2718
I10000
sS'name'
p2719
S'STATIONARY'
p2720
sS'n_warmup'
p2721
I360000
sS'rate'
p2722
I1000
sS'n_measured'
p2723
I3600000
sS'alpha'
p2724
F0.80000000000000004
ssS'cache_policy'
p2725
g11
(tRp2726
g2719
S'LRU'
p2727
ssS'desc'
p2728
S'caching probability: 0.25'
p2729
sS'strategy'
p2730
g11
(tRp2731
S'extra_quota'
p2732
I3
sS'rsn_fresh'
p2733
F5
sg2719
S'LIRA_DFIB'
p2734
sS'p'
F0.25
ssS'content_placement'
p2735
g11
(tRp2736
g2719
S'LOWEST_DEGREE'
p2737
ssS'joint_cache_rsn_placement'
p2738
g11
(tRp2739
S'network_cache'
p2740
F0.94999999999999996
sS'network_rsn'
p2741
F60.799999999999997
sg2719
S'CACHE_ALL_RSN_ALL'
p2742
sS'rsn_cache_ratio'
p2743
I64
ssS'warmup_strategy'
p2744
g11
(tRp2745
S'p'
F0.10000000000000001
sg2719
S'NDN'
p2746
ssS'topology'
p2747
g11
(tRp2748
S'ext_delay'
p2749
I5
sS'source_ratio'
p2750
F0.10000000000000001
sg2719
S'ROCKET_FUEL'
p2751
sS'asn'
p2752
I3257
ssg11
(tRp2753
S'SAT_RATE'
p2754
g11
(tRp2755
S'MEAN_CACHE_HIT'
p2756
F0.50833555555555554
sS'MEAN_SERVER_HIT'
p2757
F0.48472166666666666
sS'MEAN'
p2758
F0.99305722222222226
ssS'CACHE_HIT_RATIO'
p2759
g11
(tRp2760
S'MEAN_OFF_PATH'
p2761
F0.27409205059370112
sS'MEAN_ON_PATH'
p2762
F0.23424350496185442
sg2758
F0.50833555555555554
ssS'OVERHEAD'
p2763
g11
(tRp2764
g2758
F6.1794633333333335
ssS'LATENCY'
p2765
g11
(tRp2766
g2758
F71.524945195191179
sstp2767
a(g11
(tRp2768
S'workload'
p2769
g11
(tRp2770
S'n_contents'
p2771
I10000
sS'name'
p2772
S'STATIONARY'
p2773
sS'n_warmup'
p2774
I360000
sS'rate'
p2775
I1000
sS'n_measured'
p2776
I3600000
sS'alpha'
p2777
F0.80000000000000004
ssS'cache_policy'
p2778
g11
(tRp2779
g2772
S'LRU'
p2780
ssS'desc'
p2781
S'caching probability: 0.25'
p2782
sS'strategy'
p2783
g11
(tRp2784
S'extra_quota'
p2785
I4
sS'rsn_fresh'
p2786
F5
sg2772
S'LIRA_DFIB'
p2787
sS'p'
F0.25
ssS'content_placement'
p2788
g11
(tRp2789
g2772
S'LOWEST_DEGREE'
p2790
ssS'joint_cache_rsn_placement'
p2791
g11
(tRp2792
S'network_cache'
p2793
F0.94999999999999996
sS'network_rsn'
p2794
F60.799999999999997
sg2772
S'CACHE_ALL_RSN_ALL'
p2795
sS'rsn_cache_ratio'
p2796
I64
ssS'warmup_strategy'
p2797
g11
(tRp2798
S'p'
F0.10000000000000001
sg2772
S'NDN'
p2799
ssS'topology'
p2800
g11
(tRp2801
S'ext_delay'
p2802
I5
sS'source_ratio'
p2803
F0.10000000000000001
sg2772
S'ROCKET_FUEL'
p2804
sS'asn'
p2805
I3257
ssg11
(tRp2806
S'SAT_RATE'
p2807
g11
(tRp2808
S'MEAN_CACHE_HIT'
p2809
F0.50224361111111115
sS'MEAN_SERVER_HIT'
p2810
F0.49620555555555557
sS'MEAN'
p2811
F0.99844916666666672
ssS'CACHE_HIT_RATIO'
p2812
g11
(tRp2813
S'MEAN_OFF_PATH'
p2814
F0.2563168876870156
sS'MEAN_ON_PATH'
p2815
F0.24592672342409555
sg2811
F0.50224361111111115
ssS'OVERHEAD'
p2816
g11
(tRp2817
g2811
F6.3327830555555558
ssS'LATENCY'
p2818
g11
(tRp2819
g2811
F73.044845660580634
sstp2820
a(g11
(tRp2821
S'workload'
p2822
g11
(tRp2823
S'n_contents'
p2824
I10000
sS'name'
p2825
S'STATIONARY'
p2826
sS'n_warmup'
p2827
I360000
sS'rate'
p2828
I1000
sS'n_measured'
p2829
I3600000
sS'alpha'
p2830
F0.80000000000000004
ssS'cache_policy'
p2831
g11
(tRp2832
g2825
S'LRU'
p2833
ssS'desc'
p2834
S'caching probability: 0.33'
p2835
sS'strategy'
p2836
g11
(tRp2837
S'extra_quota'
p2838
I0
sS'rsn_fresh'
p2839
F5
sg2825
S'LIRA_DFIB'
p2840
sS'p'
F0.33000000000000002
ssS'content_placement'
p2841
g11
(tRp2842
g2825
S'LOWEST_DEGREE'
p2843
ssS'joint_cache_rsn_placement'
p2844
g11
(tRp2845
S'network_cache'
p2846
F0.94999999999999996
sS'network_rsn'
p2847
F60.799999999999997
sg2825
S'CACHE_ALL_RSN_ALL'
p2848
sS'rsn_cache_ratio'
p2849
I64
ssS'warmup_strategy'
p2850
g11
(tRp2851
S'p'
F0.10000000000000001
sg2825
S'NDN'
p2852
ssS'topology'
p2853
g11
(tRp2854
S'ext_delay'
p2855
I5
sS'source_ratio'
p2856
F0.10000000000000001
sg2825
S'ROCKET_FUEL'
p2857
sS'asn'
p2858
I3257
ssg11
(tRp2859
S'SAT_RATE'
p2860
g11
(tRp2861
S'MEAN_CACHE_HIT'
p2862
F0.46393333333333331
sS'MEAN_SERVER_HIT'
p2863
F0.23776277777777777
sS'MEAN'
p2864
F0.70169611111111108
ssS'CACHE_HIT_RATIO'
p2865
g11
(tRp2866
S'MEAN_OFF_PATH'
p2867
F0.38191647770159393
sS'MEAN_ON_PATH'
p2868
F0.082016855631739383
sg2864
F0.46393333333333331
ssS'OVERHEAD'
p2869
g11
(tRp2870
g2864
F3.361537777777778
ssS'LATENCY'
p2871
g11
(tRp2872
g2864
F35.91085901309112
sstp2873
a(g11
(tRp2874
S'workload'
p2875
g11
(tRp2876
S'n_contents'
p2877
I10000
sS'name'
p2878
S'STATIONARY'
p2879
sS'n_warmup'
p2880
I360000
sS'rate'
p2881
I1000
sS'n_measured'
p2882
I3600000
sS'alpha'
p2883
F0.80000000000000004
ssS'cache_policy'
p2884
g11
(tRp2885
g2878
S'LRU'
p2886
ssS'desc'
p2887
S'caching probability: 0.5'
p2888
sS'strategy'
p2889
g11
(tRp2890
S'extra_quota'
p2891
I0
sS'rsn_fresh'
p2892
F5
sg2878
S'LIRA_DFIB'
p2893
sS'p'
F0.5
ssS'content_placement'
p2894
g11
(tRp2895
g2878
S'LOWEST_DEGREE'
p2896
ssS'joint_cache_rsn_placement'
p2897
g11
(tRp2898
S'network_cache'
p2899
F0.94999999999999996
sS'network_rsn'
p2900
F60.799999999999997
sg2878
S'CACHE_ALL_RSN_ALL'
p2901
sS'rsn_cache_ratio'
p2902
I64
ssS'warmup_strategy'
p2903
g11
(tRp2904
S'p'
F0.10000000000000001
sg2878
S'NDN'
p2905
ssS'topology'
p2906
g11
(tRp2907
S'ext_delay'
p2908
I5
sS'source_ratio'
p2909
F0.10000000000000001
sg2878
S'ROCKET_FUEL'
p2910
sS'asn'
p2911
I3257
ssg11
(tRp2912
S'SAT_RATE'
p2913
g11
(tRp2914
S'MEAN_CACHE_HIT'
p2915
F0.45505555555555555
sS'MEAN_SERVER_HIT'
p2916
F0.23935305555555556
sS'MEAN'
p2917
F0.69440861111111107
ssS'CACHE_HIT_RATIO'
p2918
g11
(tRp2919
S'MEAN_OFF_PATH'
p2920
F0.38314133518156784
sS'MEAN_ON_PATH'
p2921
F0.071914220373987703
sg2917
F0.45505555555555555
ssS'OVERHEAD'
p2922
g11
(tRp2923
g2917
F3.3429858333333335
ssS'LATENCY'
p2924
g11
(tRp2925
g2917
F36.108849867418925
sstp2926
a(g11
(tRp2927
S'workload'
p2928
g11
(tRp2929
S'n_contents'
p2930
I10000
sS'name'
p2931
S'STATIONARY'
p2932
sS'n_warmup'
p2933
I360000
sS'rate'
p2934
I1000
sS'n_measured'
p2935
I3600000
sS'alpha'
p2936
F0.80000000000000004
ssS'cache_policy'
p2937
g11
(tRp2938
g2931
S'LRU'
p2939
ssS'desc'
p2940
S'caching probability: 0.33'
p2941
sS'strategy'
p2942
g11
(tRp2943
S'extra_quota'
p2944
I1
sS'rsn_fresh'
p2945
F5
sg2931
S'LIRA_DFIB'
p2946
sS'p'
F0.33000000000000002
ssS'content_placement'
p2947
g11
(tRp2948
g2931
S'LOWEST_DEGREE'
p2949
ssS'joint_cache_rsn_placement'
p2950
g11
(tRp2951
S'network_cache'
p2952
F0.94999999999999996
sS'network_rsn'
p2953
F60.799999999999997
sg2931
S'CACHE_ALL_RSN_ALL'
p2954
sS'rsn_cache_ratio'
p2955
I64
ssS'warmup_strategy'
p2956
g11
(tRp2957
S'p'
F0.10000000000000001
sg2931
S'NDN'
p2958
ssS'topology'
p2959
g11
(tRp2960
S'ext_delay'
p2961
I5
sS'source_ratio'
p2962
F0.10000000000000001
sg2931
S'ROCKET_FUEL'
p2963
sS'asn'
p2964
I3257
ssg11
(tRp2965
S'SAT_RATE'
p2966
g11
(tRp2967
S'MEAN_CACHE_HIT'
p2968
F0.48720666666666668
sS'MEAN_SERVER_HIT'
p2969
F0.40340333333333334
sS'MEAN'
p2970
F0.89061000000000001
ssS'CACHE_HIT_RATIO'
p2971
g11
(tRp2972
S'MEAN_OFF_PATH'
p2973
F0.32449396880904302
sS'MEAN_ON_PATH'
p2974
F0.16271269785762366
sg2970
F0.48720666666666668
ssS'OVERHEAD'
p2975
g11
(tRp2976
g2970
F4.9346377777777777
ssS'LATENCY'
p2977
g11
(tRp2978
g2970
F59.471007190256103
sstp2979
a(g11
(tRp2980
S'workload'
p2981
g11
(tRp2982
S'n_contents'
p2983
I10000
sS'name'
p2984
S'STATIONARY'
p2985
sS'n_warmup'
p2986
I360000
sS'rate'
p2987
I1000
sS'n_measured'
p2988
I3600000
sS'alpha'
p2989
F0.80000000000000004
ssS'cache_policy'
p2990
g11
(tRp2991
g2984
S'LRU'
p2992
ssS'desc'
p2993
S'caching probability: 0.25'
p2994
sS'strategy'
p2995
g11
(tRp2996
S'extra_quota'
p2997
I5
sS'rsn_fresh'
p2998
F5
sg2984
S'LIRA_DFIB'
p2999
sS'p'
F0.25
ssS'content_placement'
p3000
g11
(tRp3001
g2984
S'LOWEST_DEGREE'
p3002
ssS'joint_cache_rsn_placement'
p3003
g11
(tRp3004
S'network_cache'
p3005
F0.94999999999999996
sS'network_rsn'
p3006
F60.799999999999997
sg2984
S'CACHE_ALL_RSN_ALL'
p3007
sS'rsn_cache_ratio'
p3008
I64
ssS'warmup_strategy'
p3009
g11
(tRp3010
S'p'
F0.10000000000000001
sg2984
S'NDN'
p3011
ssS'topology'
p3012
g11
(tRp3013
S'ext_delay'
p3014
I5
sS'source_ratio'
p3015
F0.10000000000000001
sg2984
S'ROCKET_FUEL'
p3016
sS'asn'
p3017
I3257
ssg11
(tRp3018
S'SAT_RATE'
p3019
g11
(tRp3020
S'MEAN_CACHE_HIT'
p3021
F0.50044861111111116
sS'MEAN_SERVER_HIT'
p3022
F0.49918138888888891
sS'MEAN'
p3023
F0.99963000000000002
ssS'CACHE_HIT_RATIO'
p3024
g11
(tRp3025
S'MEAN_OFF_PATH'
p3026
F0.24935345103009515
sS'MEAN_ON_PATH'
p3027
F0.25109516008101601
sg3023
F0.50044861111111116
ssS'OVERHEAD'
p3028
g11
(tRp3029
g3023
F6.3911997222222219
ssS'LATENCY'
p3030
g11
(tRp3031
g3023
F73.439317692950212
sstp3032
a(g11
(tRp3033
S'workload'
p3034
g11
(tRp3035
S'n_contents'
p3036
I10000
sS'name'
p3037
S'STATIONARY'
p3038
sS'n_warmup'
p3039
I360000
sS'rate'
p3040
I1000
sS'n_measured'
p3041
I3600000
sS'alpha'
p3042
F0.80000000000000004
ssS'cache_policy'
p3043
g11
(tRp3044
g3037
S'LRU'
p3045
ssS'desc'
p3046
S'caching probability: 0.33'
p3047
sS'strategy'
p3048
g11
(tRp3049
S'extra_quota'
p3050
I2
sS'rsn_fresh'
p3051
F5
sg3037
S'LIRA_DFIB'
p3052
sS'p'
F0.33000000000000002
ssS'content_placement'
p3053
g11
(tRp3054
g3037
S'LOWEST_DEGREE'
p3055
ssS'joint_cache_rsn_placement'
p3056
g11
(tRp3057
S'network_cache'
p3058
F0.94999999999999996
sS'network_rsn'
p3059
F60.799999999999997
sg3037
S'CACHE_ALL_RSN_ALL'
p3060
sS'rsn_cache_ratio'
p3061
I64
ssS'warmup_strategy'
p3062
g11
(tRp3063
S'p'
F0.10000000000000001
sg3037
S'NDN'
p3064
ssS'topology'
p3065
g11
(tRp3066
S'ext_delay'
p3067
I5
sS'source_ratio'
p3068
F0.10000000000000001
sg3037
S'ROCKET_FUEL'
p3069
sS'asn'
p3070
I3257
ssg11
(tRp3071
S'SAT_RATE'
p3072
g11
(tRp3073
S'MEAN_CACHE_HIT'
p3074
F0.5040688888888889
sS'MEAN_SERVER_HIT'
p3075
F0.46616083333333336
sS'MEAN'
p3076
F0.97022972222222226
ssS'CACHE_HIT_RATIO'
p3077
g11
(tRp3078
S'MEAN_OFF_PATH'
p3079
F0.29843423720773909
sS'MEAN_ON_PATH'
p3080
F0.2056346516811498
sg3076
F0.5040688888888889
ssS'OVERHEAD'
p3081
g11
(tRp3082
g3076
F5.8121475
ssS'LATENCY'
p3083
g11
(tRp3084
g3076
F68.76892043944936
sstp3085
a(g11
(tRp3086
S'workload'
p3087
g11
(tRp3088
S'n_contents'
p3089
I10000
sS'name'
p3090
S'STATIONARY'
p3091
sS'n_warmup'
p3092
I360000
sS'rate'
p3093
I1000
sS'n_measured'
p3094
I3600000
sS'alpha'
p3095
F0.80000000000000004
ssS'cache_policy'
p3096
g11
(tRp3097
g3090
S'LRU'
p3098
ssS'desc'
p3099
S'caching probability: 0.33'
p3100
sS'strategy'
p3101
g11
(tRp3102
S'extra_quota'
p3103
I3
sS'rsn_fresh'
p3104
F5
sg3090
S'LIRA_DFIB'
p3105
sS'p'
F0.33000000000000002
ssS'content_placement'
p3106
g11
(tRp3107
g3090
S'LOWEST_DEGREE'
p3108
ssS'joint_cache_rsn_placement'
p3109
g11
(tRp3110
S'network_cache'
p3111
F0.94999999999999996
sS'network_rsn'
p3112
F60.799999999999997
sg3090
S'CACHE_ALL_RSN_ALL'
p3113
sS'rsn_cache_ratio'
p3114
I64
ssS'warmup_strategy'
p3115
g11
(tRp3116
S'p'
F0.10000000000000001
sg3090
S'NDN'
p3117
ssS'topology'
p3118
g11
(tRp3119
S'ext_delay'
p3120
I5
sS'source_ratio'
p3121
F0.10000000000000001
sg3090
S'ROCKET_FUEL'
p3122
sS'asn'
p3123
I3257
ssg11
(tRp3124
S'SAT_RATE'
p3125
g11
(tRp3126
S'MEAN_CACHE_HIT'
p3127
F0.50575111111111115
sS'MEAN_SERVER_HIT'
p3128
F0.48666749999999998
sS'MEAN'
p3129
F0.99241861111111107
ssS'CACHE_HIT_RATIO'
p3130
g11
(tRp3131
S'MEAN_OFF_PATH'
p3132
F0.27525778060188844
sS'MEAN_ON_PATH'
p3133
F0.23049333050922272
sg3129
F0.50575111111111115
ssS'OVERHEAD'
p3134
g11
(tRp3135
g3129
F6.1958647222222218
ssS'LATENCY'
p3136
g11
(tRp3137
g3129
F71.750475475087853
sstp3138
a(g11
(tRp3139
S'workload'
p3140
g11
(tRp3141
S'n_contents'
p3142
I10000
sS'name'
p3143
S'STATIONARY'
p3144
sS'n_warmup'
p3145
I360000
sS'rate'
p3146
I1000
sS'n_measured'
p3147
I3600000
sS'alpha'
p3148
F0.80000000000000004
ssS'cache_policy'
p3149
g11
(tRp3150
g3143
S'LRU'
p3151
ssS'desc'
p3152
S'caching probability: 0.33'
p3153
sS'strategy'
p3154
g11
(tRp3155
S'extra_quota'
p3156
I4
sS'rsn_fresh'
p3157
F5
sg3143
S'LIRA_DFIB'
p3158
sS'p'
F0.33000000000000002
ssS'content_placement'
p3159
g11
(tRp3160
g3143
S'LOWEST_DEGREE'
p3161
ssS'joint_cache_rsn_placement'
p3162
g11
(tRp3163
S'network_cache'
p3164
F0.94999999999999996
sS'network_rsn'
p3165
F60.799999999999997
sg3143
S'CACHE_ALL_RSN_ALL'
p3166
sS'rsn_cache_ratio'
p3167
I64
ssS'warmup_strategy'
p3168
g11
(tRp3169
S'p'
F0.10000000000000001
sg3143
S'NDN'
p3170
ssS'topology'
p3171
g11
(tRp3172
S'ext_delay'
p3173
I5
sS'source_ratio'
p3174
F0.10000000000000001
sg3143
S'ROCKET_FUEL'
p3175
sS'asn'
p3176
I3257
ssg11
(tRp3177
S'SAT_RATE'
p3178
g11
(tRp3179
S'MEAN_CACHE_HIT'
p3180
F0.5017422222222222
sS'MEAN_SERVER_HIT'
p3181
F0.49658611111111112
sS'MEAN'
p3182
F0.99832833333333337
ssS'CACHE_HIT_RATIO'
p3183
g11
(tRp3184
S'MEAN_OFF_PATH'
p3185
F0.25853743622807168
sS'MEAN_ON_PATH'
p3186
F0.24320478599415052
sg3182
F0.5017422222222222
ssS'OVERHEAD'
p3187
g11
(tRp3188
g3182
F6.3598227777777776
ssS'LATENCY'
p3189
g11
(tRp3190
g3182
F73.107838955244418
sstp3191
a(g11
(tRp3192
S'workload'
p3193
g11
(tRp3194
S'n_contents'
p3195
I10000
sS'name'
p3196
S'STATIONARY'
p3197
sS'n_warmup'
p3198
I360000
sS'rate'
p3199
I1000
sS'n_measured'
p3200
I3600000
sS'alpha'
p3201
F0.80000000000000004
ssS'cache_policy'
p3202
g11
(tRp3203
g3196
S'LRU'
p3204
ssS'desc'
p3205
S'caching probability: 0.5'
p3206
sS'strategy'
p3207
g11
(tRp3208
S'extra_quota'
p3209
I1
sS'rsn_fresh'
p3210
F5
sg3196
S'LIRA_DFIB'
p3211
sS'p'
F0.5
ssS'content_placement'
p3212
g11
(tRp3213
g3196
S'LOWEST_DEGREE'
p3214
ssS'joint_cache_rsn_placement'
p3215
g11
(tRp3216
S'network_cache'
p3217
F0.94999999999999996
sS'network_rsn'
p3218
F60.799999999999997
sg3196
S'CACHE_ALL_RSN_ALL'
p3219
sS'rsn_cache_ratio'
p3220
I64
ssS'warmup_strategy'
p3221
g11
(tRp3222
S'p'
F0.10000000000000001
sg3196
S'NDN'
p3223
ssS'topology'
p3224
g11
(tRp3225
S'ext_delay'
p3226
I5
sS'source_ratio'
p3227
F0.10000000000000001
sg3196
S'ROCKET_FUEL'
p3228
sS'asn'
p3229
I3257
ssg11
(tRp3230
S'SAT_RATE'
p3231
g11
(tRp3232
S'MEAN_CACHE_HIT'
p3233
F0.47969499999999998
sS'MEAN_SERVER_HIT'
p3234
F0.40479833333333332
sS'MEAN'
p3235
F0.88449333333333335
ssS'CACHE_HIT_RATIO'
p3236
g11
(tRp3237
S'MEAN_OFF_PATH'
p3238
F0.32571419241127758
sS'MEAN_ON_PATH'
p3239
F0.1539808075887224
sg3235
F0.47969499999999998
ssS'OVERHEAD'
p3240
g11
(tRp3241
g3235
F4.9324336111111107
ssS'LATENCY'
p3242
g11
(tRp3243
g3235
F59.657082823985114
sstp3244
a(g11
(tRp3245
S'workload'
p3246
g11
(tRp3247
S'n_contents'
p3248
I10000
sS'name'
p3249
S'STATIONARY'
p3250
sS'n_warmup'
p3251
I360000
sS'rate'
p3252
I1000
sS'n_measured'
p3253
I3600000
sS'alpha'
p3254
F0.80000000000000004
ssS'cache_policy'
p3255
g11
(tRp3256
g3249
S'LRU'
p3257
ssS'desc'
p3258
S'caching probability: 0.33'
p3259
sS'strategy'
p3260
g11
(tRp3261
S'extra_quota'
p3262
I5
sS'rsn_fresh'
p3263
F5
sg3249
S'LIRA_DFIB'
p3264
sS'p'
F0.33000000000000002
ssS'content_placement'
p3265
g11
(tRp3266
g3249
S'LOWEST_DEGREE'
p3267
ssS'joint_cache_rsn_placement'
p3268
g11
(tRp3269
S'network_cache'
p3270
F0.94999999999999996
sS'network_rsn'
p3271
F60.799999999999997
sg3249
S'CACHE_ALL_RSN_ALL'
p3272
sS'rsn_cache_ratio'
p3273
I64
ssS'warmup_strategy'
p3274
g11
(tRp3275
S'p'
F0.10000000000000001
sg3249
S'NDN'
p3276
ssS'topology'
p3277
g11
(tRp3278
S'ext_delay'
p3279
I5
sS'source_ratio'
p3280
F0.10000000000000001
sg3249
S'ROCKET_FUEL'
p3281
sS'asn'
p3282
I3257
ssg11
(tRp3283
S'SAT_RATE'
p3284
g11
(tRp3285
S'MEAN_CACHE_HIT'
p3286
F0.49799805555555554
sS'MEAN_SERVER_HIT'
p3287
F0.50159777777777781
sS'MEAN'
p3288
F0.99959583333333335
ssS'CACHE_HIT_RATIO'
p3289
g11
(tRp3290
S'MEAN_OFF_PATH'
p3291
F0.25058165569114477
sS'MEAN_ON_PATH'
p3292
F0.24741639986441077
sg3288
F0.49799805555555554
ssS'OVERHEAD'
p3293
g11
(tRp3294
g3288
F6.4244313888888893
ssS'LATENCY'
p3295
g11
(tRp3296
g3288
F73.758669146210636
sstp3297
a(g11
(tRp3298
S'workload'
p3299
g11
(tRp3300
S'n_contents'
p3301
I10000
sS'name'
p3302
S'STATIONARY'
p3303
sS'n_warmup'
p3304
I360000
sS'rate'
p3305
I1000
sS'n_measured'
p3306
I3600000
sS'alpha'
p3307
F0.80000000000000004
ssS'cache_policy'
p3308
g11
(tRp3309
g3302
S'LRU'
p3310
ssS'desc'
p3311
S'caching probability: 0.5'
p3312
sS'strategy'
p3313
g11
(tRp3314
S'extra_quota'
p3315
I2
sS'rsn_fresh'
p3316
F5
sg3302
S'LIRA_DFIB'
p3317
sS'p'
F0.5
ssS'content_placement'
p3318
g11
(tRp3319
g3302
S'LOWEST_DEGREE'
p3320
ssS'joint_cache_rsn_placement'
p3321
g11
(tRp3322
S'network_cache'
p3323
F0.94999999999999996
sS'network_rsn'
p3324
F60.799999999999997
sg3302
S'CACHE_ALL_RSN_ALL'
p3325
sS'rsn_cache_ratio'
p3326
I64
ssS'warmup_strategy'
p3327
g11
(tRp3328
S'p'
F0.10000000000000001
sg3302
S'NDN'
p3329
ssS'topology'
p3330
g11
(tRp3331
S'ext_delay'
p3332
I5
sS'source_ratio'
p3333
F0.10000000000000001
sg3302
S'ROCKET_FUEL'
p3334
sS'asn'
p3335
I3257
ssg11
(tRp3336
S'SAT_RATE'
p3337
g11
(tRp3338
S'MEAN_CACHE_HIT'
p3339
F0.49865694444444447
sS'MEAN_SERVER_HIT'
p3340
F0.46858666666666665
sS'MEAN'
p3341
F0.96724361111111112
ssS'CACHE_HIT_RATIO'
p3342
g11
(tRp3343
S'MEAN_OFF_PATH'
p3344
F0.29978792368378282
sS'MEAN_ON_PATH'
p3345
F0.19886902076066165
sg3341
F0.49865694444444447
ssS'OVERHEAD'
p3346
g11
(tRp3347
g3341
F5.8289574999999996
ssS'LATENCY'
p3348
g11
(tRp3349
g3341
F69.037625742260005
sstp3350
a(g11
(tRp3351
S'workload'
p3352
g11
(tRp3353
S'n_contents'
p3354
I10000
sS'name'
p3355
S'STATIONARY'
p3356
sS'n_warmup'
p3357
I360000
sS'rate'
p3358
I1000
sS'n_measured'
p3359
I3600000
sS'alpha'
p3360
F0.80000000000000004
ssS'cache_policy'
p3361
g11
(tRp3362
g3355
S'LRU'
p3363
ssS'desc'
p3364
S'caching probability: 0.5'
p3365
sS'strategy'
p3366
g11
(tRp3367
S'extra_quota'
p3368
I3
sS'rsn_fresh'
p3369
F5
sg3355
S'LIRA_DFIB'
p3370
sS'p'
F0.5
ssS'content_placement'
p3371
g11
(tRp3372
g3355
S'LOWEST_DEGREE'
p3373
ssS'joint_cache_rsn_placement'
p3374
g11
(tRp3375
S'network_cache'
p3376
F0.94999999999999996
sS'network_rsn'
p3377
F60.799999999999997
sg3355
S'CACHE_ALL_RSN_ALL'
p3378
sS'rsn_cache_ratio'
p3379
I64
ssS'warmup_strategy'
p3380
g11
(tRp3381
S'p'
F0.10000000000000001
sg3355
S'NDN'
p3382
ssS'topology'
p3383
g11
(tRp3384
S'ext_delay'
p3385
I5
sS'source_ratio'
p3386
F0.10000000000000001
sg3355
S'ROCKET_FUEL'
p3387
sS'asn'
p3388
I3257
ssg11
(tRp3389
S'SAT_RATE'
p3390
g11
(tRp3391
S'MEAN_CACHE_HIT'
p3392
F0.49930722222222224
sS'MEAN_SERVER_HIT'
p3393
F0.49199944444444443
sS'MEAN'
p3394
F0.99130666666666667
ssS'CACHE_HIT_RATIO'
p3395
g11
(tRp3396
S'MEAN_OFF_PATH'
p3397
F0.27546314306473407
sS'MEAN_ON_PATH'
p3398
F0.22384407915748816
sg3394
F0.49930722222222224
ssS'OVERHEAD'
p3399
g11
(tRp3400
g3394
F6.2249108333333334
ssS'LATENCY'
p3401
g11
(tRp3402
g3394
F72.450052246365445
sstp3403
a(g11
(tRp3404
S'workload'
p3405
g11
(tRp3406
S'n_contents'
p3407
I10000
sS'name'
p3408
S'STATIONARY'
p3409
sS'n_warmup'
p3410
I360000
sS'rate'
p3411
I1000
sS'n_measured'
p3412
I3600000
sS'alpha'
p3413
F0.80000000000000004
ssS'cache_policy'
p3414
g11
(tRp3415
g3408
S'LRU'
p3416
ssS'desc'
p3417
S'caching probability: 0.66'
p3418
sS'strategy'
p3419
g11
(tRp3420
S'extra_quota'
p3421
I0
sS'rsn_fresh'
p3422
F5
sg3408
S'LIRA_DFIB'
p3423
sS'p'
F0.66000000000000003
ssS'content_placement'
p3424
g11
(tRp3425
g3408
S'LOWEST_DEGREE'
p3426
ssS'joint_cache_rsn_placement'
p3427
g11
(tRp3428
S'network_cache'
p3429
F0.94999999999999996
sS'network_rsn'
p3430
F60.799999999999997
sg3408
S'CACHE_ALL_RSN_ALL'
p3431
sS'rsn_cache_ratio'
p3432
I64
ssS'warmup_strategy'
p3433
g11
(tRp3434
S'p'
F0.10000000000000001
sg3408
S'NDN'
p3435
ssS'topology'
p3436
g11
(tRp3437
S'ext_delay'
p3438
I5
sS'source_ratio'
p3439
F0.10000000000000001
sg3408
S'ROCKET_FUEL'
p3440
sS'asn'
p3441
I3257
ssg11
(tRp3442
S'SAT_RATE'
p3443
g11
(tRp3444
S'MEAN_CACHE_HIT'
p3445
F0.44845333333333331
sS'MEAN_SERVER_HIT'
p3446
F0.24052833333333334
sS'MEAN'
p3447
F0.68898166666666671
ssS'CACHE_HIT_RATIO'
p3448
g11
(tRp3449
S'MEAN_OFF_PATH'
p3450
F0.38283820006912772
sS'MEAN_ON_PATH'
p3451
F0.065615133264205594
sg3447
F0.44845333333333331
ssS'OVERHEAD'
p3452
g11
(tRp3453
g3447
F3.3263566666666669
ssS'LATENCY'
p3454
g11
(tRp3455
g3447
F36.174705811576047
sstp3456
a(g11
(tRp3457
S'workload'
p3458
g11
(tRp3459
S'n_contents'
p3460
I10000
sS'name'
p3461
S'STATIONARY'
p3462
sS'n_warmup'
p3463
I360000
sS'rate'
p3464
I1000
sS'n_measured'
p3465
I3600000
sS'alpha'
p3466
F0.80000000000000004
ssS'cache_policy'
p3467
g11
(tRp3468
g3461
S'LRU'
p3469
ssS'desc'
p3470
S'caching probability: 0.5'
p3471
sS'strategy'
p3472
g11
(tRp3473
S'extra_quota'
p3474
I4
sS'rsn_fresh'
p3475
F5
sg3461
S'LIRA_DFIB'
p3476
sS'p'
F0.5
ssS'content_placement'
p3477
g11
(tRp3478
g3461
S'LOWEST_DEGREE'
p3479
ssS'joint_cache_rsn_placement'
p3480
g11
(tRp3481
S'network_cache'
p3482
F0.94999999999999996
sS'network_rsn'
p3483
F60.799999999999997
sg3461
S'CACHE_ALL_RSN_ALL'
p3484
sS'rsn_cache_ratio'
p3485
I64
ssS'warmup_strategy'
p3486
g11
(tRp3487
S'p'
F0.10000000000000001
sg3461
S'NDN'
p3488
ssS'topology'
p3489
g11
(tRp3490
S'ext_delay'
p3491
I5
sS'source_ratio'
p3492
F0.10000000000000001
sg3461
S'ROCKET_FUEL'
p3493
sS'asn'
p3494
I3257
ssg11
(tRp3495
S'SAT_RATE'
p3496
g11
(tRp3497
S'MEAN_CACHE_HIT'
p3498
F0.49729861111111112
sS'MEAN_SERVER_HIT'
p3499
F0.50082499999999996
sS'MEAN'
p3500
F0.99812361111111114
ssS'CACHE_HIT_RATIO'
p3501
g11
(tRp3502
S'MEAN_OFF_PATH'
p3503
F0.26021183026263672
sS'MEAN_ON_PATH'
p3504
F0.2370867808484744
sg3500
F0.49729861111111112
ssS'OVERHEAD'
p3505
g11
(tRp3506
g3500
F6.4139677777777777
ssS'LATENCY'
p3507
g11
(tRp3508
g3500
F73.758519754638471
sstp3509
a(g11
(tRp3510
S'workload'
p3511
g11
(tRp3512
S'n_contents'
p3513
I10000
sS'name'
p3514
S'STATIONARY'
p3515
sS'n_warmup'
p3516
I360000
sS'rate'
p3517
I1000
sS'n_measured'
p3518
I3600000
sS'alpha'
p3519
F0.80000000000000004
ssS'cache_policy'
p3520
g11
(tRp3521
g3514
S'LRU'
p3522
ssS'desc'
p3523
S'caching probability: 0.5'
p3524
sS'strategy'
p3525
g11
(tRp3526
S'extra_quota'
p3527
I5
sS'rsn_fresh'
p3528
F5
sg3514
S'LIRA_DFIB'
p3529
sS'p'
F0.5
ssS'content_placement'
p3530
g11
(tRp3531
g3514
S'LOWEST_DEGREE'
p3532
ssS'joint_cache_rsn_placement'
p3533
g11
(tRp3534
S'network_cache'
p3535
F0.94999999999999996
sS'network_rsn'
p3536
F60.799999999999997
sg3514
S'CACHE_ALL_RSN_ALL'
p3537
sS'rsn_cache_ratio'
p3538
I64
ssS'warmup_strategy'
p3539
g11
(tRp3540
S'p'
F0.10000000000000001
sg3514
S'NDN'
p3541
ssS'topology'
p3542
g11
(tRp3543
S'ext_delay'
p3544
I5
sS'source_ratio'
p3545
F0.10000000000000001
sg3514
S'ROCKET_FUEL'
p3546
sS'asn'
p3547
I3257
ssg11
(tRp3548
S'SAT_RATE'
p3549
g11
(tRp3550
S'MEAN_CACHE_HIT'
p3551
F0.49086000000000002
sS'MEAN_SERVER_HIT'
p3552
F0.50867499999999999
sS'MEAN'
p3553
F0.99953499999999995
ssS'CACHE_HIT_RATIO'
p3554
g11
(tRp3555
S'MEAN_OFF_PATH'
p3556
F0.24908879535263306
sS'MEAN_ON_PATH'
p3557
F0.24177120464736696
sg3553
F0.49086000000000002
ssS'OVERHEAD'
p3558
g11
(tRp3559
g3553
F6.4646138888888887
ssS'LATENCY'
p3560
g11
(tRp3561
g3553
F74.661396976935876
sstp3562
a(g11
(tRp3563
S'workload'
p3564
g11
(tRp3565
S'n_contents'
p3566
I10000
sS'name'
p3567
S'STATIONARY'
p3568
sS'n_warmup'
p3569
I360000
sS'rate'
p3570
I1000
sS'n_measured'
p3571
I3600000
sS'alpha'
p3572
F0.80000000000000004
ssS'cache_policy'
p3573
g11
(tRp3574
g3567
S'LRU'
p3575
ssS'desc'
p3576
S'caching probability: 0.75'
p3577
sS'strategy'
p3578
g11
(tRp3579
S'extra_quota'
p3580
I0
sS'rsn_fresh'
p3581
F5
sg3567
S'LIRA_DFIB'
p3582
sS'p'
F0.75
ssS'content_placement'
p3583
g11
(tRp3584
g3567
S'LOWEST_DEGREE'
p3585
ssS'joint_cache_rsn_placement'
p3586
g11
(tRp3587
S'network_cache'
p3588
F0.94999999999999996
sS'network_rsn'
p3589
F60.799999999999997
sg3567
S'CACHE_ALL_RSN_ALL'
p3590
sS'rsn_cache_ratio'
p3591
I64
ssS'warmup_strategy'
p3592
g11
(tRp3593
S'p'
F0.10000000000000001
sg3567
S'NDN'
p3594
ssS'topology'
p3595
g11
(tRp3596
S'ext_delay'
p3597
I5
sS'source_ratio'
p3598
F0.10000000000000001
sg3567
S'ROCKET_FUEL'
p3599
sS'asn'
p3600
I3257
ssg11
(tRp3601
S'SAT_RATE'
p3602
g11
(tRp3603
S'MEAN_CACHE_HIT'
p3604
F0.44550638888888888
sS'MEAN_SERVER_HIT'
p3605
F0.24168194444444444
sS'MEAN'
p3606
F0.68718833333333329
ssS'CACHE_HIT_RATIO'
p3607
g11
(tRp3608
S'MEAN_OFF_PATH'
p3609
F0.38263180916937917
sS'MEAN_ON_PATH'
p3610
F0.062874579719509716
sg3606
F0.44550638888888888
ssS'OVERHEAD'
p3611
g11
(tRp3612
g3606
F3.3294891666666668
ssS'LATENCY'
p3613
g11
(tRp3614
g3606
F36.346849285275248
sstp3615
a(g11
(tRp3616
S'workload'
p3617
g11
(tRp3618
S'n_contents'
p3619
I10000
sS'name'
p3620
S'STATIONARY'
p3621
sS'n_warmup'
p3622
I360000
sS'rate'
p3623
I1000
sS'n_measured'
p3624
I3600000
sS'alpha'
p3625
F0.80000000000000004
ssS'cache_policy'
p3626
g11
(tRp3627
g3620
S'LRU'
p3628
ssS'desc'
p3629
S'caching probability: 0.66'
p3630
sS'strategy'
p3631
g11
(tRp3632
S'extra_quota'
p3633
I1
sS'rsn_fresh'
p3634
F5
sg3620
S'LIRA_DFIB'
p3635
sS'p'
F0.66000000000000003
ssS'content_placement'
p3636
g11
(tRp3637
g3620
S'LOWEST_DEGREE'
p3638
ssS'joint_cache_rsn_placement'
p3639
g11
(tRp3640
S'network_cache'
p3641
F0.94999999999999996
sS'network_rsn'
p3642
F60.799999999999997
sg3620
S'CACHE_ALL_RSN_ALL'
p3643
sS'rsn_cache_ratio'
p3644
I64
ssS'warmup_strategy'
p3645
g11
(tRp3646
S'p'
F0.10000000000000001
sg3620
S'NDN'
p3647
ssS'topology'
p3648
g11
(tRp3649
S'ext_delay'
p3650
I5
sS'source_ratio'
p3651
F0.10000000000000001
sg3620
S'ROCKET_FUEL'
p3652
sS'asn'
p3653
I3257
ssg11
(tRp3654
S'SAT_RATE'
p3655
g11
(tRp3656
S'MEAN_CACHE_HIT'
p3657
F0.47763555555555554
sS'MEAN_SERVER_HIT'
p3658
F0.40513944444444444
sS'MEAN'
p3659
F0.88277499999999998
ssS'CACHE_HIT_RATIO'
p3660
g11
(tRp3661
S'MEAN_OFF_PATH'
p3662
F0.32819939731134667
sS'MEAN_ON_PATH'
p3663
F0.14943615824420886
sg3659
F0.47763555555555554
ssS'OVERHEAD'
p3664
g11
(tRp3665
g3659
F4.9477833333333336
ssS'LATENCY'
p3666
g11
(tRp3667
g3659
F59.676464969358456
sstp3668
a(g11
(tRp3669
S'workload'
p3670
g11
(tRp3671
S'n_contents'
p3672
I10000
sS'name'
p3673
S'STATIONARY'
p3674
sS'n_warmup'
p3675
I360000
sS'rate'
p3676
I1000
sS'n_measured'
p3677
I3600000
sS'alpha'
p3678
F0.80000000000000004
ssS'cache_policy'
p3679
g11
(tRp3680
g3673
S'LRU'
p3681
ssS'desc'
p3682
S'caching probability: 0.66'
p3683
sS'strategy'
p3684
g11
(tRp3685
S'extra_quota'
p3686
I2
sS'rsn_fresh'
p3687
F5
sg3673
S'LIRA_DFIB'
p3688
sS'p'
F0.66000000000000003
ssS'content_placement'
p3689
g11
(tRp3690
g3673
S'LOWEST_DEGREE'
p3691
ssS'joint_cache_rsn_placement'
p3692
g11
(tRp3693
S'network_cache'
p3694
F0.94999999999999996
sS'network_rsn'
p3695
F60.799999999999997
sg3673
S'CACHE_ALL_RSN_ALL'
p3696
sS'rsn_cache_ratio'
p3697
I64
ssS'warmup_strategy'
p3698
g11
(tRp3699
S'p'
F0.10000000000000001
sg3673
S'NDN'
p3700
ssS'topology'
p3701
g11
(tRp3702
S'ext_delay'
p3703
I5
sS'source_ratio'
p3704
F0.10000000000000001
sg3673
S'ROCKET_FUEL'
p3705
sS'asn'
p3706
I3257
ssg11
(tRp3707
S'SAT_RATE'
p3708
g11
(tRp3709
S'MEAN_CACHE_HIT'
p3710
F0.49337500000000001
sS'MEAN_SERVER_HIT'
p3711
F0.47198416666666665
sS'MEAN'
p3712
F0.96535916666666666
ssS'CACHE_HIT_RATIO'
p3713
g11
(tRp3714
S'MEAN_OFF_PATH'
p3715
F0.29915562647059896
sS'MEAN_ON_PATH'
p3716
F0.19421937352940105
sg3712
F0.49337500000000001
ssS'OVERHEAD'
p3717
g11
(tRp3718
g3712
F5.8408241666666667
ssS'LATENCY'
p3719
g11
(tRp3720
g3712
F69.496375054796346
sstp3721
a(g11
(tRp3722
S'workload'
p3723
g11
(tRp3724
S'n_contents'
p3725
I10000
sS'name'
p3726
S'STATIONARY'
p3727
sS'n_warmup'
p3728
I360000
sS'rate'
p3729
I1000
sS'n_measured'
p3730
I3600000
sS'alpha'
p3731
F0.80000000000000004
ssS'cache_policy'
p3732
g11
(tRp3733
g3726
S'LRU'
p3734
ssS'desc'
p3735
S'caching probability: 0.66'
p3736
sS'strategy'
p3737
g11
(tRp3738
S'extra_quota'
p3739
I3
sS'rsn_fresh'
p3740
F5
sg3726
S'LIRA_DFIB'
p3741
sS'p'
F0.66000000000000003
ssS'content_placement'
p3742
g11
(tRp3743
g3726
S'LOWEST_DEGREE'
p3744
ssS'joint_cache_rsn_placement'
p3745
g11
(tRp3746
S'network_cache'
p3747
F0.94999999999999996
sS'network_rsn'
p3748
F60.799999999999997
sg3726
S'CACHE_ALL_RSN_ALL'
p3749
sS'rsn_cache_ratio'
p3750
I64
ssS'warmup_strategy'
p3751
g11
(tRp3752
S'p'
F0.10000000000000001
sg3726
S'NDN'
p3753
ssS'topology'
p3754
g11
(tRp3755
S'ext_delay'
p3756
I5
sS'source_ratio'
p3757
F0.10000000000000001
sg3726
S'ROCKET_FUEL'
p3758
sS'asn'
p3759
I3257
ssg11
(tRp3760
S'SAT_RATE'
p3761
g11
(tRp3762
S'MEAN_CACHE_HIT'
p3763
F0.49394027777777777
sS'MEAN_SERVER_HIT'
p3764
F0.49673972222222224
sS'MEAN'
p3765
F0.99068000000000001
ssS'CACHE_HIT_RATIO'
p3766
g11
(tRp3767
S'MEAN_OFF_PATH'
p3768
F0.27397528176116076
sS'MEAN_ON_PATH'
p3769
F0.21996499601661701
sg3765
F0.49394027777777777
ssS'OVERHEAD'
p3770
g11
(tRp3771
g3765
F6.2459566666666664
ssS'LATENCY'
p3772
g11
(tRp3773
g3765
F73.068334247368512
sstp3774
a(g11
(tRp3775
S'workload'
p3776
g11
(tRp3777
S'n_contents'
p3778
I10000
sS'name'
p3779
S'STATIONARY'
p3780
sS'n_warmup'
p3781
I360000
sS'rate'
p3782
I1000
sS'n_measured'
p3783
I3600000
sS'alpha'
p3784
F0.80000000000000004
ssS'cache_policy'
p3785
g11
(tRp3786
g3779
S'LRU'
p3787
ssS'desc'
p3788
S'caching probability: 0.66'
p3789
sS'strategy'
p3790
g11
(tRp3791
S'extra_quota'
p3792
I4
sS'rsn_fresh'
p3793
F5
sg3779
S'LIRA_DFIB'
p3794
sS'p'
F0.66000000000000003
ssS'content_placement'
p3795
g11
(tRp3796
g3779
S'LOWEST_DEGREE'
p3797
ssS'joint_cache_rsn_placement'
p3798
g11
(tRp3799
S'network_cache'
p3800
F0.94999999999999996
sS'network_rsn'
p3801
F60.799999999999997
sg3779
S'CACHE_ALL_RSN_ALL'
p3802
sS'rsn_cache_ratio'
p3803
I64
ssS'warmup_strategy'
p3804
g11
(tRp3805
S'p'
F0.10000000000000001
sg3779
S'NDN'
p3806
ssS'topology'
p3807
g11
(tRp3808
S'ext_delay'
p3809
I5
sS'source_ratio'
p3810
F0.10000000000000001
sg3779
S'ROCKET_FUEL'
p3811
sS'asn'
p3812
I3257
ssg11
(tRp3813
S'SAT_RATE'
p3814
g11
(tRp3815
S'MEAN_CACHE_HIT'
p3816
F0.49058861111111113
sS'MEAN_SERVER_HIT'
p3817
F0.5072902777777778
sS'MEAN'
p3818
F0.99787888888888887
ssS'CACHE_HIT_RATIO'
p3819
g11
(tRp3820
S'MEAN_OFF_PATH'
p3821
F0.25769967383132381
sS'MEAN_ON_PATH'
p3822
F0.23288893727978732
sg3818
F0.49058861111111113
ssS'OVERHEAD'
p3823
g11
(tRp3824
g3818
F6.4319152777777777
ssS'LATENCY'
p3825
g11
(tRp3826
g3818
F74.53913487639737
sstp3827
a(g11
(tRp3828
S'workload'
p3829
g11
(tRp3830
S'n_contents'
p3831
I10000
sS'name'
p3832
S'STATIONARY'
p3833
sS'n_warmup'
p3834
I360000
sS'rate'
p3835
I1000
sS'n_measured'
p3836
I3600000
sS'alpha'
p3837
F0.80000000000000004
ssS'cache_policy'
p3838
g11
(tRp3839
g3832
S'LRU'
p3840
ssS'desc'
p3841
S'caching probability: 0.75'
p3842
sS'strategy'
p3843
g11
(tRp3844
S'extra_quota'
p3845
I1
sS'rsn_fresh'
p3846
F5
sg3832
S'LIRA_DFIB'
p3847
sS'p'
F0.75
ssS'content_placement'
p3848
g11
(tRp3849
g3832
S'LOWEST_DEGREE'
p3850
ssS'joint_cache_rsn_placement'
p3851
g11
(tRp3852
S'network_cache'
p3853
F0.94999999999999996
sS'network_rsn'
p3854
F60.799999999999997
sg3832
S'CACHE_ALL_RSN_ALL'
p3855
sS'rsn_cache_ratio'
p3856
I64
ssS'warmup_strategy'
p3857
g11
(tRp3858
S'p'
F0.10000000000000001
sg3832
S'NDN'
p3859
ssS'topology'
p3860
g11
(tRp3861
S'ext_delay'
p3862
I5
sS'source_ratio'
p3863
F0.10000000000000001
sg3832
S'ROCKET_FUEL'
p3864
sS'asn'
p3865
I3257
ssg11
(tRp3866
S'SAT_RATE'
p3867
g11
(tRp3868
S'MEAN_CACHE_HIT'
p3869
F0.47312749999999998
sS'MEAN_SERVER_HIT'
p3870
F0.40689166666666665
sS'MEAN'
p3871
F0.88001916666666669
ssS'CACHE_HIT_RATIO'
p3872
g11
(tRp3873
S'MEAN_OFF_PATH'
p3874
F0.32612174092371704
sS'MEAN_ON_PATH'
p3875
F0.14700575907628294
sg3871
F0.47312749999999998
ssS'OVERHEAD'
p3876
g11
(tRp3877
g3871
F4.9409530555555552
ssS'LATENCY'
p3878
g11
(tRp3879
g3871
F59.867134890106783
sstp3880
a(g11
(tRp3881
S'workload'
p3882
g11
(tRp3883
S'n_contents'
p3884
I10000
sS'name'
p3885
S'STATIONARY'
p3886
sS'n_warmup'
p3887
I360000
sS'rate'
p3888
I1000
sS'n_measured'
p3889
I3600000
sS'alpha'
p3890
F0.80000000000000004
ssS'cache_policy'
p3891
g11
(tRp3892
g3885
S'LRU'
p3893
ssS'desc'
p3894
S'caching probability: 0.66'
p3895
sS'strategy'
p3896
g11
(tRp3897
S'extra_quota'
p3898
I5
sS'rsn_fresh'
p3899
F5
sg3885
S'LIRA_DFIB'
p3900
sS'p'
F0.66000000000000003
ssS'content_placement'
p3901
g11
(tRp3902
g3885
S'LOWEST_DEGREE'
p3903
ssS'joint_cache_rsn_placement'
p3904
g11
(tRp3905
S'network_cache'
p3906
F0.94999999999999996
sS'network_rsn'
p3907
F60.799999999999997
sg3885
S'CACHE_ALL_RSN_ALL'
p3908
sS'rsn_cache_ratio'
p3909
I64
ssS'warmup_strategy'
p3910
g11
(tRp3911
S'p'
F0.10000000000000001
sg3885
S'NDN'
p3912
ssS'topology'
p3913
g11
(tRp3914
S'ext_delay'
p3915
I5
sS'source_ratio'
p3916
F0.10000000000000001
sg3885
S'ROCKET_FUEL'
p3917
sS'asn'
p3918
I3257
ssg11
(tRp3919
S'SAT_RATE'
p3920
g11
(tRp3921
S'MEAN_CACHE_HIT'
p3922
F0.4852036111111111
sS'MEAN_SERVER_HIT'
p3923
F0.51428444444444443
sS'MEAN'
p3924
F0.99948805555555553
ssS'CACHE_HIT_RATIO'
p3925
g11
(tRp3926
S'MEAN_OFF_PATH'
p3927
F0.24784060690457768
sS'MEAN_ON_PATH'
p3928
F0.23736300420653342
sg3924
F0.4852036111111111
ssS'OVERHEAD'
p3929
g11
(tRp3930
g3924
F6.5024716666666666
ssS'LATENCY'
p3931
g11
(tRp3932
g3924
F75.457797263593207
sstp3933
a(g11
(tRp3934
S'workload'
p3935
g11
(tRp3936
S'n_contents'
p3937
I10000
sS'name'
p3938
S'STATIONARY'
p3939
sS'n_warmup'
p3940
I360000
sS'rate'
p3941
I1000
sS'n_measured'
p3942
I3600000
sS'alpha'
p3943
F0.80000000000000004
ssS'cache_policy'
p3944
g11
(tRp3945
g3938
S'LRU'
p3946
ssS'desc'
p3947
S'caching probability: 1.0'
p3948
sS'strategy'
p3949
g11
(tRp3950
S'extra_quota'
p3951
I0
sS'rsn_fresh'
p3952
F5
sg3938
S'LIRA_DFIB'
p3953
sS'p'
F1
ssS'content_placement'
p3954
g11
(tRp3955
g3938
S'LOWEST_DEGREE'
p3956
ssS'joint_cache_rsn_placement'
p3957
g11
(tRp3958
S'network_cache'
p3959
F0.94999999999999996
sS'network_rsn'
p3960
F60.799999999999997
sg3938
S'CACHE_ALL_RSN_ALL'
p3961
sS'rsn_cache_ratio'
p3962
I64
ssS'warmup_strategy'
p3963
g11
(tRp3964
S'p'
F0.10000000000000001
sg3938
S'NDN'
p3965
ssS'topology'
p3966
g11
(tRp3967
S'ext_delay'
p3968
I5
sS'source_ratio'
p3969
F0.10000000000000001
sg3938
S'ROCKET_FUEL'
p3970
sS'asn'
p3971
I3257
ssg11
(tRp3972
S'SAT_RATE'
p3973
g11
(tRp3974
S'MEAN_CACHE_HIT'
p3975
F0.43986222222222221
sS'MEAN_SERVER_HIT'
p3976
F0.2429661111111111
sS'MEAN'
p3977
F0.68282833333333337
ssS'CACHE_HIT_RATIO'
p3978
g11
(tRp3979
S'MEAN_OFF_PATH'
p3980
F0.38200166000199981
sS'MEAN_ON_PATH'
p3981
F0.0578605622202224
sg3977
F0.43986222222222221
ssS'OVERHEAD'
p3982
g11
(tRp3983
g3977
F3.3188597222222223
ssS'LATENCY'
p3984
g11
(tRp3985
g3977
F36.446313175971518
sstp3986
a(g11
(tRp3987
S'workload'
p3988
g11
(tRp3989
S'n_contents'
p3990
I10000
sS'name'
p3991
S'STATIONARY'
p3992
sS'n_warmup'
p3993
I360000
sS'rate'
p3994
I1000
sS'n_measured'
p3995
I3600000
sS'alpha'
p3996
F0.80000000000000004
ssS'cache_policy'
p3997
g11
(tRp3998
g3991
S'LRU'
p3999
ssS'desc'
p4000
S'caching probability: 0.75'
p4001
sS'strategy'
p4002
g11
(tRp4003
S'extra_quota'
p4004
I2
sS'rsn_fresh'
p4005
F5
sg3991
S'LIRA_DFIB'
p4006
sS'p'
F0.75
ssS'content_placement'
p4007
g11
(tRp4008
g3991
S'LOWEST_DEGREE'
p4009
ssS'joint_cache_rsn_placement'
p4010
g11
(tRp4011
S'network_cache'
p4012
F0.94999999999999996
sS'network_rsn'
p4013
F60.799999999999997
sg3991
S'CACHE_ALL_RSN_ALL'
p4014
sS'rsn_cache_ratio'
p4015
I64
ssS'warmup_strategy'
p4016
g11
(tRp4017
S'p'
F0.10000000000000001
sg3991
S'NDN'
p4018
ssS'topology'
p4019
g11
(tRp4020
S'ext_delay'
p4021
I5
sS'source_ratio'
p4022
F0.10000000000000001
sg3991
S'ROCKET_FUEL'
p4023
sS'asn'
p4024
I3257
ssg11
(tRp4025
S'SAT_RATE'
p4026
g11
(tRp4027
S'MEAN_CACHE_HIT'
p4028
F0.49010944444444443
sS'MEAN_SERVER_HIT'
p4029
F0.47449916666666669
sS'MEAN'
p4030
F0.96460861111111107
ssS'CACHE_HIT_RATIO'
p4031
g11
(tRp4032
S'MEAN_OFF_PATH'
p4033
F0.29751784175938017
sS'MEAN_ON_PATH'
p4034
F0.19259160268506426
sg4030
F0.49010944444444443
ssS'OVERHEAD'
p4035
g11
(tRp4036
g4030
F5.8483894444444449
ssS'LATENCY'
p4037
g11
(tRp4038
g4030
F69.881711845513962
sstp4039
a(g11
(tRp4040
S'workload'
p4041
g11
(tRp4042
S'n_contents'
p4043
I10000
sS'name'
p4044
S'STATIONARY'
p4045
sS'n_warmup'
p4046
I360000
sS'rate'
p4047
I1000
sS'n_measured'
p4048
I3600000
sS'alpha'
p4049
F0.80000000000000004
ssS'cache_policy'
p4050
g11
(tRp4051
g4044
S'LRU'
p4052
ssS'desc'
p4053
S'caching probability: 0.75'
p4054
sS'strategy'
p4055
g11
(tRp4056
S'extra_quota'
p4057
I3
sS'rsn_fresh'
p4058
F5
sg4044
S'LIRA_DFIB'
p4059
sS'p'
F0.75
ssS'content_placement'
p4060
g11
(tRp4061
g4044
S'LOWEST_DEGREE'
p4062
ssS'joint_cache_rsn_placement'
p4063
g11
(tRp4064
S'network_cache'
p4065
F0.94999999999999996
sS'network_rsn'
p4066
F60.799999999999997
sg4044
S'CACHE_ALL_RSN_ALL'
p4067
sS'rsn_cache_ratio'
p4068
I64
ssS'warmup_strategy'
p4069
g11
(tRp4070
S'p'
F0.10000000000000001
sg4044
S'NDN'
p4071
ssS'topology'
p4072
g11
(tRp4073
S'ext_delay'
p4074
I5
sS'source_ratio'
p4075
F0.10000000000000001
sg4044
S'ROCKET_FUEL'
p4076
sS'asn'
p4077
I3257
ssg11
(tRp4078
S'SAT_RATE'
p4079
g11
(tRp4080
S'MEAN_CACHE_HIT'
p4081
F0.49073583333333332
sS'MEAN_SERVER_HIT'
p4082
F0.49960916666666666
sS'MEAN'
p4083
F0.99034500000000003
ssS'CACHE_HIT_RATIO'
p4084
g11
(tRp4085
S'MEAN_OFF_PATH'
p4086
F0.27288197885141363
sS'MEAN_ON_PATH'
p4087
F0.21785385448191968
sg4083
F0.49073583333333332
ssS'OVERHEAD'
p4088
g11
(tRp4089
g4083
F6.2517699999999996
ssS'LATENCY'
p4090
g11
(tRp4091
g4083
F73.452001282042659
sstp4092
a(g11
(tRp4093
S'workload'
p4094
g11
(tRp4095
S'n_contents'
p4096
I10000
sS'name'
p4097
S'STATIONARY'
p4098
sS'n_warmup'
p4099
I360000
sS'rate'
p4100
I1000
sS'n_measured'
p4101
I3600000
sS'alpha'
p4102
F0.80000000000000004
ssS'cache_policy'
p4103
g11
(tRp4104
g4097
S'LRU'
p4105
ssS'desc'
p4106
S'caching probability: 0.75'
p4107
sS'strategy'
p4108
g11
(tRp4109
S'extra_quota'
p4110
I4
sS'rsn_fresh'
p4111
F5
sg4097
S'LIRA_DFIB'
p4112
sS'p'
F0.75
ssS'content_placement'
p4113
g11
(tRp4114
g4097
S'LOWEST_DEGREE'
p4115
ssS'joint_cache_rsn_placement'
p4116
g11
(tRp4117
S'network_cache'
p4118
F0.94999999999999996
sS'network_rsn'
p4119
F60.799999999999997
sg4097
S'CACHE_ALL_RSN_ALL'
p4120
sS'rsn_cache_ratio'
p4121
I64
ssS'warmup_strategy'
p4122
g11
(tRp4123
S'p'
F0.10000000000000001
sg4097
S'NDN'
p4124
ssS'topology'
p4125
g11
(tRp4126
S'ext_delay'
p4127
I5
sS'source_ratio'
p4128
F0.10000000000000001
sg4097
S'ROCKET_FUEL'
p4129
sS'asn'
p4130
I3257
ssg11
(tRp4131
S'SAT_RATE'
p4132
g11
(tRp4133
S'MEAN_CACHE_HIT'
p4134
F0.48588777777777775
sS'MEAN_SERVER_HIT'
p4135
F0.51187666666666665
sS'MEAN'
p4136
F0.99776444444444445
ssS'CACHE_HIT_RATIO'
p4137
g11
(tRp4138
S'MEAN_OFF_PATH'
p4139
F0.25574369809433822
sS'MEAN_ON_PATH'
p4140
F0.23014407968343953
sg4136
F0.48588777777777775
ssS'OVERHEAD'
p4141
g11
(tRp4142
g4136
F6.4420888888888888
ssS'LATENCY'
p4143
g11
(tRp4144
g4136
F75.114436739507752
sstp4145
a(g11
(tRp4146
S'workload'
p4147
g11
(tRp4148
S'n_contents'
p4149
I10000
sS'name'
p4150
S'STATIONARY'
p4151
sS'n_warmup'
p4152
I360000
sS'rate'
p4153
I1000
sS'n_measured'
p4154
I3600000
sS'alpha'
p4155
F0.80000000000000004
ssS'cache_policy'
p4156
g11
(tRp4157
g4150
S'LRU'
p4158
ssS'desc'
p4159
S'caching probability: 0.75'
p4160
sS'strategy'
p4161
g11
(tRp4162
S'extra_quota'
p4163
I5
sS'rsn_fresh'
p4164
F5
sg4150
S'LIRA_DFIB'
p4165
sS'p'
F0.75
ssS'content_placement'
p4166
g11
(tRp4167
g4150
S'LOWEST_DEGREE'
p4168
ssS'joint_cache_rsn_placement'
p4169
g11
(tRp4170
S'network_cache'
p4171
F0.94999999999999996
sS'network_rsn'
p4172
F60.799999999999997
sg4150
S'CACHE_ALL_RSN_ALL'
p4173
sS'rsn_cache_ratio'
p4174
I64
ssS'warmup_strategy'
p4175
g11
(tRp4176
S'p'
F0.10000000000000001
sg4150
S'NDN'
p4177
ssS'topology'
p4178
g11
(tRp4179
S'ext_delay'
p4180
I5
sS'source_ratio'
p4181
F0.10000000000000001
sg4150
S'ROCKET_FUEL'
p4182
sS'asn'
p4183
I3257
ssg11
(tRp4184
S'SAT_RATE'
p4185
g11
(tRp4186
S'MEAN_CACHE_HIT'
p4187
F0.48277722222222225
sS'MEAN_SERVER_HIT'
p4188
F0.51670166666666661
sS'MEAN'
p4189
F0.99947888888888892
ssS'CACHE_HIT_RATIO'
p4190
g11
(tRp4191
S'MEAN_OFF_PATH'
p4192
F0.24694594832298525
sS'MEAN_ON_PATH'
p4193
F0.235831273899237
sg4189
F0.48277722222222225
ssS'OVERHEAD'
p4194
g11
(tRp4195
g4189
F6.5160230555555554
ssS'LATENCY'
p4196
g11
(tRp4197
g4189
F75.685281725031601
sstp4198
a(g11
(tRp4199
S'workload'
p4200
g11
(tRp4201
S'n_contents'
p4202
I10000
sS'name'
p4203
S'STATIONARY'
p4204
sS'n_warmup'
p4205
I360000
sS'rate'
p4206
I1000
sS'n_measured'
p4207
I3600000
sS'alpha'
p4208
F0.80000000000000004
ssS'cache_policy'
p4209
g11
(tRp4210
g4203
S'LRU'
p4211
ssS'desc'
p4212
S'caching probability: 1.0'
p4213
sS'strategy'
p4214
g11
(tRp4215
S'extra_quota'
p4216
I1
sS'rsn_fresh'
p4217
F5
sg4203
S'LIRA_DFIB'
p4218
sS'p'
F1
ssS'content_placement'
p4219
g11
(tRp4220
g4203
S'LOWEST_DEGREE'
p4221
ssS'joint_cache_rsn_placement'
p4222
g11
(tRp4223
S'network_cache'
p4224
F0.94999999999999996
sS'network_rsn'
p4225
F60.799999999999997
sg4203
S'CACHE_ALL_RSN_ALL'
p4226
sS'rsn_cache_ratio'
p4227
I64
ssS'warmup_strategy'
p4228
g11
(tRp4229
S'p'
F0.10000000000000001
sg4203
S'NDN'
p4230
ssS'topology'
p4231
g11
(tRp4232
S'ext_delay'
p4233
I5
sS'source_ratio'
p4234
F0.10000000000000001
sg4203
S'ROCKET_FUEL'
p4235
sS'asn'
p4236
I3257
ssg11
(tRp4237
S'SAT_RATE'
p4238
g11
(tRp4239
S'MEAN_CACHE_HIT'
p4240
F0.46638694444444445
sS'MEAN_SERVER_HIT'
p4241
F0.40999999999999998
sS'MEAN'
p4242
F0.87638694444444443
ssS'CACHE_HIT_RATIO'
p4243
g11
(tRp4244
S'MEAN_OFF_PATH'
p4245
F0.32309741333740488
sS'MEAN_ON_PATH'
p4246
F0.14328953110703957
sg4242
F0.46638694444444445
ssS'OVERHEAD'
p4247
g11
(tRp4248
g4242
F4.9386369444444442
ssS'LATENCY'
p4249
g11
(tRp4250
g4242
F60.29163975060532
sstp4251
a(g11
(tRp4252
S'workload'
p4253
g11
(tRp4254
S'n_contents'
p4255
I10000
sS'name'
p4256
S'STATIONARY'
p4257
sS'n_warmup'
p4258
I360000
sS'rate'
p4259
I1000
sS'n_measured'
p4260
I3600000
sS'alpha'
p4261
F0.80000000000000004
ssS'cache_policy'
p4262
g11
(tRp4263
g4256
S'LRU'
p4264
ssS'desc'
p4265
S'caching probability: 0.1'
p4266
sS'strategy'
p4267
g11
(tRp4268
S'extra_quota'
p4269
I0
sS'rsn_fresh'
p4270
F5
sg4256
S'LIRA_DFIB_OPH'
p4271
sS'p'
F0.10000000000000001
ssS'content_placement'
p4272
g11
(tRp4273
g4256
S'LOWEST_DEGREE'
p4274
ssS'joint_cache_rsn_placement'
p4275
g11
(tRp4276
S'network_cache'
p4277
F0.94999999999999996
sS'network_rsn'
p4278
F60.799999999999997
sg4256
S'CACHE_ALL_RSN_ALL'
p4279
sS'rsn_cache_ratio'
p4280
I64
ssS'warmup_strategy'
p4281
g11
(tRp4282
S'p'
F0.10000000000000001
sg4256
S'NDN'
p4283
ssS'topology'
p4284
g11
(tRp4285
S'ext_delay'
p4286
I5
sS'source_ratio'
p4287
F0.10000000000000001
sg4256
S'ROCKET_FUEL'
p4288
sS'asn'
p4289
I3257
ssg11
(tRp4290
S'SAT_RATE'
p4291
g11
(tRp4292
S'MEAN_CACHE_HIT'
p4293
F0.57530000000000003
sS'MEAN_SERVER_HIT'
p4294
F0.23596027777777778
sS'MEAN'
p4295
F0.81126027777777776
ssS'CACHE_HIT_RATIO'
p4296
g11
(tRp4297
S'MEAN_OFF_PATH'
p4298
F0.49680677042695032
sS'MEAN_ON_PATH'
p4299
F0.078493229573049716
sg4295
F0.57530000000000003
ssS'OVERHEAD'
p4300
g11
(tRp4301
g4295
F4.5894877777777774
ssS'LATENCY'
p4302
g11
(tRp4303
g4295
F37.630614660660953
sstp4304
a(g11
(tRp4305
S'workload'
p4306
g11
(tRp4307
S'n_contents'
p4308
I10000
sS'name'
p4309
S'STATIONARY'
p4310
sS'n_warmup'
p4311
I360000
sS'rate'
p4312
I1000
sS'n_measured'
p4313
I3600000
sS'alpha'
p4314
F0.80000000000000004
ssS'cache_policy'
p4315
g11
(tRp4316
g4309
S'LRU'
p4317
ssS'desc'
p4318
S'caching probability: 1.0'
p4319
sS'strategy'
p4320
g11
(tRp4321
S'extra_quota'
p4322
I2
sS'rsn_fresh'
p4323
F5
sg4309
S'LIRA_DFIB'
p4324
sS'p'
F1
ssS'content_placement'
p4325
g11
(tRp4326
g4309
S'LOWEST_DEGREE'
p4327
ssS'joint_cache_rsn_placement'
p4328
g11
(tRp4329
S'network_cache'
p4330
F0.94999999999999996
sS'network_rsn'
p4331
F60.799999999999997
sg4309
S'CACHE_ALL_RSN_ALL'
p4332
sS'rsn_cache_ratio'
p4333
I64
ssS'warmup_strategy'
p4334
g11
(tRp4335
S'p'
F0.10000000000000001
sg4309
S'NDN'
p4336
ssS'topology'
p4337
g11
(tRp4338
S'ext_delay'
p4339
I5
sS'source_ratio'
p4340
F0.10000000000000001
sg4309
S'ROCKET_FUEL'
p4341
sS'asn'
p4342
I3257
ssg11
(tRp4343
S'SAT_RATE'
p4344
g11
(tRp4345
S'MEAN_CACHE_HIT'
p4346
F0.48233472222222223
sS'MEAN_SERVER_HIT'
p4347
F0.48005611111111113
sS'MEAN'
p4348
F0.96239083333333331
ssS'CACHE_HIT_RATIO'
p4349
g11
(tRp4350
S'MEAN_OFF_PATH'
p4351
F0.29316223770668304
sS'MEAN_ON_PATH'
p4352
F0.1891724845155392
sg4348
F0.48233472222222223
ssS'OVERHEAD'
p4353
g11
(tRp4354
g4348
F5.8501733333333332
ssS'LATENCY'
p4355
g11
(tRp4356
g4348
F70.567784504568209
sstp4357
a(g11
(tRp4358
S'workload'
p4359
g11
(tRp4360
S'n_contents'
p4361
I10000
sS'name'
p4362
S'STATIONARY'
p4363
sS'n_warmup'
p4364
I360000
sS'rate'
p4365
I1000
sS'n_measured'
p4366
I3600000
sS'alpha'
p4367
F0.80000000000000004
ssS'cache_policy'
p4368
g11
(tRp4369
g4362
S'LRU'
p4370
ssS'desc'
p4371
S'caching probability: 0.1'
p4372
sS'strategy'
p4373
g11
(tRp4374
S'extra_quota'
p4375
I1
sS'rsn_fresh'
p4376
F5
sg4362
S'LIRA_DFIB_OPH'
p4377
sS'p'
F0.10000000000000001
ssS'content_placement'
p4378
g11
(tRp4379
g4362
S'LOWEST_DEGREE'
p4380
ssS'joint_cache_rsn_placement'
p4381
g11
(tRp4382
S'network_cache'
p4383
F0.94999999999999996
sS'network_rsn'
p4384
F60.799999999999997
sg4362
S'CACHE_ALL_RSN_ALL'
p4385
sS'rsn_cache_ratio'
p4386
I64
ssS'warmup_strategy'
p4387
g11
(tRp4388
S'p'
F0.10000000000000001
sg4362
S'NDN'
p4389
ssS'topology'
p4390
g11
(tRp4391
S'ext_delay'
p4392
I5
sS'source_ratio'
p4393
F0.10000000000000001
sg4362
S'ROCKET_FUEL'
p4394
sS'asn'
p4395
I3257
ssg11
(tRp4396
S'SAT_RATE'
p4397
g11
(tRp4398
S'MEAN_CACHE_HIT'
p4399
F0.59264861111111111
sS'MEAN_SERVER_HIT'
p4400
F0.36996250000000003
sS'MEAN'
p4401
F0.96261111111111108
ssS'CACHE_HIT_RATIO'
p4402
g11
(tRp4403
S'MEAN_OFF_PATH'
p4404
F0.37355553368469996
sS'MEAN_ON_PATH'
p4405
F0.21909307742641115
sg4401
F0.59264861111111111
ssS'OVERHEAD'
p4406
g11
(tRp4407
g4401
F6.4325055555555553
ssS'LATENCY'
p4408
g11
(tRp4409
g4401
F57.010874466497846
sstp4410
a(g11
(tRp4411
S'workload'
p4412
g11
(tRp4413
S'n_contents'
p4414
I10000
sS'name'
p4415
S'STATIONARY'
p4416
sS'n_warmup'
p4417
I360000
sS'rate'
p4418
I1000
sS'n_measured'
p4419
I3600000
sS'alpha'
p4420
F0.80000000000000004
ssS'cache_policy'
p4421
g11
(tRp4422
g4415
S'LRU'
p4423
ssS'desc'
p4424
S'caching probability: 1.0'
p4425
sS'strategy'
p4426
g11
(tRp4427
S'extra_quota'
p4428
I3
sS'rsn_fresh'
p4429
F5
sg4415
S'LIRA_DFIB'
p4430
sS'p'
F1
ssS'content_placement'
p4431
g11
(tRp4432
g4415
S'LOWEST_DEGREE'
p4433
ssS'joint_cache_rsn_placement'
p4434
g11
(tRp4435
S'network_cache'
p4436
F0.94999999999999996
sS'network_rsn'
p4437
F60.799999999999997
sg4415
S'CACHE_ALL_RSN_ALL'
p4438
sS'rsn_cache_ratio'
p4439
I64
ssS'warmup_strategy'
p4440
g11
(tRp4441
S'p'
F0.10000000000000001
sg4415
S'NDN'
p4442
ssS'topology'
p4443
g11
(tRp4444
S'ext_delay'
p4445
I5
sS'source_ratio'
p4446
F0.10000000000000001
sg4415
S'ROCKET_FUEL'
p4447
sS'asn'
p4448
I3257
ssg11
(tRp4449
S'SAT_RATE'
p4450
g11
(tRp4451
S'MEAN_CACHE_HIT'
p4452
F0.48434555555555553
sS'MEAN_SERVER_HIT'
p4453
F0.50546749999999996
sS'MEAN'
p4454
F0.98981305555555554
ssS'CACHE_HIT_RATIO'
p4455
g11
(tRp4456
S'MEAN_OFF_PATH'
p4457
F0.27069834878940052
sS'MEAN_ON_PATH'
p4458
F0.21364720676615501
sg4454
F0.48434555555555553
ssS'OVERHEAD'
p4459
g11
(tRp4460
g4454
F6.2820038888888892
ssS'LATENCY'
p4461
g11
(tRp4462
g4454
F74.194665318819844
sstp4463
a(g11
(tRp4464
S'workload'
p4465
g11
(tRp4466
S'n_contents'
p4467
I10000
sS'name'
p4468
S'STATIONARY'
p4469
sS'n_warmup'
p4470
I360000
sS'rate'
p4471
I1000
sS'n_measured'
p4472
I3600000
sS'alpha'
p4473
F0.80000000000000004
ssS'cache_policy'
p4474
g11
(tRp4475
g4468
S'LRU'
p4476
ssS'desc'
p4477
S'caching probability: 0.1'
p4478
sS'strategy'
p4479
g11
(tRp4480
S'extra_quota'
p4481
I2
sS'rsn_fresh'
p4482
F5
sg4468
S'LIRA_DFIB_OPH'
p4483
sS'p'
F0.10000000000000001
ssS'content_placement'
p4484
g11
(tRp4485
g4468
S'LOWEST_DEGREE'
p4486
ssS'joint_cache_rsn_placement'
p4487
g11
(tRp4488
S'network_cache'
p4489
F0.94999999999999996
sS'network_rsn'
p4490
F60.799999999999997
sg4468
S'CACHE_ALL_RSN_ALL'
p4491
sS'rsn_cache_ratio'
p4492
I64
ssS'warmup_strategy'
p4493
g11
(tRp4494
S'p'
F0.10000000000000001
sg4468
S'NDN'
p4495
ssS'topology'
p4496
g11
(tRp4497
S'ext_delay'
p4498
I5
sS'source_ratio'
p4499
F0.10000000000000001
sg4468
S'ROCKET_FUEL'
p4500
sS'asn'
p4501
I3257
ssg11
(tRp4502
S'SAT_RATE'
p4503
g11
(tRp4504
S'MEAN_CACHE_HIT'
p4505
F0.60821111111111115
sS'MEAN_SERVER_HIT'
p4506
F0.38834472222222222
sS'MEAN'
p4507
F0.99655583333333331
ssS'CACHE_HIT_RATIO'
p4508
g11
(tRp4509
S'MEAN_OFF_PATH'
p4510
F0.34812803501009615
sS'MEAN_ON_PATH'
p4511
F0.260083076101015
sg4507
F0.60821111111111115
ssS'OVERHEAD'
p4512
g11
(tRp4513
g4507
F7.1377980555555558
ssS'LATENCY'
p4514
g11
(tRp4515
g4507
F60.117048890868787
sstp4516
a(g11
(tRp4517
S'workload'
p4518
g11
(tRp4519
S'n_contents'
p4520
I10000
sS'name'
p4521
S'STATIONARY'
p4522
sS'n_warmup'
p4523
I360000
sS'rate'
p4524
I1000
sS'n_measured'
p4525
I3600000
sS'alpha'
p4526
F0.80000000000000004
ssS'cache_policy'
p4527
g11
(tRp4528
g4521
S'LRU'
p4529
ssS'desc'
p4530
S'caching probability: 1.0'
p4531
sS'strategy'
p4532
g11
(tRp4533
S'extra_quota'
p4534
I4
sS'rsn_fresh'
p4535
F5
sg4521
S'LIRA_DFIB'
p4536
sS'p'
F1
ssS'content_placement'
p4537
g11
(tRp4538
g4521
S'LOWEST_DEGREE'
p4539
ssS'joint_cache_rsn_placement'
p4540
g11
(tRp4541
S'network_cache'
p4542
F0.94999999999999996
sS'network_rsn'
p4543
F60.799999999999997
sg4521
S'CACHE_ALL_RSN_ALL'
p4544
sS'rsn_cache_ratio'
p4545
I64
ssS'warmup_strategy'
p4546
g11
(tRp4547
S'p'
F0.10000000000000001
sg4521
S'NDN'
p4548
ssS'topology'
p4549
g11
(tRp4550
S'ext_delay'
p4551
I5
sS'source_ratio'
p4552
F0.10000000000000001
sg4521
S'ROCKET_FUEL'
p4553
sS'asn'
p4554
I3257
ssg11
(tRp4555
S'SAT_RATE'
p4556
g11
(tRp4557
S'MEAN_CACHE_HIT'
p4558
F0.47863055555555556
sS'MEAN_SERVER_HIT'
p4559
F0.51889888888888891
sS'MEAN'
p4560
F0.99752944444444447
ssS'CACHE_HIT_RATIO'
p4561
g11
(tRp4562
S'MEAN_OFF_PATH'
p4563
F0.25184748949965025
sS'MEAN_ON_PATH'
p4564
F0.22678306605590531
sg4560
F0.47863055555555556
ssS'OVERHEAD'
p4565
g11
(tRp4566
g4560
F6.4642241666666669
ssS'LATENCY'
p4567
g11
(tRp4568
g4560
F76.087514800593453
sstp4569
a(g11
(tRp4570
S'workload'
p4571
g11
(tRp4572
S'n_contents'
p4573
I10000
sS'name'
p4574
S'STATIONARY'
p4575
sS'n_warmup'
p4576
I360000
sS'rate'
p4577
I1000
sS'n_measured'
p4578
I3600000
sS'alpha'
p4579
F0.80000000000000004
ssS'cache_policy'
p4580
g11
(tRp4581
g4574
S'LRU'
p4582
ssS'desc'
p4583
S'caching probability: 1.0'
p4584
sS'strategy'
p4585
g11
(tRp4586
S'extra_quota'
p4587
I5
sS'rsn_fresh'
p4588
F5
sg4574
S'LIRA_DFIB'
p4589
sS'p'
F1
ssS'content_placement'
p4590
g11
(tRp4591
g4574
S'LOWEST_DEGREE'
p4592
ssS'joint_cache_rsn_placement'
p4593
g11
(tRp4594
S'network_cache'
p4595
F0.94999999999999996
sS'network_rsn'
p4596
F60.799999999999997
sg4574
S'CACHE_ALL_RSN_ALL'
p4597
sS'rsn_cache_ratio'
p4598
I64
ssS'warmup_strategy'
p4599
g11
(tRp4600
S'p'
F0.10000000000000001
sg4574
S'NDN'
p4601
ssS'topology'
p4602
g11
(tRp4603
S'ext_delay'
p4604
I5
sS'source_ratio'
p4605
F0.10000000000000001
sg4574
S'ROCKET_FUEL'
p4606
sS'asn'
p4607
I3257
ssg11
(tRp4608
S'SAT_RATE'
p4609
g11
(tRp4610
S'MEAN_CACHE_HIT'
p4611
F0.47677361111111111
sS'MEAN_SERVER_HIT'
p4612
F0.52266999999999997
sS'MEAN'
p4613
F0.99944361111111113
ssS'CACHE_HIT_RATIO'
p4614
g11
(tRp4615
S'MEAN_OFF_PATH'
p4616
F0.24424993243574844
sS'MEAN_ON_PATH'
p4617
F0.23252367867536267
sg4613
F0.47677361111111111
ssS'OVERHEAD'
p4618
g11
(tRp4619
g4613
F6.5482874999999998
ssS'LATENCY'
p4620
g11
(tRp4621
g4613
F76.579366799448991
sstp4622
a(g11
(tRp4623
S'workload'
p4624
g11
(tRp4625
S'n_contents'
p4626
I10000
sS'name'
p4627
S'STATIONARY'
p4628
sS'n_warmup'
p4629
I360000
sS'rate'
p4630
I1000
sS'n_measured'
p4631
I3600000
sS'alpha'
p4632
F0.80000000000000004
ssS'cache_policy'
p4633
g11
(tRp4634
g4627
S'LRU'
p4635
ssS'desc'
p4636
S'caching probability: 0.1'
p4637
sS'strategy'
p4638
g11
(tRp4639
S'extra_quota'
p4640
I3
sS'rsn_fresh'
p4641
F5
sg4627
S'LIRA_DFIB_OPH'
p4642
sS'p'
F0.10000000000000001
ssS'content_placement'
p4643
g11
(tRp4644
g4627
S'LOWEST_DEGREE'
p4645
ssS'joint_cache_rsn_placement'
p4646
g11
(tRp4647
S'network_cache'
p4648
F0.94999999999999996
sS'network_rsn'
p4649
F60.799999999999997
sg4627
S'CACHE_ALL_RSN_ALL'
p4650
sS'rsn_cache_ratio'
p4651
I64
ssS'warmup_strategy'
p4652
g11
(tRp4653
S'p'
F0.10000000000000001
sg4627
S'NDN'
p4654
ssS'topology'
p4655
g11
(tRp4656
S'ext_delay'
p4657
I5
sS'source_ratio'
p4658
F0.10000000000000001
sg4627
S'ROCKET_FUEL'
p4659
sS'asn'
p4660
I3257
ssg11
(tRp4661
S'SAT_RATE'
p4662
g11
(tRp4663
S'MEAN_CACHE_HIT'
p4664
F0.61086916666666669
sS'MEAN_SERVER_HIT'
p4665
F0.38848333333333335
sS'MEAN'
p4666
F0.99935249999999998
ssS'CACHE_HIT_RATIO'
p4667
g11
(tRp4668
S'MEAN_OFF_PATH'
p4669
F0.33526533645542711
sS'MEAN_ON_PATH'
p4670
F0.27560383021123958
sg4666
F0.61086916666666669
ssS'OVERHEAD'
p4671
g11
(tRp4672
g4666
F7.4115327777777775
ssS'LATENCY'
p4673
g11
(tRp4674
g4666
F60.190075741883767
sstp4675
a(g11
(tRp4676
S'workload'
p4677
g11
(tRp4678
S'n_contents'
p4679
I10000
sS'name'
p4680
S'STATIONARY'
p4681
sS'n_warmup'
p4682
I360000
sS'rate'
p4683
I1000
sS'n_measured'
p4684
I3600000
sS'alpha'
p4685
F0.80000000000000004
ssS'cache_policy'
p4686
g11
(tRp4687
g4680
S'LRU'
p4688
ssS'desc'
p4689
S'caching probability: 0.1'
p4690
sS'strategy'
p4691
g11
(tRp4692
S'extra_quota'
p4693
I5
sS'rsn_fresh'
p4694
F5
sg4680
S'LIRA_DFIB_OPH'
p4695
sS'p'
F0.10000000000000001
ssS'content_placement'
p4696
g11
(tRp4697
g4680
S'LOWEST_DEGREE'
p4698
ssS'joint_cache_rsn_placement'
p4699
g11
(tRp4700
S'network_cache'
p4701
F0.94999999999999996
sS'network_rsn'
p4702
F60.799999999999997
sg4680
S'CACHE_ALL_RSN_ALL'
p4703
sS'rsn_cache_ratio'
p4704
I64
ssS'warmup_strategy'
p4705
g11
(tRp4706
S'p'
F0.10000000000000001
sg4680
S'NDN'
p4707
ssS'topology'
p4708
g11
(tRp4709
S'ext_delay'
p4710
I5
sS'source_ratio'
p4711
F0.10000000000000001
sg4680
S'ROCKET_FUEL'
p4712
sS'asn'
p4713
I3257
ssg11
(tRp4714
S'SAT_RATE'
p4715
g11
(tRp4716
S'MEAN_CACHE_HIT'
p4717
F0.61095333333333335
sS'MEAN_SERVER_HIT'
p4718
F0.38892611111111108
sS'MEAN'
p4719
F0.99987944444444443
ssS'CACHE_HIT_RATIO'
p4720
g11
(tRp4721
S'MEAN_OFF_PATH'
p4722
F0.32432329341778982
sS'MEAN_ON_PATH'
p4723
F0.28663003991554353
sg4719
F0.61095333333333335
ssS'OVERHEAD'
p4724
g11
(tRp4725
g4719
F7.5705324999999997
ssS'LATENCY'
p4726
g11
(tRp4727
g4719
F60.167812632649337
sstp4728
a(g11
(tRp4729
S'workload'
p4730
g11
(tRp4731
S'n_contents'
p4732
I10000
sS'name'
p4733
S'STATIONARY'
p4734
sS'n_warmup'
p4735
I360000
sS'rate'
p4736
I1000
sS'n_measured'
p4737
I3600000
sS'alpha'
p4738
F0.80000000000000004
ssS'cache_policy'
p4739
g11
(tRp4740
g4733
S'LRU'
p4741
ssS'desc'
p4742
S'caching probability: 0.25'
p4743
sS'strategy'
p4744
g11
(tRp4745
S'extra_quota'
p4746
I0
sS'rsn_fresh'
p4747
F5
sg4733
S'LIRA_DFIB_OPH'
p4748
sS'p'
F0.25
ssS'content_placement'
p4749
g11
(tRp4750
g4733
S'LOWEST_DEGREE'
p4751
ssS'joint_cache_rsn_placement'
p4752
g11
(tRp4753
S'network_cache'
p4754
F0.94999999999999996
sS'network_rsn'
p4755
F60.799999999999997
sg4733
S'CACHE_ALL_RSN_ALL'
p4756
sS'rsn_cache_ratio'
p4757
I64
ssS'warmup_strategy'
p4758
g11
(tRp4759
S'p'
F0.10000000000000001
sg4733
S'NDN'
p4760
ssS'topology'
p4761
g11
(tRp4762
S'ext_delay'
p4763
I5
sS'source_ratio'
p4764
F0.10000000000000001
sg4733
S'ROCKET_FUEL'
p4765
sS'asn'
p4766
I3257
ssg11
(tRp4767
S'SAT_RATE'
p4768
g11
(tRp4769
S'MEAN_CACHE_HIT'
p4770
F0.5967136111111111
sS'MEAN_SERVER_HIT'
p4771
F0.23024749999999999
sS'MEAN'
p4772
F0.82696111111111115
ssS'CACHE_HIT_RATIO'
p4773
g11
(tRp4774
S'MEAN_OFF_PATH'
p4775
F0.5368257792369725
sS'MEAN_ON_PATH'
p4776
F0.059887831874138597
sg4772
F0.5967136111111111
ssS'OVERHEAD'
p4777
g11
(tRp4778
g4772
F4.8673833333333336
ssS'LATENCY'
p4779
g11
(tRp4780
g4772
F37.519073347717921
sstp4781
a(g11
(tRp4782
S'workload'
p4783
g11
(tRp4784
S'n_contents'
p4785
I10000
sS'name'
p4786
S'STATIONARY'
p4787
sS'n_warmup'
p4788
I360000
sS'rate'
p4789
I1000
sS'n_measured'
p4790
I3600000
sS'alpha'
p4791
F0.80000000000000004
ssS'cache_policy'
p4792
g11
(tRp4793
g4786
S'LRU'
p4794
ssS'desc'
p4795
S'caching probability: 0.1'
p4796
sS'strategy'
p4797
g11
(tRp4798
S'extra_quota'
p4799
I4
sS'rsn_fresh'
p4800
F5
sg4786
S'LIRA_DFIB_OPH'
p4801
sS'p'
F0.10000000000000001
ssS'content_placement'
p4802
g11
(tRp4803
g4786
S'LOWEST_DEGREE'
p4804
ssS'joint_cache_rsn_placement'
p4805
g11
(tRp4806
S'network_cache'
p4807
F0.94999999999999996
sS'network_rsn'
p4808
F60.799999999999997
sg4786
S'CACHE_ALL_RSN_ALL'
p4809
sS'rsn_cache_ratio'
p4810
I64
ssS'warmup_strategy'
p4811
g11
(tRp4812
S'p'
F0.10000000000000001
sg4786
S'NDN'
p4813
ssS'topology'
p4814
g11
(tRp4815
S'ext_delay'
p4816
I5
sS'source_ratio'
p4817
F0.10000000000000001
sg4786
S'ROCKET_FUEL'
p4818
sS'asn'
p4819
I3257
ssg11
(tRp4820
S'SAT_RATE'
p4821
g11
(tRp4822
S'MEAN_CACHE_HIT'
p4823
F0.61242972222222225
sS'MEAN_SERVER_HIT'
p4824
F0.38730472222222223
sS'MEAN'
p4825
F0.99973444444444448
ssS'CACHE_HIT_RATIO'
p4826
g11
(tRp4827
S'MEAN_OFF_PATH'
p4828
F0.32933175893013433
sS'MEAN_ON_PATH'
p4829
F0.28309796329208792
sg4825
F0.61242972222222225
ssS'OVERHEAD'
p4830
g11
(tRp4831
g4825
F7.5628969444444447
ssS'LATENCY'
p4832
g11
(tRp4833
g4825
F60.024961007374984
sstp4834
a(g11
(tRp4835
S'workload'
p4836
g11
(tRp4837
S'n_contents'
p4838
I10000
sS'name'
p4839
S'STATIONARY'
p4840
sS'n_warmup'
p4841
I360000
sS'rate'
p4842
I1000
sS'n_measured'
p4843
I3600000
sS'alpha'
p4844
F0.80000000000000004
ssS'cache_policy'
p4845
g11
(tRp4846
g4839
S'LRU'
p4847
ssS'desc'
p4848
S'caching probability: 0.25'
p4849
sS'strategy'
p4850
g11
(tRp4851
S'extra_quota'
p4852
I1
sS'rsn_fresh'
p4853
F5
sg4839
S'LIRA_DFIB_OPH'
p4854
sS'p'
F0.25
ssS'content_placement'
p4855
g11
(tRp4856
g4839
S'LOWEST_DEGREE'
p4857
ssS'joint_cache_rsn_placement'
p4858
g11
(tRp4859
S'network_cache'
p4860
F0.94999999999999996
sS'network_rsn'
p4861
F60.799999999999997
sg4839
S'CACHE_ALL_RSN_ALL'
p4862
sS'rsn_cache_ratio'
p4863
I64
ssS'warmup_strategy'
p4864
g11
(tRp4865
S'p'
F0.10000000000000001
sg4839
S'NDN'
p4866
ssS'topology'
p4867
g11
(tRp4868
S'ext_delay'
p4869
I5
sS'source_ratio'
p4870
F0.10000000000000001
sg4839
S'ROCKET_FUEL'
p4871
sS'asn'
p4872
I3257
ssg11
(tRp4873
S'SAT_RATE'
p4874
g11
(tRp4875
S'MEAN_CACHE_HIT'
p4876
F0.6130094444444445
sS'MEAN_SERVER_HIT'
p4877
F0.35396
sS'MEAN'
p4878
F0.96696944444444444
ssS'CACHE_HIT_RATIO'
p4879
g11
(tRp4880
S'MEAN_OFF_PATH'
p4881
F0.39690309749302305
sS'MEAN_ON_PATH'
p4882
F0.21610634695142145
sg4878
F0.6130094444444445
ssS'OVERHEAD'
p4883
g11
(tRp4884
g4878
F6.6545427777777775
ssS'LATENCY'
p4885
g11
(tRp4886
g4878
F55.438600226281572
sstp4887
a(g11
(tRp4888
S'workload'
p4889
g11
(tRp4890
S'n_contents'
p4891
I10000
sS'name'
p4892
S'STATIONARY'
p4893
sS'n_warmup'
p4894
I360000
sS'rate'
p4895
I1000
sS'n_measured'
p4896
I3600000
sS'alpha'
p4897
F0.80000000000000004
ssS'cache_policy'
p4898
g11
(tRp4899
g4892
S'LRU'
p4900
ssS'desc'
p4901
S'caching probability: 0.25'
p4902
sS'strategy'
p4903
g11
(tRp4904
S'extra_quota'
p4905
I2
sS'rsn_fresh'
p4906
F5
sg4892
S'LIRA_DFIB_OPH'
p4907
sS'p'
F0.25
ssS'content_placement'
p4908
g11
(tRp4909
g4892
S'LOWEST_DEGREE'
p4910
ssS'joint_cache_rsn_placement'
p4911
g11
(tRp4912
S'network_cache'
p4913
F0.94999999999999996
sS'network_rsn'
p4914
F60.799999999999997
sg4892
S'CACHE_ALL_RSN_ALL'
p4915
sS'rsn_cache_ratio'
p4916
I64
ssS'warmup_strategy'
p4917
g11
(tRp4918
S'p'
F0.10000000000000001
sg4892
S'NDN'
p4919
ssS'topology'
p4920
g11
(tRp4921
S'ext_delay'
p4922
I5
sS'source_ratio'
p4923
F0.10000000000000001
sg4892
S'ROCKET_FUEL'
p4924
sS'asn'
p4925
I3257
ssg11
(tRp4926
S'SAT_RATE'
p4927
g11
(tRp4928
S'MEAN_CACHE_HIT'
p4929
F0.62513194444444442
sS'MEAN_SERVER_HIT'
p4930
F0.37181833333333331
sS'MEAN'
p4931
F0.99695027777777778
ssS'CACHE_HIT_RATIO'
p4932
g11
(tRp4933
S'MEAN_OFF_PATH'
p4934
F0.3672794992788832
sS'MEAN_ON_PATH'
p4935
F0.25785244516556122
sg4931
F0.62513194444444442
ssS'OVERHEAD'
p4936
g11
(tRp4937
g4931
F7.3302969444444441
ssS'LATENCY'
p4938
g11
(tRp4939
g4931
F58.375648292646225
sstp4940
a(g11
(tRp4941
S'workload'
p4942
g11
(tRp4943
S'n_contents'
p4944
I10000
sS'name'
p4945
S'STATIONARY'
p4946
sS'n_warmup'
p4947
I360000
sS'rate'
p4948
I1000
sS'n_measured'
p4949
I3600000
sS'alpha'
p4950
F0.80000000000000004
ssS'cache_policy'
p4951
g11
(tRp4952
g4945
S'LRU'
p4953
ssS'desc'
p4954
S'caching probability: 0.25'
p4955
sS'strategy'
p4956
g11
(tRp4957
S'extra_quota'
p4958
I3
sS'rsn_fresh'
p4959
F5
sg4945
S'LIRA_DFIB_OPH'
p4960
sS'p'
F0.25
ssS'content_placement'
p4961
g11
(tRp4962
g4945
S'LOWEST_DEGREE'
p4963
ssS'joint_cache_rsn_placement'
p4964
g11
(tRp4965
S'network_cache'
p4966
F0.94999999999999996
sS'network_rsn'
p4967
F60.799999999999997
sg4945
S'CACHE_ALL_RSN_ALL'
p4968
sS'rsn_cache_ratio'
p4969
I64
ssS'warmup_strategy'
p4970
g11
(tRp4971
S'p'
F0.10000000000000001
sg4945
S'NDN'
p4972
ssS'topology'
p4973
g11
(tRp4974
S'ext_delay'
p4975
I5
sS'source_ratio'
p4976
F0.10000000000000001
sg4945
S'ROCKET_FUEL'
p4977
sS'asn'
p4978
I3257
ssg11
(tRp4979
S'SAT_RATE'
p4980
g11
(tRp4981
S'MEAN_CACHE_HIT'
p4982
F0.62894638888888887
sS'MEAN_SERVER_HIT'
p4983
F0.37044388888888891
sS'MEAN'
p4984
F0.99939027777777778
ssS'CACHE_HIT_RATIO'
p4985
g11
(tRp4986
S'MEAN_OFF_PATH'
p4987
F0.35241076420162193
sS'MEAN_ON_PATH'
p4988
F0.27653562468726695
sg4984
F0.62894638888888887
ssS'OVERHEAD'
p4989
g11
(tRp4990
g4984
F7.6182677777777776
ssS'LATENCY'
p4991
g11
(tRp4992
g4984
F58.288707567018925
sstp4993
a(g11
(tRp4994
S'workload'
p4995
g11
(tRp4996
S'n_contents'
p4997
I10000
sS'name'
p4998
S'STATIONARY'
p4999
sS'n_warmup'
p5000
I360000
sS'rate'
p5001
I1000
sS'n_measured'
p5002
I3600000
sS'alpha'
p5003
F0.80000000000000004
ssS'cache_policy'
p5004
g11
(tRp5005
g4998
S'LRU'
p5006
ssS'desc'
p5007
S'caching probability: 0.33'
p5008
sS'strategy'
p5009
g11
(tRp5010
S'extra_quota'
p5011
I0
sS'rsn_fresh'
p5012
F5
sg4998
S'LIRA_DFIB_OPH'
p5013
sS'p'
F0.33000000000000002
ssS'content_placement'
p5014
g11
(tRp5015
g4998
S'LOWEST_DEGREE'
p5016
ssS'joint_cache_rsn_placement'
p5017
g11
(tRp5018
S'network_cache'
p5019
F0.94999999999999996
sS'network_rsn'
p5020
F60.799999999999997
sg4998
S'CACHE_ALL_RSN_ALL'
p5021
sS'rsn_cache_ratio'
p5022
I64
ssS'warmup_strategy'
p5023
g11
(tRp5024
S'p'
F0.10000000000000001
sg4998
S'NDN'
p5025
ssS'topology'
p5026
g11
(tRp5027
S'ext_delay'
p5028
I5
sS'source_ratio'
p5029
F0.10000000000000001
sg4998
S'ROCKET_FUEL'
p5030
sS'asn'
p5031
I3257
ssg11
(tRp5032
S'SAT_RATE'
p5033
g11
(tRp5034
S'MEAN_CACHE_HIT'
p5035
F0.60043999999999997
sS'MEAN_SERVER_HIT'
p5036
F0.22964166666666666
sS'MEAN'
p5037
F0.83008166666666672
ssS'CACHE_HIT_RATIO'
p5038
g11
(tRp5039
S'MEAN_OFF_PATH'
p5040
F0.54441004837741069
sS'MEAN_ON_PATH'
p5041
F0.05602995162258928
sg5037
F0.60043999999999997
ssS'OVERHEAD'
p5042
g11
(tRp5043
g5037
F4.8994688888888893
ssS'LATENCY'
p5044
g11
(tRp5045
g5037
F37.486502712040007
sstp5046
a(g11
(tRp5047
S'workload'
p5048
g11
(tRp5049
S'n_contents'
p5050
I10000
sS'name'
p5051
S'STATIONARY'
p5052
sS'n_warmup'
p5053
I360000
sS'rate'
p5054
I1000
sS'n_measured'
p5055
I3600000
sS'alpha'
p5056
F0.80000000000000004
ssS'cache_policy'
p5057
g11
(tRp5058
g5051
S'LRU'
p5059
ssS'desc'
p5060
S'caching probability: 0.25'
p5061
sS'strategy'
p5062
g11
(tRp5063
S'extra_quota'
p5064
I4
sS'rsn_fresh'
p5065
F5
sg5051
S'LIRA_DFIB_OPH'
p5066
sS'p'
F0.25
ssS'content_placement'
p5067
g11
(tRp5068
g5051
S'LOWEST_DEGREE'
p5069
ssS'joint_cache_rsn_placement'
p5070
g11
(tRp5071
S'network_cache'
p5072
F0.94999999999999996
sS'network_rsn'
p5073
F60.799999999999997
sg5051
S'CACHE_ALL_RSN_ALL'
p5074
sS'rsn_cache_ratio'
p5075
I64
ssS'warmup_strategy'
p5076
g11
(tRp5077
S'p'
F0.10000000000000001
sg5051
S'NDN'
p5078
ssS'topology'
p5079
g11
(tRp5080
S'ext_delay'
p5081
I5
sS'source_ratio'
p5082
F0.10000000000000001
sg5051
S'ROCKET_FUEL'
p5083
sS'asn'
p5084
I3257
ssg11
(tRp5085
S'SAT_RATE'
p5086
g11
(tRp5087
S'MEAN_CACHE_HIT'
p5088
F0.62827999999999995
sS'MEAN_SERVER_HIT'
p5089
F0.37148583333333335
sS'MEAN'
p5090
F0.99976583333333335
ssS'CACHE_HIT_RATIO'
p5091
g11
(tRp5092
S'MEAN_OFF_PATH'
p5093
F0.34301436344144298
sS'MEAN_ON_PATH'
p5094
F0.28526563655855697
sg5090
F0.62827999999999995
ssS'OVERHEAD'
p5095
g11
(tRp5096
g5090
F7.7047855555555556
ssS'LATENCY'
p5097
g11
(tRp5098
g5090
F58.328843607100808
sstp5099
a(g11
(tRp5100
S'workload'
p5101
g11
(tRp5102
S'n_contents'
p5103
I10000
sS'name'
p5104
S'STATIONARY'
p5105
sS'n_warmup'
p5106
I360000
sS'rate'
p5107
I1000
sS'n_measured'
p5108
I3600000
sS'alpha'
p5109
F0.80000000000000004
ssS'cache_policy'
p5110
g11
(tRp5111
g5104
S'LRU'
p5112
ssS'desc'
p5113
S'caching probability: 0.33'
p5114
sS'strategy'
p5115
g11
(tRp5116
S'extra_quota'
p5117
I1
sS'rsn_fresh'
p5118
F5
sg5104
S'LIRA_DFIB_OPH'
p5119
sS'p'
F0.33000000000000002
ssS'content_placement'
p5120
g11
(tRp5121
g5104
S'LOWEST_DEGREE'
p5122
ssS'joint_cache_rsn_placement'
p5123
g11
(tRp5124
S'network_cache'
p5125
F0.94999999999999996
sS'network_rsn'
p5126
F60.799999999999997
sg5104
S'CACHE_ALL_RSN_ALL'
p5127
sS'rsn_cache_ratio'
p5128
I64
ssS'warmup_strategy'
p5129
g11
(tRp5130
S'p'
F0.10000000000000001
sg5104
S'NDN'
p5131
ssS'topology'
p5132
g11
(tRp5133
S'ext_delay'
p5134
I5
sS'source_ratio'
p5135
F0.10000000000000001
sg5104
S'ROCKET_FUEL'
p5136
sS'asn'
p5137
I3257
ssg11
(tRp5138
S'SAT_RATE'
p5139
g11
(tRp5140
S'MEAN_CACHE_HIT'
p5141
F0.61769111111111108
sS'MEAN_SERVER_HIT'
p5142
F0.35061361111111111
sS'MEAN'
p5143
F0.96830472222222219
ssS'CACHE_HIT_RATIO'
p5144
g11
(tRp5145
S'MEAN_OFF_PATH'
p5146
F0.40054089815265831
sS'MEAN_ON_PATH'
p5147
F0.21715021295845277
sg5143
F0.61769111111111108
ssS'OVERHEAD'
p5148
g11
(tRp5149
g5143
F6.7320236111111109
ssS'LATENCY'
p5150
g11
(tRp5151
g5143
F55.064446450628786
sstp5152
a(g11
(tRp5153
S'workload'
p5154
g11
(tRp5155
S'n_contents'
p5156
I10000
sS'name'
p5157
S'STATIONARY'
p5158
sS'n_warmup'
p5159
I360000
sS'rate'
p5160
I1000
sS'n_measured'
p5161
I3600000
sS'alpha'
p5162
F0.80000000000000004
ssS'cache_policy'
p5163
g11
(tRp5164
g5157
S'LRU'
p5165
ssS'desc'
p5166
S'caching probability: 0.25'
p5167
sS'strategy'
p5168
g11
(tRp5169
S'extra_quota'
p5170
I5
sS'rsn_fresh'
p5171
F5
sg5157
S'LIRA_DFIB_OPH'
p5172
sS'p'
F0.25
ssS'content_placement'
p5173
g11
(tRp5174
g5157
S'LOWEST_DEGREE'
p5175
ssS'joint_cache_rsn_placement'
p5176
g11
(tRp5177
S'network_cache'
p5178
F0.94999999999999996
sS'network_rsn'
p5179
F60.799999999999997
sg5157
S'CACHE_ALL_RSN_ALL'
p5180
sS'rsn_cache_ratio'
p5181
I64
ssS'warmup_strategy'
p5182
g11
(tRp5183
S'p'
F0.10000000000000001
sg5157
S'NDN'
p5184
ssS'topology'
p5185
g11
(tRp5186
S'ext_delay'
p5187
I5
sS'source_ratio'
p5188
F0.10000000000000001
sg5157
S'ROCKET_FUEL'
p5189
sS'asn'
p5190
I3257
ssg11
(tRp5191
S'SAT_RATE'
p5192
g11
(tRp5193
S'MEAN_CACHE_HIT'
p5194
F0.6299461111111111
sS'MEAN_SERVER_HIT'
p5195
F0.36992805555555558
sS'MEAN'
p5196
F0.99987416666666662
ssS'CACHE_HIT_RATIO'
p5197
g11
(tRp5198
S'MEAN_OFF_PATH'
p5199
F0.34037093381512734
sS'MEAN_ON_PATH'
p5200
F0.28957517729598375
sg5196
F0.6299461111111111
ssS'OVERHEAD'
p5201
g11
(tRp5202
g5196
F7.7604127777777778
ssS'LATENCY'
p5203
g11
(tRp5204
g5196
F58.268344592246493
sstp5205
a(g11
(tRp5206
S'workload'
p5207
g11
(tRp5208
S'n_contents'
p5209
I10000
sS'name'
p5210
S'STATIONARY'
p5211
sS'n_warmup'
p5212
I360000
sS'rate'
p5213
I1000
sS'n_measured'
p5214
I3600000
sS'alpha'
p5215
F0.80000000000000004
ssS'cache_policy'
p5216
g11
(tRp5217
g5210
S'LRU'
p5218
ssS'desc'
p5219
S'caching probability: 0.5'
p5220
sS'strategy'
p5221
g11
(tRp5222
S'extra_quota'
p5223
I0
sS'rsn_fresh'
p5224
F5
sg5210
S'LIRA_DFIB_OPH'
p5225
sS'p'
F0.5
ssS'content_placement'
p5226
g11
(tRp5227
g5210
S'LOWEST_DEGREE'
p5228
ssS'joint_cache_rsn_placement'
p5229
g11
(tRp5230
S'network_cache'
p5231
F0.94999999999999996
sS'network_rsn'
p5232
F60.799999999999997
sg5210
S'CACHE_ALL_RSN_ALL'
p5233
sS'rsn_cache_ratio'
p5234
I64
ssS'warmup_strategy'
p5235
g11
(tRp5236
S'p'
F0.10000000000000001
sg5210
S'NDN'
p5237
ssS'topology'
p5238
g11
(tRp5239
S'ext_delay'
p5240
I5
sS'source_ratio'
p5241
F0.10000000000000001
sg5210
S'ROCKET_FUEL'
p5242
sS'asn'
p5243
I3257
ssg11
(tRp5244
S'SAT_RATE'
p5245
g11
(tRp5246
S'MEAN_CACHE_HIT'
p5247
F0.60439583333333335
sS'MEAN_SERVER_HIT'
p5248
F0.22875722222222222
sS'MEAN'
p5249
F0.83315305555555552
ssS'CACHE_HIT_RATIO'
p5250
g11
(tRp5251
S'MEAN_OFF_PATH'
p5252
F0.55746591532930745
sS'MEAN_ON_PATH'
p5253
F0.046929918004025906
sg5249
F0.60439583333333335
ssS'OVERHEAD'
p5254
g11
(tRp5255
g5249
F4.9795108333333333
ssS'LATENCY'
p5256
g11
(tRp5257
g5249
F37.567894105789222
sstp5258
a(g11
(tRp5259
S'workload'
p5260
g11
(tRp5261
S'n_contents'
p5262
I10000
sS'name'
p5263
S'STATIONARY'
p5264
sS'n_warmup'
p5265
I360000
sS'rate'
p5266
I1000
sS'n_measured'
p5267
I3600000
sS'alpha'
p5268
F0.80000000000000004
ssS'cache_policy'
p5269
g11
(tRp5270
g5263
S'LRU'
p5271
ssS'desc'
p5272
S'caching probability: 0.33'
p5273
sS'strategy'
p5274
g11
(tRp5275
S'extra_quota'
p5276
I2
sS'rsn_fresh'
p5277
F5
sg5263
S'LIRA_DFIB_OPH'
p5278
sS'p'
F0.33000000000000002
ssS'content_placement'
p5279
g11
(tRp5280
g5263
S'LOWEST_DEGREE'
p5281
ssS'joint_cache_rsn_placement'
p5282
g11
(tRp5283
S'network_cache'
p5284
F0.94999999999999996
sS'network_rsn'
p5285
F60.799999999999997
sg5263
S'CACHE_ALL_RSN_ALL'
p5286
sS'rsn_cache_ratio'
p5287
I64
ssS'warmup_strategy'
p5288
g11
(tRp5289
S'p'
F0.10000000000000001
sg5263
S'NDN'
p5290
ssS'topology'
p5291
g11
(tRp5292
S'ext_delay'
p5293
I5
sS'source_ratio'
p5294
F0.10000000000000001
sg5263
S'ROCKET_FUEL'
p5295
sS'asn'
p5296
I3257
ssg11
(tRp5297
S'SAT_RATE'
p5298
g11
(tRp5299
S'MEAN_CACHE_HIT'
p5300
F0.63047055555555553
sS'MEAN_SERVER_HIT'
p5301
F0.36657527777777776
sS'MEAN'
p5302
F0.9970458333333333
ssS'CACHE_HIT_RATIO'
p5303
g11
(tRp5304
S'MEAN_OFF_PATH'
p5305
F0.37066494114669296
sS'MEAN_ON_PATH'
p5306
F0.25980561440886257
sg5302
F0.63047055555555553
ssS'OVERHEAD'
p5307
g11
(tRp5308
g5302
F7.3637325000000002
ssS'LATENCY'
p5309
g11
(tRp5310
g5302
F57.909083200194416
sstp5311
a(g11
(tRp5312
S'workload'
p5313
g11
(tRp5314
S'n_contents'
p5315
I10000
sS'name'
p5316
S'STATIONARY'
p5317
sS'n_warmup'
p5318
I360000
sS'rate'
p5319
I1000
sS'n_measured'
p5320
I3600000
sS'alpha'
p5321
F0.80000000000000004
ssS'cache_policy'
p5322
g11
(tRp5323
g5316
S'LRU'
p5324
ssS'desc'
p5325
S'caching probability: 0.33'
p5326
sS'strategy'
p5327
g11
(tRp5328
S'extra_quota'
p5329
I3
sS'rsn_fresh'
p5330
F5
sg5316
S'LIRA_DFIB_OPH'
p5331
sS'p'
F0.33000000000000002
ssS'content_placement'
p5332
g11
(tRp5333
g5316
S'LOWEST_DEGREE'
p5334
ssS'joint_cache_rsn_placement'
p5335
g11
(tRp5336
S'network_cache'
p5337
F0.94999999999999996
sS'network_rsn'
p5338
F60.799999999999997
sg5316
S'CACHE_ALL_RSN_ALL'
p5339
sS'rsn_cache_ratio'
p5340
I64
ssS'warmup_strategy'
p5341
g11
(tRp5342
S'p'
F0.10000000000000001
sg5316
S'NDN'
p5343
ssS'topology'
p5344
g11
(tRp5345
S'ext_delay'
p5346
I5
sS'source_ratio'
p5347
F0.10000000000000001
sg5316
S'ROCKET_FUEL'
p5348
sS'asn'
p5349
I3257
ssg11
(tRp5350
S'SAT_RATE'
p5351
g11
(tRp5352
S'MEAN_CACHE_HIT'
p5353
F0.63259555555555558
sS'MEAN_SERVER_HIT'
p5354
F0.36679
sS'MEAN'
p5355
F0.99938555555555553
ssS'CACHE_HIT_RATIO'
p5356
g11
(tRp5357
S'MEAN_OFF_PATH'
p5358
F0.35574730214672728
sS'MEAN_ON_PATH'
p5359
F0.27684825340882829
sg5355
F0.63259555555555558
ssS'OVERHEAD'
p5360
g11
(tRp5361
g5355
F7.6347149999999999
ssS'LATENCY'
p5362
g11
(tRp5363
g5355
F57.939495017809463
sstp5364
a(g11
(tRp5365
S'workload'
p5366
g11
(tRp5367
S'n_contents'
p5368
I10000
sS'name'
p5369
S'STATIONARY'
p5370
sS'n_warmup'
p5371
I360000
sS'rate'
p5372
I1000
sS'n_measured'
p5373
I3600000
sS'alpha'
p5374
F0.80000000000000004
ssS'cache_policy'
p5375
g11
(tRp5376
g5369
S'LRU'
p5377
ssS'desc'
p5378
S'caching probability: 0.33'
p5379
sS'strategy'
p5380
g11
(tRp5381
S'extra_quota'
p5382
I4
sS'rsn_fresh'
p5383
F5
sg5369
S'LIRA_DFIB_OPH'
p5384
sS'p'
F0.33000000000000002
ssS'content_placement'
p5385
g11
(tRp5386
g5369
S'LOWEST_DEGREE'
p5387
ssS'joint_cache_rsn_placement'
p5388
g11
(tRp5389
S'network_cache'
p5390
F0.94999999999999996
sS'network_rsn'
p5391
F60.799999999999997
sg5369
S'CACHE_ALL_RSN_ALL'
p5392
sS'rsn_cache_ratio'
p5393
I64
ssS'warmup_strategy'
p5394
g11
(tRp5395
S'p'
F0.10000000000000001
sg5369
S'NDN'
p5396
ssS'topology'
p5397
g11
(tRp5398
S'ext_delay'
p5399
I5
sS'source_ratio'
p5400
F0.10000000000000001
sg5369
S'ROCKET_FUEL'
p5401
sS'asn'
p5402
I3257
ssg11
(tRp5403
S'SAT_RATE'
p5404
g11
(tRp5405
S'MEAN_CACHE_HIT'
p5406
F0.63386694444444447
sS'MEAN_SERVER_HIT'
p5407
F0.3658886111111111
sS'MEAN'
p5408
F0.99975555555555551
ssS'CACHE_HIT_RATIO'
p5409
g11
(tRp5410
S'MEAN_OFF_PATH'
p5411
F0.34882263798462027
sS'MEAN_ON_PATH'
p5412
F0.2850443064598242
sg5408
F0.63386694444444447
ssS'OVERHEAD'
p5413
g11
(tRp5414
g5408
F7.7828519444444444
ssS'LATENCY'
p5415
g11
(tRp5416
g5408
F57.887118686395169
sstp5417
a(g11
(tRp5418
S'workload'
p5419
g11
(tRp5420
S'n_contents'
p5421
I10000
sS'name'
p5422
S'STATIONARY'
p5423
sS'n_warmup'
p5424
I360000
sS'rate'
p5425
I1000
sS'n_measured'
p5426
I3600000
sS'alpha'
p5427
F0.80000000000000004
ssS'cache_policy'
p5428
g11
(tRp5429
g5422
S'LRU'
p5430
ssS'desc'
p5431
S'caching probability: 0.5'
p5432
sS'strategy'
p5433
g11
(tRp5434
S'extra_quota'
p5435
I1
sS'rsn_fresh'
p5436
F5
sg5422
S'LIRA_DFIB_OPH'
p5437
sS'p'
F0.5
ssS'content_placement'
p5438
g11
(tRp5439
g5422
S'LOWEST_DEGREE'
p5440
ssS'joint_cache_rsn_placement'
p5441
g11
(tRp5442
S'network_cache'
p5443
F0.94999999999999996
sS'network_rsn'
p5444
F60.799999999999997
sg5422
S'CACHE_ALL_RSN_ALL'
p5445
sS'rsn_cache_ratio'
p5446
I64
ssS'warmup_strategy'
p5447
g11
(tRp5448
S'p'
F0.10000000000000001
sg5422
S'NDN'
p5449
ssS'topology'
p5450
g11
(tRp5451
S'ext_delay'
p5452
I5
sS'source_ratio'
p5453
F0.10000000000000001
sg5422
S'ROCKET_FUEL'
p5454
sS'asn'
p5455
I3257
ssg11
(tRp5456
S'SAT_RATE'
p5457
g11
(tRp5458
S'MEAN_CACHE_HIT'
p5459
F0.62273638888888894
sS'MEAN_SERVER_HIT'
p5460
F0.34674555555555553
sS'MEAN'
p5461
F0.96948194444444447
ssS'CACHE_HIT_RATIO'
p5462
g11
(tRp5463
S'MEAN_OFF_PATH'
p5464
F0.40817005654542565
sS'MEAN_ON_PATH'
p5465
F0.21456633234346328
sg5461
F0.62273638888888894
ssS'OVERHEAD'
p5466
g11
(tRp5467
g5461
F6.8279480555555558
ssS'LATENCY'
p5468
g11
(tRp5469
g5461
F54.749556004380146
sstp5470
a(g11
(tRp5471
S'workload'
p5472
g11
(tRp5473
S'n_contents'
p5474
I10000
sS'name'
p5475
S'STATIONARY'
p5476
sS'n_warmup'
p5477
I360000
sS'rate'
p5478
I1000
sS'n_measured'
p5479
I3600000
sS'alpha'
p5480
F0.80000000000000004
ssS'cache_policy'
p5481
g11
(tRp5482
g5475
S'LRU'
p5483
ssS'desc'
p5484
S'caching probability: 0.33'
p5485
sS'strategy'
p5486
g11
(tRp5487
S'extra_quota'
p5488
I5
sS'rsn_fresh'
p5489
F5
sg5475
S'LIRA_DFIB_OPH'
p5490
sS'p'
F0.33000000000000002
ssS'content_placement'
p5491
g11
(tRp5492
g5475
S'LOWEST_DEGREE'
p5493
ssS'joint_cache_rsn_placement'
p5494
g11
(tRp5495
S'network_cache'
p5496
F0.94999999999999996
sS'network_rsn'
p5497
F60.799999999999997
sg5475
S'CACHE_ALL_RSN_ALL'
p5498
sS'rsn_cache_ratio'
p5499
I64
ssS'warmup_strategy'
p5500
g11
(tRp5501
S'p'
F0.10000000000000001
sg5475
S'NDN'
p5502
ssS'topology'
p5503
g11
(tRp5504
S'ext_delay'
p5505
I5
sS'source_ratio'
p5506
F0.10000000000000001
sg5475
S'ROCKET_FUEL'
p5507
sS'asn'
p5508
I3257
ssg11
(tRp5509
S'SAT_RATE'
p5510
g11
(tRp5511
S'MEAN_CACHE_HIT'
p5512
F0.63278472222222226
sS'MEAN_SERVER_HIT'
p5513
F0.36708472222222222
sS'MEAN'
p5514
F0.99986944444444448
ssS'CACHE_HIT_RATIO'
p5515
g11
(tRp5516
S'MEAN_OFF_PATH'
p5517
F0.34377494138289777
sS'MEAN_ON_PATH'
p5518
F0.28900978083932449
sg5514
F0.63278472222222226
ssS'OVERHEAD'
p5519
g11
(tRp5520
g5514
F7.8180788888888886
ssS'LATENCY'
p5521
g11
(tRp5522
g5514
F57.88486191596931
sstp5523
a(g11
(tRp5524
S'workload'
p5525
g11
(tRp5526
S'n_contents'
p5527
I10000
sS'name'
p5528
S'STATIONARY'
p5529
sS'n_warmup'
p5530
I360000
sS'rate'
p5531
I1000
sS'n_measured'
p5532
I3600000
sS'alpha'
p5533
F0.80000000000000004
ssS'cache_policy'
p5534
g11
(tRp5535
g5528
S'LRU'
p5536
ssS'desc'
p5537
S'caching probability: 0.5'
p5538
sS'strategy'
p5539
g11
(tRp5540
S'extra_quota'
p5541
I2
sS'rsn_fresh'
p5542
F5
sg5528
S'LIRA_DFIB_OPH'
p5543
sS'p'
F0.5
ssS'content_placement'
p5544
g11
(tRp5545
g5528
S'LOWEST_DEGREE'
p5546
ssS'joint_cache_rsn_placement'
p5547
g11
(tRp5548
S'network_cache'
p5549
F0.94999999999999996
sS'network_rsn'
p5550
F60.799999999999997
sg5528
S'CACHE_ALL_RSN_ALL'
p5551
sS'rsn_cache_ratio'
p5552
I64
ssS'warmup_strategy'
p5553
g11
(tRp5554
S'p'
F0.10000000000000001
sg5528
S'NDN'
p5555
ssS'topology'
p5556
g11
(tRp5557
S'ext_delay'
p5558
I5
sS'source_ratio'
p5559
F0.10000000000000001
sg5528
S'ROCKET_FUEL'
p5560
sS'asn'
p5561
I3257
ssg11
(tRp5562
S'SAT_RATE'
p5563
g11
(tRp5564
S'MEAN_CACHE_HIT'
p5565
F0.63398194444444445
sS'MEAN_SERVER_HIT'
p5566
F0.36313666666666666
sS'MEAN'
p5567
F0.99711861111111111
ssS'CACHE_HIT_RATIO'
p5568
g11
(tRp5569
S'MEAN_OFF_PATH'
p5570
F0.37696742440430275
sS'MEAN_ON_PATH'
p5571
F0.25701452004014169
sg5567
F0.63398194444444445
ssS'OVERHEAD'
p5572
g11
(tRp5573
g5567
F7.4590019444444442
ssS'LATENCY'
p5574
g11
(tRp5575
g5567
F57.556127332859703
sstp5576
a(g11
(tRp5577
S'workload'
p5578
g11
(tRp5579
S'n_contents'
p5580
I10000
sS'name'
p5581
S'STATIONARY'
p5582
sS'n_warmup'
p5583
I360000
sS'rate'
p5584
I1000
sS'n_measured'
p5585
I3600000
sS'alpha'
p5586
F0.80000000000000004
ssS'cache_policy'
p5587
g11
(tRp5588
g5581
S'LRU'
p5589
ssS'desc'
p5590
S'caching probability: 0.66'
p5591
sS'strategy'
p5592
g11
(tRp5593
S'extra_quota'
p5594
I0
sS'rsn_fresh'
p5595
F5
sg5581
S'LIRA_DFIB_OPH'
p5596
sS'p'
F0.66000000000000003
ssS'content_placement'
p5597
g11
(tRp5598
g5581
S'LOWEST_DEGREE'
p5599
ssS'joint_cache_rsn_placement'
p5600
g11
(tRp5601
S'network_cache'
p5602
F0.94999999999999996
sS'network_rsn'
p5603
F60.799999999999997
sg5581
S'CACHE_ALL_RSN_ALL'
p5604
sS'rsn_cache_ratio'
p5605
I64
ssS'warmup_strategy'
p5606
g11
(tRp5607
S'p'
F0.10000000000000001
sg5581
S'NDN'
p5608
ssS'topology'
p5609
g11
(tRp5610
S'ext_delay'
p5611
I5
sS'source_ratio'
p5612
F0.10000000000000001
sg5581
S'ROCKET_FUEL'
p5613
sS'asn'
p5614
I3257
ssg11
(tRp5615
S'SAT_RATE'
p5616
g11
(tRp5617
S'MEAN_CACHE_HIT'
p5618
F0.60665388888888894
sS'MEAN_SERVER_HIT'
p5619
F0.22785972222222223
sS'MEAN'
p5620
F0.83451361111111111
ssS'CACHE_HIT_RATIO'
p5621
g11
(tRp5622
S'MEAN_OFF_PATH'
p5623
F0.56513436909824999
sS'MEAN_ON_PATH'
p5624
F0.041519519790638948
sg5620
F0.60665388888888894
ssS'OVERHEAD'
p5625
g11
(tRp5626
g5620
F5.0496138888888886
ssS'LATENCY'
p5627
g11
(tRp5628
g5620
F37.490668257602294
sstp5629
a(g11
(tRp5630
S'workload'
p5631
g11
(tRp5632
S'n_contents'
p5633
I10000
sS'name'
p5634
S'STATIONARY'
p5635
sS'n_warmup'
p5636
I360000
sS'rate'
p5637
I1000
sS'n_measured'
p5638
I3600000
sS'alpha'
p5639
F0.80000000000000004
ssS'cache_policy'
p5640
g11
(tRp5641
g5634
S'LRU'
p5642
ssS'desc'
p5643
S'caching probability: 0.5'
p5644
sS'strategy'
p5645
g11
(tRp5646
S'extra_quota'
p5647
I4
sS'rsn_fresh'
p5648
F5
sg5634
S'LIRA_DFIB_OPH'
p5649
sS'p'
F0.5
ssS'content_placement'
p5650
g11
(tRp5651
g5634
S'LOWEST_DEGREE'
p5652
ssS'joint_cache_rsn_placement'
p5653
g11
(tRp5654
S'network_cache'
p5655
F0.94999999999999996
sS'network_rsn'
p5656
F60.799999999999997
sg5634
S'CACHE_ALL_RSN_ALL'
p5657
sS'rsn_cache_ratio'
p5658
I64
ssS'warmup_strategy'
p5659
g11
(tRp5660
S'p'
F0.10000000000000001
sg5634
S'NDN'
p5661
ssS'topology'
p5662
g11
(tRp5663
S'ext_delay'
p5664
I5
sS'source_ratio'
p5665
F0.10000000000000001
sg5634
S'ROCKET_FUEL'
p5666
sS'asn'
p5667
I3257
ssg11
(tRp5668
S'SAT_RATE'
p5669
g11
(tRp5670
S'MEAN_CACHE_HIT'
p5671
F0.63716055555555551
sS'MEAN_SERVER_HIT'
p5672
F0.36257027777777778
sS'MEAN'
p5673
F0.99973083333333335
ssS'CACHE_HIT_RATIO'
p5674
g11
(tRp5675
S'MEAN_OFF_PATH'
p5676
F0.35237279377770525
sS'MEAN_ON_PATH'
p5677
F0.28478776177785026
sg5673
F0.63716055555555551
ssS'OVERHEAD'
p5678
g11
(tRp5679
g5673
F7.8403427777777779
ssS'LATENCY'
p5680
g11
(tRp5681
g5673
F57.664775439819046
sstp5682
a(g11
(tRp5683
S'workload'
p5684
g11
(tRp5685
S'n_contents'
p5686
I10000
sS'name'
p5687
S'STATIONARY'
p5688
sS'n_warmup'
p5689
I360000
sS'rate'
p5690
I1000
sS'n_measured'
p5691
I3600000
sS'alpha'
p5692
F0.80000000000000004
ssS'cache_policy'
p5693
g11
(tRp5694
g5687
S'LRU'
p5695
ssS'desc'
p5696
S'caching probability: 0.5'
p5697
sS'strategy'
p5698
g11
(tRp5699
S'extra_quota'
p5700
I3
sS'rsn_fresh'
p5701
F5
sg5687
S'LIRA_DFIB_OPH'
p5702
sS'p'
F0.5
ssS'content_placement'
p5703
g11
(tRp5704
g5687
S'LOWEST_DEGREE'
p5705
ssS'joint_cache_rsn_placement'
p5706
g11
(tRp5707
S'network_cache'
p5708
F0.94999999999999996
sS'network_rsn'
p5709
F60.799999999999997
sg5687
S'CACHE_ALL_RSN_ALL'
p5710
sS'rsn_cache_ratio'
p5711
I64
ssS'warmup_strategy'
p5712
g11
(tRp5713
S'p'
F0.10000000000000001
sg5687
S'NDN'
p5714
ssS'topology'
p5715
g11
(tRp5716
S'ext_delay'
p5717
I5
sS'source_ratio'
p5718
F0.10000000000000001
sg5687
S'ROCKET_FUEL'
p5719
sS'asn'
p5720
I3257
ssg11
(tRp5721
S'SAT_RATE'
p5722
g11
(tRp5723
S'MEAN_CACHE_HIT'
p5724
F0.63751277777777782
sS'MEAN_SERVER_HIT'
p5725
F0.36185833333333334
sS'MEAN'
p5726
F0.9993711111111111
ssS'CACHE_HIT_RATIO'
p5727
g11
(tRp5728
S'MEAN_OFF_PATH'
p5729
F0.36123329242698893
sS'MEAN_ON_PATH'
p5730
F0.27627948535078889
sg5726
F0.63751277777777782
ssS'OVERHEAD'
p5731
g11
(tRp5732
g5726
F7.7329625000000002
ssS'LATENCY'
p5733
g11
(tRp5734
g5726
F57.610591742561347
sstp5735
a(g11
(tRp5736
S'workload'
p5737
g11
(tRp5738
S'n_contents'
p5739
I10000
sS'name'
p5740
S'STATIONARY'
p5741
sS'n_warmup'
p5742
I360000
sS'rate'
p5743
I1000
sS'n_measured'
p5744
I3600000
sS'alpha'
p5745
F0.80000000000000004
ssS'cache_policy'
p5746
g11
(tRp5747
g5740
S'LRU'
p5748
ssS'desc'
p5749
S'caching probability: 0.5'
p5750
sS'strategy'
p5751
g11
(tRp5752
S'extra_quota'
p5753
I5
sS'rsn_fresh'
p5754
F5
sg5740
S'LIRA_DFIB_OPH'
p5755
sS'p'
F0.5
ssS'content_placement'
p5756
g11
(tRp5757
g5740
S'LOWEST_DEGREE'
p5758
ssS'joint_cache_rsn_placement'
p5759
g11
(tRp5760
S'network_cache'
p5761
F0.94999999999999996
sS'network_rsn'
p5762
F60.799999999999997
sg5740
S'CACHE_ALL_RSN_ALL'
p5763
sS'rsn_cache_ratio'
p5764
I64
ssS'warmup_strategy'
p5765
g11
(tRp5766
S'p'
F0.10000000000000001
sg5740
S'NDN'
p5767
ssS'topology'
p5768
g11
(tRp5769
S'ext_delay'
p5770
I5
sS'source_ratio'
p5771
F0.10000000000000001
sg5740
S'ROCKET_FUEL'
p5772
sS'asn'
p5773
I3257
ssg11
(tRp5774
S'SAT_RATE'
p5775
g11
(tRp5776
S'MEAN_CACHE_HIT'
p5777
F0.63688916666666662
sS'MEAN_SERVER_HIT'
p5778
F0.36297916666666669
sS'MEAN'
p5779
F0.99986833333333336
ssS'CACHE_HIT_RATIO'
p5780
g11
(tRp5781
S'MEAN_OFF_PATH'
p5782
F0.34768701979533312
sS'MEAN_ON_PATH'
p5783
F0.2892021468713335
sg5779
F0.63688916666666662
ssS'OVERHEAD'
p5784
g11
(tRp5785
g5779
F7.8695044444444449
ssS'LATENCY'
p5786
g11
(tRp5787
g5779
F57.652497392512409
sstp5788
a(g11
(tRp5789
S'workload'
p5790
g11
(tRp5791
S'n_contents'
p5792
I10000
sS'name'
p5793
S'STATIONARY'
p5794
sS'n_warmup'
p5795
I360000
sS'rate'
p5796
I1000
sS'n_measured'
p5797
I3600000
sS'alpha'
p5798
F0.80000000000000004
ssS'cache_policy'
p5799
g11
(tRp5800
g5793
S'LRU'
p5801
ssS'desc'
p5802
S'caching probability: 0.66'
p5803
sS'strategy'
p5804
g11
(tRp5805
S'extra_quota'
p5806
I1
sS'rsn_fresh'
p5807
F5
sg5793
S'LIRA_DFIB_OPH'
p5808
sS'p'
F0.66000000000000003
ssS'content_placement'
p5809
g11
(tRp5810
g5793
S'LOWEST_DEGREE'
p5811
ssS'joint_cache_rsn_placement'
p5812
g11
(tRp5813
S'network_cache'
p5814
F0.94999999999999996
sS'network_rsn'
p5815
F60.799999999999997
sg5793
S'CACHE_ALL_RSN_ALL'
p5816
sS'rsn_cache_ratio'
p5817
I64
ssS'warmup_strategy'
p5818
g11
(tRp5819
S'p'
F0.10000000000000001
sg5793
S'NDN'
p5820
ssS'topology'
p5821
g11
(tRp5822
S'ext_delay'
p5823
I5
sS'source_ratio'
p5824
F0.10000000000000001
sg5793
S'ROCKET_FUEL'
p5825
sS'asn'
p5826
I3257
ssg11
(tRp5827
S'SAT_RATE'
p5828
g11
(tRp5829
S'MEAN_CACHE_HIT'
p5830
F0.62358277777777782
sS'MEAN_SERVER_HIT'
p5831
F0.3464713888888889
sS'MEAN'
p5832
F0.97005416666666666
ssS'CACHE_HIT_RATIO'
p5833
g11
(tRp5834
S'MEAN_OFF_PATH'
p5835
F0.41073664074143929
sS'MEAN_ON_PATH'
p5836
F0.21284613703633853
sg5832
F0.62358277777777782
ssS'OVERHEAD'
p5837
g11
(tRp5838
g5832
F6.8700400000000004
ssS'LATENCY'
p5839
g11
(tRp5840
g5832
F54.803486331587649
sstp5841
a(g11
(tRp5842
S'workload'
p5843
g11
(tRp5844
S'n_contents'
p5845
I10000
sS'name'
p5846
S'STATIONARY'
p5847
sS'n_warmup'
p5848
I360000
sS'rate'
p5849
I1000
sS'n_measured'
p5850
I3600000
sS'alpha'
p5851
F0.80000000000000004
ssS'cache_policy'
p5852
g11
(tRp5853
g5846
S'LRU'
p5854
ssS'desc'
p5855
S'caching probability: 0.66'
p5856
sS'strategy'
p5857
g11
(tRp5858
S'extra_quota'
p5859
I2
sS'rsn_fresh'
p5860
F5
sg5846
S'LIRA_DFIB_OPH'
p5861
sS'p'
F0.66000000000000003
ssS'content_placement'
p5862
g11
(tRp5863
g5846
S'LOWEST_DEGREE'
p5864
ssS'joint_cache_rsn_placement'
p5865
g11
(tRp5866
S'network_cache'
p5867
F0.94999999999999996
sS'network_rsn'
p5868
F60.799999999999997
sg5846
S'CACHE_ALL_RSN_ALL'
p5869
sS'rsn_cache_ratio'
p5870
I64
ssS'warmup_strategy'
p5871
g11
(tRp5872
S'p'
F0.10000000000000001
sg5846
S'NDN'
p5873
ssS'topology'
p5874
g11
(tRp5875
S'ext_delay'
p5876
I5
sS'source_ratio'
p5877
F0.10000000000000001
sg5846
S'ROCKET_FUEL'
p5878
sS'asn'
p5879
I3257
ssg11
(tRp5880
S'SAT_RATE'
p5881
g11
(tRp5882
S'MEAN_CACHE_HIT'
p5883
F0.63580611111111107
sS'MEAN_SERVER_HIT'
p5884
F0.36137194444444443
sS'MEAN'
p5885
F0.99717805555555561
ssS'CACHE_HIT_RATIO'
p5886
g11
(tRp5887
S'MEAN_OFF_PATH'
p5888
F0.37903977172563136
sS'MEAN_ON_PATH'
p5889
F0.25676633938547971
sg5885
F0.63580611111111107
ssS'OVERHEAD'
p5890
g11
(tRp5891
g5885
F7.4969091666666667
ssS'LATENCY'
p5892
g11
(tRp5893
g5885
F57.442148928022348
sstp5894
a(g11
(tRp5895
S'workload'
p5896
g11
(tRp5897
S'n_contents'
p5898
I10000
sS'name'
p5899
S'STATIONARY'
p5900
sS'n_warmup'
p5901
I360000
sS'rate'
p5902
I1000
sS'n_measured'
p5903
I3600000
sS'alpha'
p5904
F0.80000000000000004
ssS'cache_policy'
p5905
g11
(tRp5906
g5899
S'LRU'
p5907
ssS'desc'
p5908
S'caching probability: 0.75'
p5909
sS'strategy'
p5910
g11
(tRp5911
S'extra_quota'
p5912
I0
sS'rsn_fresh'
p5913
F5
sg5899
S'LIRA_DFIB_OPH'
p5914
sS'p'
F0.75
ssS'content_placement'
p5915
g11
(tRp5916
g5899
S'LOWEST_DEGREE'
p5917
ssS'joint_cache_rsn_placement'
p5918
g11
(tRp5919
S'network_cache'
p5920
F0.94999999999999996
sS'network_rsn'
p5921
F60.799999999999997
sg5899
S'CACHE_ALL_RSN_ALL'
p5922
sS'rsn_cache_ratio'
p5923
I64
ssS'warmup_strategy'
p5924
g11
(tRp5925
S'p'
F0.10000000000000001
sg5899
S'NDN'
p5926
ssS'topology'
p5927
g11
(tRp5928
S'ext_delay'
p5929
I5
sS'source_ratio'
p5930
F0.10000000000000001
sg5899
S'ROCKET_FUEL'
p5931
sS'asn'
p5932
I3257
ssg11
(tRp5933
S'SAT_RATE'
p5934
g11
(tRp5935
S'MEAN_CACHE_HIT'
p5936
F0.60491361111111108
sS'MEAN_SERVER_HIT'
p5937
F0.22897833333333334
sS'MEAN'
p5938
F0.83389194444444448
ssS'CACHE_HIT_RATIO'
p5939
g11
(tRp5940
S'MEAN_OFF_PATH'
p5941
F0.56575826150620656
sS'MEAN_ON_PATH'
p5942
F0.039155349604904521
sg5938
F0.60491361111111108
ssS'OVERHEAD'
p5943
g11
(tRp5944
g5938
F5.0301841666666665
ssS'LATENCY'
p5945
g11
(tRp5946
g5938
F37.629895528351774
sstp5947
a(g11
(tRp5948
S'workload'
p5949
g11
(tRp5950
S'n_contents'
p5951
I10000
sS'name'
p5952
S'STATIONARY'
p5953
sS'n_warmup'
p5954
I360000
sS'rate'
p5955
I1000
sS'n_measured'
p5956
I3600000
sS'alpha'
p5957
F0.80000000000000004
ssS'cache_policy'
p5958
g11
(tRp5959
g5952
S'LRU'
p5960
ssS'desc'
p5961
S'caching probability: 0.66'
p5962
sS'strategy'
p5963
g11
(tRp5964
S'extra_quota'
p5965
I3
sS'rsn_fresh'
p5966
F5
sg5952
S'LIRA_DFIB_OPH'
p5967
sS'p'
F0.66000000000000003
ssS'content_placement'
p5968
g11
(tRp5969
g5952
S'LOWEST_DEGREE'
p5970
ssS'joint_cache_rsn_placement'
p5971
g11
(tRp5972
S'network_cache'
p5973
F0.94999999999999996
sS'network_rsn'
p5974
F60.799999999999997
sg5952
S'CACHE_ALL_RSN_ALL'
p5975
sS'rsn_cache_ratio'
p5976
I64
ssS'warmup_strategy'
p5977
g11
(tRp5978
S'p'
F0.10000000000000001
sg5952
S'NDN'
p5979
ssS'topology'
p5980
g11
(tRp5981
S'ext_delay'
p5982
I5
sS'source_ratio'
p5983
F0.10000000000000001
sg5952
S'ROCKET_FUEL'
p5984
sS'asn'
p5985
I3257
ssg11
(tRp5986
S'SAT_RATE'
p5987
g11
(tRp5988
S'MEAN_CACHE_HIT'
p5989
F0.63683333333333336
sS'MEAN_SERVER_HIT'
p5990
F0.36254138888888887
sS'MEAN'
p5991
F0.99937472222222223
ssS'CACHE_HIT_RATIO'
p5992
g11
(tRp5993
S'MEAN_OFF_PATH'
p5994
F0.3626988667539417
sS'MEAN_ON_PATH'
p5995
F0.27413446657939167
sg5991
F0.63683333333333336
ssS'OVERHEAD'
p5996
g11
(tRp5997
g5991
F7.7988488888888892
ssS'LATENCY'
p5998
g11
(tRp5999
g5991
F57.574368887977386
sstp6000
a(g11
(tRp6001
S'workload'
p6002
g11
(tRp6003
S'n_contents'
p6004
I10000
sS'name'
p6005
S'STATIONARY'
p6006
sS'n_warmup'
p6007
I360000
sS'rate'
p6008
I1000
sS'n_measured'
p6009
I3600000
sS'alpha'
p6010
F0.80000000000000004
ssS'cache_policy'
p6011
g11
(tRp6012
g6005
S'LRU'
p6013
ssS'desc'
p6014
S'caching probability: 0.66'
p6015
sS'strategy'
p6016
g11
(tRp6017
S'extra_quota'
p6018
I4
sS'rsn_fresh'
p6019
F5
sg6005
S'LIRA_DFIB_OPH'
p6020
sS'p'
F0.66000000000000003
ssS'content_placement'
p6021
g11
(tRp6022
g6005
S'LOWEST_DEGREE'
p6023
ssS'joint_cache_rsn_placement'
p6024
g11
(tRp6025
S'network_cache'
p6026
F0.94999999999999996
sS'network_rsn'
p6027
F60.799999999999997
sg6005
S'CACHE_ALL_RSN_ALL'
p6028
sS'rsn_cache_ratio'
p6029
I64
ssS'warmup_strategy'
p6030
g11
(tRp6031
S'p'
F0.10000000000000001
sg6005
S'NDN'
p6032
ssS'topology'
p6033
g11
(tRp6034
S'ext_delay'
p6035
I5
sS'source_ratio'
p6036
F0.10000000000000001
sg6005
S'ROCKET_FUEL'
p6037
sS'asn'
p6038
I3257
ssg11
(tRp6039
S'SAT_RATE'
p6040
g11
(tRp6041
S'MEAN_CACHE_HIT'
p6042
F0.63867111111111108
sS'MEAN_SERVER_HIT'
p6043
F0.36107499999999998
sS'MEAN'
p6044
F0.99974611111111111
ssS'CACHE_HIT_RATIO'
p6045
g11
(tRp6046
S'MEAN_OFF_PATH'
p6047
F0.3534740747762265
sS'MEAN_ON_PATH'
p6048
F0.28519703633488458
sg6044
F0.63867111111111108
ssS'OVERHEAD'
p6049
g11
(tRp6050
g6044
F7.8737763888888885
ssS'LATENCY'
p6051
g11
(tRp6052
g6044
F57.435135377676509
sstp6053
a(g11
(tRp6054
S'workload'
p6055
g11
(tRp6056
S'n_contents'
p6057
I10000
sS'name'
p6058
S'STATIONARY'
p6059
sS'n_warmup'
p6060
I360000
sS'rate'
p6061
I1000
sS'n_measured'
p6062
I3600000
sS'alpha'
p6063
F0.80000000000000004
ssS'cache_policy'
p6064
g11
(tRp6065
g6058
S'LRU'
p6066
ssS'desc'
p6067
S'caching probability: 0.66'
p6068
sS'strategy'
p6069
g11
(tRp6070
S'extra_quota'
p6071
I5
sS'rsn_fresh'
p6072
F5
sg6058
S'LIRA_DFIB_OPH'
p6073
sS'p'
F0.66000000000000003
ssS'content_placement'
p6074
g11
(tRp6075
g6058
S'LOWEST_DEGREE'
p6076
ssS'joint_cache_rsn_placement'
p6077
g11
(tRp6078
S'network_cache'
p6079
F0.94999999999999996
sS'network_rsn'
p6080
F60.799999999999997
sg6058
S'CACHE_ALL_RSN_ALL'
p6081
sS'rsn_cache_ratio'
p6082
I64
ssS'warmup_strategy'
p6083
g11
(tRp6084
S'p'
F0.10000000000000001
sg6058
S'NDN'
p6085
ssS'topology'
p6086
g11
(tRp6087
S'ext_delay'
p6088
I5
sS'source_ratio'
p6089
F0.10000000000000001
sg6058
S'ROCKET_FUEL'
p6090
sS'asn'
p6091
I3257
ssg11
(tRp6092
S'SAT_RATE'
p6093
g11
(tRp6094
S'MEAN_CACHE_HIT'
p6095
F0.63822527777777782
sS'MEAN_SERVER_HIT'
p6096
F0.3616375
sS'MEAN'
p6097
F0.99986277777777777
ssS'CACHE_HIT_RATIO'
p6098
g11
(tRp6099
S'MEAN_OFF_PATH'
p6100
F0.35150072832856299
sS'MEAN_ON_PATH'
p6101
F0.28672454944921483
sg6097
F0.63822527777777782
ssS'OVERHEAD'
p6102
g11
(tRp6103
g6097
F7.9214183333333335
ssS'LATENCY'
p6104
g11
(tRp6105
g6097
F57.52317340991813
sstp6106
a(g11
(tRp6107
S'workload'
p6108
g11
(tRp6109
S'n_contents'
p6110
I10000
sS'name'
p6111
S'STATIONARY'
p6112
sS'n_warmup'
p6113
I360000
sS'rate'
p6114
I1000
sS'n_measured'
p6115
I3600000
sS'alpha'
p6116
F0.80000000000000004
ssS'cache_policy'
p6117
g11
(tRp6118
g6111
S'LRU'
p6119
ssS'desc'
p6120
S'caching probability: 0.75'
p6121
sS'strategy'
p6122
g11
(tRp6123
S'extra_quota'
p6124
I2
sS'rsn_fresh'
p6125
F5
sg6111
S'LIRA_DFIB_OPH'
p6126
sS'p'
F0.75
ssS'content_placement'
p6127
g11
(tRp6128
g6111
S'LOWEST_DEGREE'
p6129
ssS'joint_cache_rsn_placement'
p6130
g11
(tRp6131
S'network_cache'
p6132
F0.94999999999999996
sS'network_rsn'
p6133
F60.799999999999997
sg6111
S'CACHE_ALL_RSN_ALL'
p6134
sS'rsn_cache_ratio'
p6135
I64
ssS'warmup_strategy'
p6136
g11
(tRp6137
S'p'
F0.10000000000000001
sg6111
S'NDN'
p6138
ssS'topology'
p6139
g11
(tRp6140
S'ext_delay'
p6141
I5
sS'source_ratio'
p6142
F0.10000000000000001
sg6111
S'ROCKET_FUEL'
p6143
sS'asn'
p6144
I3257
ssg11
(tRp6145
S'SAT_RATE'
p6146
g11
(tRp6147
S'MEAN_CACHE_HIT'
p6148
F0.63448666666666664
sS'MEAN_SERVER_HIT'
p6149
F0.3626786111111111
sS'MEAN'
p6150
F0.99716527777777775
ssS'CACHE_HIT_RATIO'
p6151
g11
(tRp6152
S'MEAN_OFF_PATH'
p6153
F0.37655872021430936
sS'MEAN_ON_PATH'
p6154
F0.25792794645235728
sg6150
F0.63448666666666664
ssS'OVERHEAD'
p6155
g11
(tRp6156
g6150
F7.5176761111111112
ssS'LATENCY'
p6157
g11
(tRp6158
g6150
F57.807752533750907
sstp6159
a(g11
(tRp6160
S'workload'
p6161
g11
(tRp6162
S'n_contents'
p6163
I10000
sS'name'
p6164
S'STATIONARY'
p6165
sS'n_warmup'
p6166
I360000
sS'rate'
p6167
I1000
sS'n_measured'
p6168
I3600000
sS'alpha'
p6169
F0.80000000000000004
ssS'cache_policy'
p6170
g11
(tRp6171
g6164
S'LRU'
p6172
ssS'desc'
p6173
S'caching probability: 0.75'
p6174
sS'strategy'
p6175
g11
(tRp6176
S'extra_quota'
p6177
I1
sS'rsn_fresh'
p6178
F5
sg6164
S'LIRA_DFIB_OPH'
p6179
sS'p'
F0.75
ssS'content_placement'
p6180
g11
(tRp6181
g6164
S'LOWEST_DEGREE'
p6182
ssS'joint_cache_rsn_placement'
p6183
g11
(tRp6184
S'network_cache'
p6185
F0.94999999999999996
sS'network_rsn'
p6186
F60.799999999999997
sg6164
S'CACHE_ALL_RSN_ALL'
p6187
sS'rsn_cache_ratio'
p6188
I64
ssS'warmup_strategy'
p6189
g11
(tRp6190
S'p'
F0.10000000000000001
sg6164
S'NDN'
p6191
ssS'topology'
p6192
g11
(tRp6193
S'ext_delay'
p6194
I5
sS'source_ratio'
p6195
F0.10000000000000001
sg6164
S'ROCKET_FUEL'
p6196
sS'asn'
p6197
I3257
ssg11
(tRp6198
S'SAT_RATE'
p6199
g11
(tRp6200
S'MEAN_CACHE_HIT'
p6201
F0.62361611111111115
sS'MEAN_SERVER_HIT'
p6202
F0.34655000000000002
sS'MEAN'
p6203
F0.97016611111111106
ssS'CACHE_HIT_RATIO'
p6204
g11
(tRp6205
S'MEAN_OFF_PATH'
p6206
F0.40904681806791027
sS'MEAN_ON_PATH'
p6207
F0.21456929304320088
sg6203
F0.62361611111111115
ssS'OVERHEAD'
p6208
g11
(tRp6209
g6203
F6.8979011111111115
ssS'LATENCY'
p6210
g11
(tRp6211
g6203
F55.024900449298606
sstp6212
a(g11
(tRp6213
S'workload'
p6214
g11
(tRp6215
S'n_contents'
p6216
I10000
sS'name'
p6217
S'STATIONARY'
p6218
sS'n_warmup'
p6219
I360000
sS'rate'
p6220
I1000
sS'n_measured'
p6221
I3600000
sS'alpha'
p6222
F0.80000000000000004
ssS'cache_policy'
p6223
g11
(tRp6224
g6217
S'LRU'
p6225
ssS'desc'
p6226
S'caching probability: 1.0'
p6227
sS'strategy'
p6228
g11
(tRp6229
S'extra_quota'
p6230
I0
sS'rsn_fresh'
p6231
F5
sg6217
S'LIRA_DFIB_OPH'
p6232
sS'p'
F1
ssS'content_placement'
p6233
g11
(tRp6234
g6217
S'LOWEST_DEGREE'
p6235
ssS'joint_cache_rsn_placement'
p6236
g11
(tRp6237
S'network_cache'
p6238
F0.94999999999999996
sS'network_rsn'
p6239
F60.799999999999997
sg6217
S'CACHE_ALL_RSN_ALL'
p6240
sS'rsn_cache_ratio'
p6241
I64
ssS'warmup_strategy'
p6242
g11
(tRp6243
S'p'
F0.10000000000000001
sg6217
S'NDN'
p6244
ssS'topology'
p6245
g11
(tRp6246
S'ext_delay'
p6247
I5
sS'source_ratio'
p6248
F0.10000000000000001
sg6217
S'ROCKET_FUEL'
p6249
sS'asn'
p6250
I3257
ssg11
(tRp6251
S'SAT_RATE'
p6252
g11
(tRp6253
S'MEAN_CACHE_HIT'
p6254
F0.60096027777777783
sS'MEAN_SERVER_HIT'
p6255
F0.22998499999999999
sS'MEAN'
p6256
F0.83094527777777782
ssS'CACHE_HIT_RATIO'
p6257
g11
(tRp6258
S'MEAN_OFF_PATH'
p6259
F0.56778131092423501
sS'MEAN_ON_PATH'
p6260
F0.033178966853542824
sg6256
F0.60096027777777783
ssS'OVERHEAD'
p6261
g11
(tRp6262
g6256
F5.0383980555555556
ssS'LATENCY'
p6263
g11
(tRp6264
g6256
F37.803921902848131
sstp6265
a(g11
(tRp6266
S'workload'
p6267
g11
(tRp6268
S'n_contents'
p6269
I10000
sS'name'
p6270
S'STATIONARY'
p6271
sS'n_warmup'
p6272
I360000
sS'rate'
p6273
I1000
sS'n_measured'
p6274
I3600000
sS'alpha'
p6275
F0.80000000000000004
ssS'cache_policy'
p6276
g11
(tRp6277
g6270
S'LRU'
p6278
ssS'desc'
p6279
S'caching probability: 0.75'
p6280
sS'strategy'
p6281
g11
(tRp6282
S'extra_quota'
p6283
I4
sS'rsn_fresh'
p6284
F5
sg6270
S'LIRA_DFIB_OPH'
p6285
sS'p'
F0.75
ssS'content_placement'
p6286
g11
(tRp6287
g6270
S'LOWEST_DEGREE'
p6288
ssS'joint_cache_rsn_placement'
p6289
g11
(tRp6290
S'network_cache'
p6291
F0.94999999999999996
sS'network_rsn'
p6292
F60.799999999999997
sg6270
S'CACHE_ALL_RSN_ALL'
p6293
sS'rsn_cache_ratio'
p6294
I64
ssS'warmup_strategy'
p6295
g11
(tRp6296
S'p'
F0.10000000000000001
sg6270
S'NDN'
p6297
ssS'topology'
p6298
g11
(tRp6299
S'ext_delay'
p6300
I5
sS'source_ratio'
p6301
F0.10000000000000001
sg6270
S'ROCKET_FUEL'
p6302
sS'asn'
p6303
I3257
ssg11
(tRp6304
S'SAT_RATE'
p6305
g11
(tRp6306
S'MEAN_CACHE_HIT'
p6307
F0.63897944444444443
sS'MEAN_SERVER_HIT'
p6308
F0.36074055555555556
sS'MEAN'
p6309
F0.99972000000000005
ssS'CACHE_HIT_RATIO'
p6310
g11
(tRp6311
S'MEAN_OFF_PATH'
p6312
F0.35423099488920706
sS'MEAN_ON_PATH'
p6313
F0.28474844955523737
sg6309
F0.63897944444444443
ssS'OVERHEAD'
p6314
g11
(tRp6315
g6309
F7.9015005555555557
ssS'LATENCY'
p6316
g11
(tRp6317
g6309
F57.495046074415384
sstp6318
a(g11
(tRp6319
S'workload'
p6320
g11
(tRp6321
S'n_contents'
p6322
I10000
sS'name'
p6323
S'STATIONARY'
p6324
sS'n_warmup'
p6325
I360000
sS'rate'
p6326
I1000
sS'n_measured'
p6327
I3600000
sS'alpha'
p6328
F0.80000000000000004
ssS'cache_policy'
p6329
g11
(tRp6330
g6323
S'LRU'
p6331
ssS'desc'
p6332
S'caching probability: 0.75'
p6333
sS'strategy'
p6334
g11
(tRp6335
S'extra_quota'
p6336
I3
sS'rsn_fresh'
p6337
F5
sg6323
S'LIRA_DFIB_OPH'
p6338
sS'p'
F0.75
ssS'content_placement'
p6339
g11
(tRp6340
g6323
S'LOWEST_DEGREE'
p6341
ssS'joint_cache_rsn_placement'
p6342
g11
(tRp6343
S'network_cache'
p6344
F0.94999999999999996
sS'network_rsn'
p6345
F60.799999999999997
sg6323
S'CACHE_ALL_RSN_ALL'
p6346
sS'rsn_cache_ratio'
p6347
I64
ssS'warmup_strategy'
p6348
g11
(tRp6349
S'p'
F0.10000000000000001
sg6323
S'NDN'
p6350
ssS'topology'
p6351
g11
(tRp6352
S'ext_delay'
p6353
I5
sS'source_ratio'
p6354
F0.10000000000000001
sg6323
S'ROCKET_FUEL'
p6355
sS'asn'
p6356
I3257
ssg11
(tRp6357
S'SAT_RATE'
p6358
g11
(tRp6359
S'MEAN_CACHE_HIT'
p6360
F0.63769055555555554
sS'MEAN_SERVER_HIT'
p6361
F0.36164444444444444
sS'MEAN'
p6362
F0.99933499999999997
ssS'CACHE_HIT_RATIO'
p6363
g11
(tRp6364
S'MEAN_OFF_PATH'
p6365
F0.36444908709255813
sS'MEAN_ON_PATH'
p6366
F0.27324146846299741
sg6362
F0.63769055555555554
ssS'OVERHEAD'
p6367
g11
(tRp6368
g6362
F7.7793197222222226
ssS'LATENCY'
p6369
g11
(tRp6370
g6362
F57.551198562872351
sstp6371
a(g11
(tRp6372
S'workload'
p6373
g11
(tRp6374
S'n_contents'
p6375
I10000
sS'name'
p6376
S'STATIONARY'
p6377
sS'n_warmup'
p6378
I360000
sS'rate'
p6379
I1000
sS'n_measured'
p6380
I3600000
sS'alpha'
p6381
F0.80000000000000004
ssS'cache_policy'
p6382
g11
(tRp6383
g6376
S'LRU'
p6384
ssS'desc'
p6385
S'caching probability: 0.75'
p6386
sS'strategy'
p6387
g11
(tRp6388
S'extra_quota'
p6389
I5
sS'rsn_fresh'
p6390
F5
sg6376
S'LIRA_DFIB_OPH'
p6391
sS'p'
F0.75
ssS'content_placement'
p6392
g11
(tRp6393
g6376
S'LOWEST_DEGREE'
p6394
ssS'joint_cache_rsn_placement'
p6395
g11
(tRp6396
S'network_cache'
p6397
F0.94999999999999996
sS'network_rsn'
p6398
F60.799999999999997
sg6376
S'CACHE_ALL_RSN_ALL'
p6399
sS'rsn_cache_ratio'
p6400
I64
ssS'warmup_strategy'
p6401
g11
(tRp6402
S'p'
F0.10000000000000001
sg6376
S'NDN'
p6403
ssS'topology'
p6404
g11
(tRp6405
S'ext_delay'
p6406
I5
sS'source_ratio'
p6407
F0.10000000000000001
sg6376
S'ROCKET_FUEL'
p6408
sS'asn'
p6409
I3257
ssg11
(tRp6410
S'SAT_RATE'
p6411
g11
(tRp6412
S'MEAN_CACHE_HIT'
p6413
F0.63986916666666671
sS'MEAN_SERVER_HIT'
p6414
F0.35998999999999998
sS'MEAN'
p6415
F0.99985916666666663
ssS'CACHE_HIT_RATIO'
p6416
g11
(tRp6417
S'MEAN_OFF_PATH'
p6418
F0.35245155310033804
sS'MEAN_ON_PATH'
p6419
F0.28741761356632867
sg6415
F0.63986916666666671
ssS'OVERHEAD'
p6420
g11
(tRp6421
g6415
F7.9603486111111108
ssS'LATENCY'
p6422
g11
(tRp6423
g6415
F57.347344332140644
sstp6424
a(g11
(tRp6425
S'workload'
p6426
g11
(tRp6427
S'n_contents'
p6428
I10000
sS'name'
p6429
S'STATIONARY'
p6430
sS'n_warmup'
p6431
I360000
sS'rate'
p6432
I1000
sS'n_measured'
p6433
I3600000
sS'alpha'
p6434
F0.80000000000000004
ssS'cache_policy'
p6435
g11
(tRp6436
g6429
S'LRU'
p6437
ssS'desc'
p6438
S'caching probability: 1.0'
p6439
sS'strategy'
p6440
g11
(tRp6441
S'extra_quota'
p6442
I1
sS'rsn_fresh'
p6443
F5
sg6429
S'LIRA_DFIB_OPH'
p6444
sS'p'
F1
ssS'content_placement'
p6445
g11
(tRp6446
g6429
S'LOWEST_DEGREE'
p6447
ssS'joint_cache_rsn_placement'
p6448
g11
(tRp6449
S'network_cache'
p6450
F0.94999999999999996
sS'network_rsn'
p6451
F60.799999999999997
sg6429
S'CACHE_ALL_RSN_ALL'
p6452
sS'rsn_cache_ratio'
p6453
I64
ssS'warmup_strategy'
p6454
g11
(tRp6455
S'p'
F0.10000000000000001
sg6429
S'NDN'
p6456
ssS'topology'
p6457
g11
(tRp6458
S'ext_delay'
p6459
I5
sS'source_ratio'
p6460
F0.10000000000000001
sg6429
S'ROCKET_FUEL'
p6461
sS'asn'
p6462
I3257
ssg11
(tRp6463
S'SAT_RATE'
p6464
g11
(tRp6465
S'MEAN_CACHE_HIT'
p6466
F0.62296861111111113
sS'MEAN_SERVER_HIT'
p6467
F0.34712416666666668
sS'MEAN'
p6468
F0.9700927777777778
ssS'CACHE_HIT_RATIO'
p6469
g11
(tRp6470
S'MEAN_OFF_PATH'
p6471
F0.41162090925432049
sS'MEAN_ON_PATH'
p6472
F0.21134770185679064
sg6468
F0.62296861111111113
ssS'OVERHEAD'
p6473
g11
(tRp6474
g6468
F6.9495652777777774
ssS'LATENCY'
p6475
g11
(tRp6476
g6468
F55.074314317009588
sstp6477
a(g11
(tRp6478
S'workload'
p6479
g11
(tRp6480
S'n_contents'
p6481
I10000
sS'name'
p6482
S'STATIONARY'
p6483
sS'n_warmup'
p6484
I360000
sS'rate'
p6485
I1000
sS'n_measured'
p6486
I3600000
sS'alpha'
p6487
F0.80000000000000004
ssS'cache_policy'
p6488
g11
(tRp6489
g6482
S'LRU'
p6490
ssS'desc'
p6491
S'caching probability: 1.0'
p6492
sS'strategy'
p6493
g11
(tRp6494
S'extra_quota'
p6495
I2
sS'rsn_fresh'
p6496
F5
sg6482
S'LIRA_DFIB_OPH'
p6497
sS'p'
F1
ssS'content_placement'
p6498
g11
(tRp6499
g6482
S'LOWEST_DEGREE'
p6500
ssS'joint_cache_rsn_placement'
p6501
g11
(tRp6502
S'network_cache'
p6503
F0.94999999999999996
sS'network_rsn'
p6504
F60.799999999999997
sg6482
S'CACHE_ALL_RSN_ALL'
p6505
sS'rsn_cache_ratio'
p6506
I64
ssS'warmup_strategy'
p6507
g11
(tRp6508
S'p'
F0.10000000000000001
sg6482
S'NDN'
p6509
ssS'topology'
p6510
g11
(tRp6511
S'ext_delay'
p6512
I5
sS'source_ratio'
p6513
F0.10000000000000001
sg6482
S'ROCKET_FUEL'
p6514
sS'asn'
p6515
I3257
ssg11
(tRp6516
S'SAT_RATE'
p6517
g11
(tRp6518
S'MEAN_CACHE_HIT'
p6519
F0.63271166666666667
sS'MEAN_SERVER_HIT'
p6520
F0.36436750000000001
sS'MEAN'
p6521
F0.99707916666666663
ssS'CACHE_HIT_RATIO'
p6522
g11
(tRp6523
S'MEAN_OFF_PATH'
p6524
F0.37783508605470739
sS'MEAN_ON_PATH'
p6525
F0.25487658061195928
sg6521
F0.63271166666666667
ssS'OVERHEAD'
p6526
g11
(tRp6527
g6521
F7.5575566666666667
ssS'LATENCY'
p6528
g11
(tRp6529
g6521
F57.933195522377709
sstp6530
a(g11
(tRp6531
S'workload'
p6532
g11
(tRp6533
S'n_contents'
p6534
I10000
sS'name'
p6535
S'STATIONARY'
p6536
sS'n_warmup'
p6537
I360000
sS'rate'
p6538
I1000
sS'n_measured'
p6539
I3600000
sS'alpha'
p6540
F0.80000000000000004
ssS'cache_policy'
p6541
g11
(tRp6542
g6535
S'LRU'
p6543
ssS'desc'
p6544
S'caching probability: 1.0'
p6545
sS'strategy'
p6546
g11
(tRp6547
S'extra_quota'
p6548
I4
sS'rsn_fresh'
p6549
F5
sg6535
S'LIRA_DFIB_OPH'
p6550
sS'p'
F1
ssS'content_placement'
p6551
g11
(tRp6552
g6535
S'LOWEST_DEGREE'
p6553
ssS'joint_cache_rsn_placement'
p6554
g11
(tRp6555
S'network_cache'
p6556
F0.94999999999999996
sS'network_rsn'
p6557
F60.799999999999997
sg6535
S'CACHE_ALL_RSN_ALL'
p6558
sS'rsn_cache_ratio'
p6559
I64
ssS'warmup_strategy'
p6560
g11
(tRp6561
S'p'
F0.10000000000000001
sg6535
S'NDN'
p6562
ssS'topology'
p6563
g11
(tRp6564
S'ext_delay'
p6565
I5
sS'source_ratio'
p6566
F0.10000000000000001
sg6535
S'ROCKET_FUEL'
p6567
sS'asn'
p6568
I3257
ssg11
(tRp6569
S'SAT_RATE'
p6570
g11
(tRp6571
S'MEAN_CACHE_HIT'
p6572
F0.63686416666666668
sS'MEAN_SERVER_HIT'
p6573
F0.36283888888888888
sS'MEAN'
p6574
F0.99970305555555561
ssS'CACHE_HIT_RATIO'
p6575
g11
(tRp6576
S'MEAN_OFF_PATH'
p6577
F0.35607259967674798
sS'MEAN_ON_PATH'
p6578
F0.2807915669899187
sg6574
F0.63686416666666668
ssS'OVERHEAD'
p6579
g11
(tRp6580
g6574
F7.9703833333333334
ssS'LATENCY'
p6581
g11
(tRp6582
g6574
F57.946883391852452
sstp6583
a(g11
(tRp6584
S'workload'
p6585
g11
(tRp6586
S'n_contents'
p6587
I10000
sS'name'
p6588
S'STATIONARY'
p6589
sS'n_warmup'
p6590
I360000
sS'rate'
p6591
I1000
sS'n_measured'
p6592
I3600000
sS'alpha'
p6593
F0.80000000000000004
ssS'cache_policy'
p6594
g11
(tRp6595
g6588
S'LRU'
p6596
ssS'desc'
p6597
S'caching probability: 1.0'
p6598
sS'strategy'
p6599
g11
(tRp6600
S'extra_quota'
p6601
I3
sS'rsn_fresh'
p6602
F5
sg6588
S'LIRA_DFIB_OPH'
p6603
sS'p'
F1
ssS'content_placement'
p6604
g11
(tRp6605
g6588
S'LOWEST_DEGREE'
p6606
ssS'joint_cache_rsn_placement'
p6607
g11
(tRp6608
S'network_cache'
p6609
F0.94999999999999996
sS'network_rsn'
p6610
F60.799999999999997
sg6588
S'CACHE_ALL_RSN_ALL'
p6611
sS'rsn_cache_ratio'
p6612
I64
ssS'warmup_strategy'
p6613
g11
(tRp6614
S'p'
F0.10000000000000001
sg6588
S'NDN'
p6615
ssS'topology'
p6616
g11
(tRp6617
S'ext_delay'
p6618
I5
sS'source_ratio'
p6619
F0.10000000000000001
sg6588
S'ROCKET_FUEL'
p6620
sS'asn'
p6621
I3257
ssg11
(tRp6622
S'SAT_RATE'
p6623
g11
(tRp6624
S'MEAN_CACHE_HIT'
p6625
F0.63480666666666663
sS'MEAN_SERVER_HIT'
p6626
F0.364535
sS'MEAN'
p6627
F0.99934166666666668
ssS'CACHE_HIT_RATIO'
p6628
g11
(tRp6629
S'MEAN_OFF_PATH'
p6630
F0.36269371817617613
sS'MEAN_ON_PATH'
p6631
F0.2721129484904905
sg6627
F0.63480666666666663
ssS'OVERHEAD'
p6632
g11
(tRp6633
g6627
F7.8161569444444448
ssS'LATENCY'
p6634
g11
(tRp6635
g6627
F57.949375065774518
sstp6636
a(g11
(tRp6637
S'workload'
p6638
g11
(tRp6639
S'n_contents'
p6640
I10000
sS'name'
p6641
S'STATIONARY'
p6642
sS'n_warmup'
p6643
I360000
sS'rate'
p6644
I1000
sS'n_measured'
p6645
I3600000
sS'alpha'
p6646
F0.80000000000000004
ssS'cache_policy'
p6647
g11
(tRp6648
g6641
S'LRU'
p6649
ssS'desc'
p6650
S'caching probability: 1.0'
p6651
sS'strategy'
p6652
g11
(tRp6653
S'extra_quota'
p6654
I5
sS'rsn_fresh'
p6655
F5
sg6641
S'LIRA_DFIB_OPH'
p6656
sS'p'
F1
ssS'content_placement'
p6657
g11
(tRp6658
g6641
S'LOWEST_DEGREE'
p6659
ssS'joint_cache_rsn_placement'
p6660
g11
(tRp6661
S'network_cache'
p6662
F0.94999999999999996
sS'network_rsn'
p6663
F60.799999999999997
sg6641
S'CACHE_ALL_RSN_ALL'
p6664
sS'rsn_cache_ratio'
p6665
I64
ssS'warmup_strategy'
p6666
g11
(tRp6667
S'p'
F0.10000000000000001
sg6641
S'NDN'
p6668
ssS'topology'
p6669
g11
(tRp6670
S'ext_delay'
p6671
I5
sS'source_ratio'
p6672
F0.10000000000000001
sg6641
S'ROCKET_FUEL'
p6673
sS'asn'
p6674
I3257
ssg11
(tRp6675
S'SAT_RATE'
p6676
g11
(tRp6677
S'MEAN_CACHE_HIT'
p6678
F0.63674750000000002
sS'MEAN_SERVER_HIT'
p6679
F0.36310638888888891
sS'MEAN'
p6680
F0.99985388888888893
ssS'CACHE_HIT_RATIO'
p6681
g11
(tRp6682
S'MEAN_OFF_PATH'
p6683
F0.35172706690405686
sS'MEAN_ON_PATH'
p6684
F0.28502043309594316
sg6680
F0.63674750000000002
ssS'OVERHEAD'
p6685
g11
(tRp6686
g6680
F7.9850069444444447
ssS'LATENCY'
p6687
g11
(tRp6688
g6680
F57.900586015893388
sstp6689
atRp6690
sb.