ccopy_reg
_reconstructor
p1
(cicarus.results.readwrite
ResultSet
p2
c__builtin__
object
p3
NtRp4
(dp5
S'attr'
p6
(dp7
sS'_results'
p8
ccollections
deque
p9
((lp10
(cicarus.util
Tree
p11
(tRp12
S'workload'
p13
g11
(tRp14
S'n_contents'
p15
I10000
sS'disconnection_rate'
p16
F1.0000000000000001e-15
sS'name'
p17
S'STATIONARY_SIT'
p18
sS'n_warmup'
p19
I36000
sS'rate'
p20
I10
sS'n_measured'
p21
I108000
sS'alpha'
p22
F0.80000000000000004
ssS'cache_policy'
p23
g11
(tRp24
g17
S'LRU'
p25
ssS'desc'
p26
S'caching probability: 0.1'
p27
sS'strategy'
p28
g11
(tRp29
S'p'
F0.10000000000000001
sg17
S'SIT_ONLY'
p30
ssS'content_placement'
p31
g11
(tRp32
g17
S'UNIFORM'
p33
ssS'joint_cache_rsn_placement'
p34
g11
(tRp35
S'network_cache'
p36
F0.94999999999999996
sS'network_rsn'
p37
F60.799999999999997
sg17
S'CACHE_ALL_RSN_ALL_SIT'
p38
sS'rsn_cache_ratio'
p39
I64
ssS'warmup_strategy'
p40
g11
(tRp41
S'p'
F0.10000000000000001
sg17
S'NDN'
p42
ssS'topology'
p43
g11
(tRp44
S'ext_delay'
p45
I2
sS'source_ratio'
p46
F1
sg17
S'ROCKET_FUEL'
p47
sS'asn'
p48
I3257
ssg11
(tRp49
S'CACHE_HIT_RATIO'
p50
g11
(tRp51
S'MEAN_NETWORK_HITS'
p52
F0.014092462106832343
sS'MEAN_USER_HITS'
p53
F0.27518263719780373
sS'MEAN'
p54
F0.28927509930463607
ssS'OVERHEAD'
p55
g11
(tRp56
g54
F0.26942343126452534
ssS'ABS'
p57
g11
(tRp58
S'MEAN_ABS_TIME'
p59
F0
sS'NUM_ABS'
p60
I0
sstp61
a(g11
(tRp62
S'workload'
p63
g11
(tRp64
S'n_contents'
p65
I10000
sS'disconnection_rate'
p66
F1.0000000000000001e-15
sS'name'
p67
S'STATIONARY_SIT'
p68
sS'n_warmup'
p69
I36000
sS'rate'
p70
I10
sS'n_measured'
p71
I108000
sS'alpha'
p72
F0.80000000000000004
ssS'cache_policy'
p73
g11
(tRp74
g67
S'LRU'
p75
ssS'desc'
p76
S'caching probability: 0.25'
p77
sS'strategy'
p78
g11
(tRp79
S'p'
F0.25
sg67
S'SIT_ONLY'
p80
ssS'content_placement'
p81
g11
(tRp82
g67
S'UNIFORM'
p83
ssS'joint_cache_rsn_placement'
p84
g11
(tRp85
S'network_cache'
p86
F0.94999999999999996
sS'network_rsn'
p87
F60.799999999999997
sg67
S'CACHE_ALL_RSN_ALL_SIT'
p88
sS'rsn_cache_ratio'
p89
I64
ssS'warmup_strategy'
p90
g11
(tRp91
S'p'
F0.10000000000000001
sg67
S'NDN'
p92
ssS'topology'
p93
g11
(tRp94
S'ext_delay'
p95
I2
sS'source_ratio'
p96
F1
sg67
S'ROCKET_FUEL'
p97
sS'asn'
p98
I3257
ssg11
(tRp99
S'CACHE_HIT_RATIO'
p100
g11
(tRp101
S'MEAN_NETWORK_HITS'
p102
F0.015657262432755253
sS'MEAN_USER_HITS'
p103
F0.272275256710586
sS'MEAN'
p104
F0.28793251914334128
ssS'OVERHEAD'
p105
g11
(tRp106
g104
F0.27517337802427755
ssS'ABS'
p107
g11
(tRp108
S'MEAN_ABS_TIME'
p109
F0
sS'NUM_ABS'
p110
I0
sstp111
a(g11
(tRp112
S'workload'
p113
g11
(tRp114
S'n_contents'
p115
I10000
sS'disconnection_rate'
p116
F1.0000000000000001e-15
sS'name'
p117
S'STATIONARY_SIT'
p118
sS'n_warmup'
p119
I36000
sS'rate'
p120
I10
sS'n_measured'
p121
I108000
sS'alpha'
p122
F0.80000000000000004
ssS'cache_policy'
p123
g11
(tRp124
g117
S'LRU'
p125
ssS'desc'
p126
S'caching probability: 0.33'
p127
sS'strategy'
p128
g11
(tRp129
S'p'
F0.33000000000000002
sg117
S'SIT_ONLY'
p130
ssS'content_placement'
p131
g11
(tRp132
g117
S'UNIFORM'
p133
ssS'joint_cache_rsn_placement'
p134
g11
(tRp135
S'network_cache'
p136
F0.94999999999999996
sS'network_rsn'
p137
F60.799999999999997
sg117
S'CACHE_ALL_RSN_ALL_SIT'
p138
sS'rsn_cache_ratio'
p139
I64
ssS'warmup_strategy'
p140
g11
(tRp141
S'p'
F0.10000000000000001
sg117
S'NDN'
p142
ssS'topology'
p143
g11
(tRp144
S'ext_delay'
p145
I2
sS'source_ratio'
p146
F1
sg117
S'ROCKET_FUEL'
p147
sS'asn'
p148
I3257
ssg11
(tRp149
S'CACHE_HIT_RATIO'
p150
g11
(tRp151
S'MEAN_NETWORK_HITS'
p152
F0.014972083591818595
sS'MEAN_USER_HITS'
p153
F0.27220118332237664
sS'MEAN'
p154
F0.28717326691419526
ssS'OVERHEAD'
p155
g11
(tRp156
g154
F0.26834936713548951
ssS'ABS'
p157
g11
(tRp158
S'MEAN_ABS_TIME'
p159
F0
sS'NUM_ABS'
p160
I0
sstp161
a(g11
(tRp162
S'workload'
p163
g11
(tRp164
S'n_contents'
p165
I10000
sS'disconnection_rate'
p166
F1.0000000000000001e-15
sS'name'
p167
S'STATIONARY_SIT'
p168
sS'n_warmup'
p169
I36000
sS'rate'
p170
I10
sS'n_measured'
p171
I108000
sS'alpha'
p172
F0.80000000000000004
ssS'cache_policy'
p173
g11
(tRp174
g167
S'LRU'
p175
ssS'desc'
p176
S'caching probability: 0.5'
p177
sS'strategy'
p178
g11
(tRp179
S'p'
F0.5
sg167
S'SIT_ONLY'
p180
ssS'content_placement'
p181
g11
(tRp182
g167
S'UNIFORM'
p183
ssS'joint_cache_rsn_placement'
p184
g11
(tRp185
S'network_cache'
p186
F0.94999999999999996
sS'network_rsn'
p187
F60.799999999999997
sg167
S'CACHE_ALL_RSN_ALL_SIT'
p188
sS'rsn_cache_ratio'
p189
I64
ssS'warmup_strategy'
p190
g11
(tRp191
S'p'
F0.10000000000000001
sg167
S'NDN'
p192
ssS'topology'
p193
g11
(tRp194
S'ext_delay'
p195
I2
sS'source_ratio'
p196
F1
sg167
S'ROCKET_FUEL'
p197
sS'asn'
p198
I3257
ssg11
(tRp199
S'CACHE_HIT_RATIO'
p200
g11
(tRp201
S'MEAN_NETWORK_HITS'
p202
F0.014342459792038962
sS'MEAN_USER_HITS'
p203
F0.27388635290413976
sS'MEAN'
p204
F0.28822881269617873
ssS'OVERHEAD'
p205
g11
(tRp206
g204
F0.26853455060601289
ssS'ABS'
p207
g11
(tRp208
S'MEAN_ABS_TIME'
p209
F0
sS'NUM_ABS'
p210
I0
sstp211
a(g11
(tRp212
S'workload'
p213
g11
(tRp214
S'n_contents'
p215
I10000
sS'disconnection_rate'
p216
F1.0000000000000001e-15
sS'name'
p217
S'STATIONARY_SIT'
p218
sS'n_warmup'
p219
I36000
sS'rate'
p220
I10
sS'n_measured'
p221
I108000
sS'alpha'
p222
F0.80000000000000004
ssS'cache_policy'
p223
g11
(tRp224
g217
S'LRU'
p225
ssS'desc'
p226
S'caching probability: 0.66'
p227
sS'strategy'
p228
g11
(tRp229
S'p'
F0.66000000000000003
sg217
S'SIT_ONLY'
p230
ssS'content_placement'
p231
g11
(tRp232
g217
S'UNIFORM'
p233
ssS'joint_cache_rsn_placement'
p234
g11
(tRp235
S'network_cache'
p236
F0.94999999999999996
sS'network_rsn'
p237
F60.799999999999997
sg217
S'CACHE_ALL_RSN_ALL_SIT'
p238
sS'rsn_cache_ratio'
p239
I64
ssS'warmup_strategy'
p240
g11
(tRp241
S'p'
F0.10000000000000001
sg217
S'NDN'
p242
ssS'topology'
p243
g11
(tRp244
S'ext_delay'
p245
I2
sS'source_ratio'
p246
F1
sg217
S'ROCKET_FUEL'
p247
sS'asn'
p248
I3257
ssg11
(tRp249
S'CACHE_HIT_RATIO'
p250
g11
(tRp251
S'MEAN_NETWORK_HITS'
p252
F0.013981352024518291
sS'MEAN_USER_HITS'
p253
F0.27063638299645376
sS'MEAN'
p254
F0.28461773502097204
ssS'OVERHEAD'
p255
g11
(tRp256
g254
F0.26922898862047573
ssS'ABS'
p257
g11
(tRp258
S'MEAN_ABS_TIME'
p259
F0.45956714330887444
sS'NUM_ABS'
p260
I1
sstp261
a(g11
(tRp262
S'workload'
p263
g11
(tRp264
S'n_contents'
p265
I10000
sS'disconnection_rate'
p266
F1.0000000000000001e-15
sS'name'
p267
S'STATIONARY_SIT'
p268
sS'n_warmup'
p269
I36000
sS'rate'
p270
I10
sS'n_measured'
p271
I108000
sS'alpha'
p272
F0.80000000000000004
ssS'cache_policy'
p273
g11
(tRp274
g267
S'LRU'
p275
ssS'desc'
p276
S'caching probability: 0.75'
p277
sS'strategy'
p278
g11
(tRp279
S'p'
F0.75
sg267
S'SIT_ONLY'
p280
ssS'content_placement'
p281
g11
(tRp282
g267
S'UNIFORM'
p283
ssS'joint_cache_rsn_placement'
p284
g11
(tRp285
S'network_cache'
p286
F0.94999999999999996
sS'network_rsn'
p287
F60.799999999999997
sg267
S'CACHE_ALL_RSN_ALL_SIT'
p288
sS'rsn_cache_ratio'
p289
I64
ssS'warmup_strategy'
p290
g11
(tRp291
S'p'
F0.10000000000000001
sg267
S'NDN'
p292
ssS'topology'
p293
g11
(tRp294
S'ext_delay'
p295
I2
sS'source_ratio'
p296
F1
sg267
S'ROCKET_FUEL'
p297
sS'asn'
p298
I3257
ssg11
(tRp299
S'CACHE_HIT_RATIO'
p300
g11
(tRp301
S'MEAN_NETWORK_HITS'
p302
F0.01369431764520699
sS'MEAN_USER_HITS'
p303
F0.27466412348033814
sS'MEAN'
p304
F0.28835844112554515
ssS'OVERHEAD'
p305
g11
(tRp306
g304
F0.28025666429014545
ssS'ABS'
p307
g11
(tRp308
S'MEAN_ABS_TIME'
p309
F0
sS'NUM_ABS'
p310
I0
sstp311
a(g11
(tRp312
S'workload'
p313
g11
(tRp314
S'n_contents'
p315
I10000
sS'disconnection_rate'
p316
F1.0000000000000001e-15
sS'name'
p317
S'STATIONARY_SIT'
p318
sS'n_warmup'
p319
I36000
sS'rate'
p320
I10
sS'n_measured'
p321
I108000
sS'alpha'
p322
F0.80000000000000004
ssS'cache_policy'
p323
g11
(tRp324
g317
S'LRU'
p325
ssS'desc'
p326
S'caching probability: 1.0'
p327
sS'strategy'
p328
g11
(tRp329
S'p'
F1
sg317
S'SIT_ONLY'
p330
ssS'content_placement'
p331
g11
(tRp332
g317
S'UNIFORM'
p333
ssS'joint_cache_rsn_placement'
p334
g11
(tRp335
S'network_cache'
p336
F0.94999999999999996
sS'network_rsn'
p337
F60.799999999999997
sg317
S'CACHE_ALL_RSN_ALL_SIT'
p338
sS'rsn_cache_ratio'
p339
I64
ssS'warmup_strategy'
p340
g11
(tRp341
S'p'
F0.10000000000000001
sg317
S'NDN'
p342
ssS'topology'
p343
g11
(tRp344
S'ext_delay'
p345
I2
sS'source_ratio'
p346
F1
sg317
S'ROCKET_FUEL'
p347
sS'asn'
p348
I3257
ssg11
(tRp349
S'CACHE_HIT_RATIO'
p350
g11
(tRp351
S'MEAN_NETWORK_HITS'
p352
F0.011648040295923185
sS'MEAN_USER_HITS'
p353
F0.27694188016777621
sS'MEAN'
p354
F0.28858992046369941
ssS'OVERHEAD'
p355
g11
(tRp356
g354
F0.2877843723669225
ssS'ABS'
p357
g11
(tRp358
S'MEAN_ABS_TIME'
p359
F0
sS'NUM_ABS'
p360
I0
sstp361
atRp362
sb.