ccopy_reg
_reconstructor
p1
(cicarus.results.readwrite
ResultSet
p2
c__builtin__
object
p3
NtRp4
(dp5
S'attr'
p6
(dp7
sS'_results'
p8
ccollections
deque
p9
((lp10
(cicarus.util
Tree
p11
(tRp12
S'workload'
p13
g11
(tRp14
S'n_contents'
p15
I10000
sS'name'
p16
S'STATIONARY'
p17
sS'n_warmup'
p18
I36000
sS'rate'
p19
I10
sS'n_measured'
p20
I108000
sS'alpha'
p21
F0.80000000000000004
ssS'cache_policy'
p22
g11
(tRp23
g16
S'LRU'
p24
ssS'desc'
p25
S'caching probability: 1.0'
p26
sS'strategy'
p27
g11
(tRp28
S'p'
F1
sg16
S'SIT_ONLY'
p29
ssS'content_placement'
p30
g11
(tRp31
g16
S'LOWEST_DEGREE'
p32
ssS'joint_cache_rsn_placement'
p33
g11
(tRp34
S'network_cache'
p35
F0.94999999999999996
sS'network_rsn'
p36
F60.799999999999997
sg16
S'CACHE_ALL_RSN_ALL_SIT'
p37
sS'rsn_cache_ratio'
p38
I64
ssS'warmup_strategy'
p39
g11
(tRp40
S'p'
F0.10000000000000001
sg16
S'NDN'
p41
ssS'topology'
p42
g11
(tRp43
S'ext_delay'
p44
I5
sS'source_ratio'
p45
F0.10000000000000001
sg16
S'ROCKET_FUEL'
p46
sS'asn'
p47
I3257
ssg11
(tRp48
S'CACHE_HIT_RATIO'
p49
g11
(tRp50
S'MEAN_NETWORK_HITS'
p51
F0.059583333333333335
sS'MEAN_USER_HITS'
p52
F0.081111111111111106
sS'MEAN'
p53
F0.14069444444444446
ssS'OVERHEAD'
p54
g11
(tRp55
g53
F0.12342592592592593
ssS'ABS'
p56
g11
(tRp57
S'MEAN_ABS_TIME'
p58
F646.27723657541196
sg53
F0.77411124340874293
sstp59
a(g11
(tRp60
S'workload'
p61
g11
(tRp62
S'n_contents'
p63
I10000
sS'name'
p64
S'STATIONARY'
p65
sS'n_warmup'
p66
I36000
sS'rate'
p67
I10
sS'n_measured'
p68
I108000
sS'alpha'
p69
F0.80000000000000004
ssS'cache_policy'
p70
g11
(tRp71
g64
S'LRU'
p72
ssS'desc'
p73
S'caching probability: 1.0'
p74
sS'strategy'
p75
g11
(tRp76
S'p'
F1
sg64
S'SIT_ONLY'
p77
ssS'content_placement'
p78
g11
(tRp79
g64
S'LOWEST_DEGREE'
p80
ssS'joint_cache_rsn_placement'
p81
g11
(tRp82
S'network_cache'
p83
F0.94999999999999996
sS'network_rsn'
p84
F60.799999999999997
sg64
S'CACHE_ALL_RSN_ALL_SIT'
p85
sS'rsn_cache_ratio'
p86
I64
ssS'warmup_strategy'
p87
g11
(tRp88
S'p'
F0.10000000000000001
sg64
S'NDN'
p89
ssS'topology'
p90
g11
(tRp91
S'ext_delay'
p92
I5
sS'source_ratio'
p93
F0.10000000000000001
sg64
S'ROCKET_FUEL'
p94
sS'asn'
p95
I3257
ssg11
(tRp96
S'CACHE_HIT_RATIO'
p97
g11
(tRp98
S'MEAN_NETWORK_HITS'
p99
F0.060194444444444446
sS'MEAN_USER_HITS'
p100
F0.080972222222222223
sS'MEAN'
p101
F0.14116666666666666
ssS'OVERHEAD'
p102
g11
(tRp103
g101
F0.12465740740740741
ssS'ABS'
p104
g11
(tRp105
S'MEAN_ABS_TIME'
p106
F589.96098103418831
sg101
F0.76946564885496183
sstp107
a(g11
(tRp108
S'workload'
p109
g11
(tRp110
S'n_contents'
p111
I10000
sS'name'
p112
S'STATIONARY'
p113
sS'n_warmup'
p114
I36000
sS'rate'
p115
I10
sS'n_measured'
p116
I108000
sS'alpha'
p117
F0.80000000000000004
ssS'cache_policy'
p118
g11
(tRp119
g112
S'LRU'
p120
ssS'desc'
p121
S'caching probability: 1.0'
p122
sS'strategy'
p123
g11
(tRp124
S'p'
F1
sg112
S'SIT_ONLY'
p125
ssS'content_placement'
p126
g11
(tRp127
g112
S'LOWEST_DEGREE'
p128
ssS'joint_cache_rsn_placement'
p129
g11
(tRp130
S'network_cache'
p131
F0.94999999999999996
sS'network_rsn'
p132
F60.799999999999997
sg112
S'CACHE_ALL_RSN_ALL_SIT'
p133
sS'rsn_cache_ratio'
p134
I64
ssS'warmup_strategy'
p135
g11
(tRp136
S'p'
F0.10000000000000001
sg112
S'NDN'
p137
ssS'topology'
p138
g11
(tRp139
S'ext_delay'
p140
I5
sS'source_ratio'
p141
F0.10000000000000001
sg112
S'ROCKET_FUEL'
p142
sS'asn'
p143
I3257
ssg11
(tRp144
S'CACHE_HIT_RATIO'
p145
g11
(tRp146
S'MEAN_NETWORK_HITS'
p147
F0.056064814814814817
sS'MEAN_USER_HITS'
p148
F0.084185185185185182
sS'MEAN'
p149
F0.14025000000000001
ssS'OVERHEAD'
p150
g11
(tRp151
g149
F0.11667592592592592
ssS'ABS'
p152
g11
(tRp153
S'MEAN_ABS_TIME'
p154
F596.48867515902612
sg149
F0.77669404517453799
sstp155
a(g11
(tRp156
S'workload'
p157
g11
(tRp158
S'n_contents'
p159
I10000
sS'name'
p160
S'STATIONARY'
p161
sS'n_warmup'
p162
I36000
sS'rate'
p163
I10
sS'n_measured'
p164
I108000
sS'alpha'
p165
F0.80000000000000004
ssS'cache_policy'
p166
g11
(tRp167
g160
S'LRU'
p168
ssS'desc'
p169
S'caching probability: 1.0'
p170
sS'strategy'
p171
g11
(tRp172
S'p'
F1
sg160
S'SIT_ONLY'
p173
ssS'content_placement'
p174
g11
(tRp175
g160
S'LOWEST_DEGREE'
p176
ssS'joint_cache_rsn_placement'
p177
g11
(tRp178
S'network_cache'
p179
F0.94999999999999996
sS'network_rsn'
p180
F60.799999999999997
sg160
S'CACHE_ALL_RSN_ALL_SIT'
p181
sS'rsn_cache_ratio'
p182
I64
ssS'warmup_strategy'
p183
g11
(tRp184
S'p'
F0.10000000000000001
sg160
S'NDN'
p185
ssS'topology'
p186
g11
(tRp187
S'ext_delay'
p188
I5
sS'source_ratio'
p189
F0.10000000000000001
sg160
S'ROCKET_FUEL'
p190
sS'asn'
p191
I3257
ssg11
(tRp192
S'CACHE_HIT_RATIO'
p193
g11
(tRp194
S'MEAN_NETWORK_HITS'
p195
F0.060675925925925925
sS'MEAN_USER_HITS'
p196
F0.080851851851851855
sS'MEAN'
p197
F0.14152777777777778
ssS'OVERHEAD'
p198
g11
(tRp199
g197
F0.12565740740740741
ssS'ABS'
p200
g11
(tRp201
S'MEAN_ABS_TIME'
p202
F577.80243209758032
sg197
F0.76881171263193737
sstp203
a(g11
(tRp204
S'workload'
p205
g11
(tRp206
S'n_contents'
p207
I10000
sS'name'
p208
S'STATIONARY'
p209
sS'n_warmup'
p210
I36000
sS'rate'
p211
I10
sS'n_measured'
p212
I108000
sS'alpha'
p213
F0.80000000000000004
ssS'cache_policy'
p214
g11
(tRp215
g208
S'LRU'
p216
ssS'desc'
p217
S'caching probability: 1.0'
p218
sS'strategy'
p219
g11
(tRp220
S'p'
F1
sg208
S'SIT_ONLY'
p221
ssS'content_placement'
p222
g11
(tRp223
g208
S'LOWEST_DEGREE'
p224
ssS'joint_cache_rsn_placement'
p225
g11
(tRp226
S'network_cache'
p227
F0.94999999999999996
sS'network_rsn'
p228
F60.799999999999997
sg208
S'CACHE_ALL_RSN_ALL_SIT'
p229
sS'rsn_cache_ratio'
p230
I64
ssS'warmup_strategy'
p231
g11
(tRp232
S'p'
F0.10000000000000001
sg208
S'NDN'
p233
ssS'topology'
p234
g11
(tRp235
S'ext_delay'
p236
I5
sS'source_ratio'
p237
F0.10000000000000001
sg208
S'ROCKET_FUEL'
p238
sS'asn'
p239
I3257
ssg11
(tRp240
S'CACHE_HIT_RATIO'
p241
g11
(tRp242
S'MEAN_NETWORK_HITS'
p243
F0.06037962962962963
sS'MEAN_USER_HITS'
p244
F0.081916666666666665
sS'MEAN'
p245
F0.14229629629629631
ssS'OVERHEAD'
p246
g11
(tRp247
g245
F0.12425925925925926
ssS'ABS'
p248
g11
(tRp249
S'MEAN_ABS_TIME'
p250
F647.97856367220572
sg245
F0.77335375191424194
sstp251
a(g11
(tRp252
S'workload'
p253
g11
(tRp254
S'n_contents'
p255
I10000
sS'name'
p256
S'STATIONARY'
p257
sS'n_warmup'
p258
I36000
sS'rate'
p259
I10
sS'n_measured'
p260
I108000
sS'alpha'
p261
F0.80000000000000004
ssS'cache_policy'
p262
g11
(tRp263
g256
S'LRU'
p264
ssS'desc'
p265
S'caching probability: 1.0'
p266
sS'strategy'
p267
g11
(tRp268
S'p'
F1
sg256
S'SIT_ONLY'
p269
ssS'content_placement'
p270
g11
(tRp271
g256
S'LOWEST_DEGREE'
p272
ssS'joint_cache_rsn_placement'
p273
g11
(tRp274
S'network_cache'
p275
F0.94999999999999996
sS'network_rsn'
p276
F60.799999999999997
sg256
S'CACHE_ALL_RSN_ALL_SIT'
p277
sS'rsn_cache_ratio'
p278
I64
ssS'warmup_strategy'
p279
g11
(tRp280
S'p'
F0.10000000000000001
sg256
S'NDN'
p281
ssS'topology'
p282
g11
(tRp283
S'ext_delay'
p284
I5
sS'source_ratio'
p285
F0.10000000000000001
sg256
S'ROCKET_FUEL'
p286
sS'asn'
p287
I3257
ssg11
(tRp288
S'CACHE_HIT_RATIO'
p289
g11
(tRp290
S'MEAN_NETWORK_HITS'
p291
F0.058101851851851849
sS'MEAN_USER_HITS'
p292
F0.082203703703703709
sS'MEAN'
p293
F0.14030555555555554
ssS'OVERHEAD'
p294
g11
(tRp295
g293
F0.12420370370370371
ssS'ABS'
p296
g11
(tRp297
S'MEAN_ABS_TIME'
p298
F613.95672155583657
sg293
F0.76634097035040427
sstp299
a(g11
(tRp300
S'workload'
p301
g11
(tRp302
S'n_contents'
p303
I10000
sS'name'
p304
S'STATIONARY'
p305
sS'n_warmup'
p306
I36000
sS'rate'
p307
I10
sS'n_measured'
p308
I108000
sS'alpha'
p309
F0.80000000000000004
ssS'cache_policy'
p310
g11
(tRp311
g304
S'LRU'
p312
ssS'desc'
p313
S'caching probability: 1.0'
p314
sS'strategy'
p315
g11
(tRp316
S'p'
F1
sg304
S'SIT_ONLY'
p317
ssS'content_placement'
p318
g11
(tRp319
g304
S'LOWEST_DEGREE'
p320
ssS'joint_cache_rsn_placement'
p321
g11
(tRp322
S'network_cache'
p323
F0.94999999999999996
sS'network_rsn'
p324
F60.799999999999997
sg304
S'CACHE_ALL_RSN_ALL_SIT'
p325
sS'rsn_cache_ratio'
p326
I64
ssS'warmup_strategy'
p327
g11
(tRp328
S'p'
F0.10000000000000001
sg304
S'NDN'
p329
ssS'topology'
p330
g11
(tRp331
S'ext_delay'
p332
I5
sS'source_ratio'
p333
F0.10000000000000001
sg304
S'ROCKET_FUEL'
p334
sS'asn'
p335
I3257
ssg11
(tRp336
S'CACHE_HIT_RATIO'
p337
g11
(tRp338
S'MEAN_NETWORK_HITS'
p339
F0.058083333333333334
sS'MEAN_USER_HITS'
p340
F0.078092592592592588
sS'MEAN'
p341
F0.13617592592592592
ssS'OVERHEAD'
p342
g11
(tRp343
g341
F0.11978703703703704
ssS'ABS'
p344
g11
(tRp345
S'MEAN_ABS_TIME'
p346
F564.78667096420463
sg341
F0.77501278336458157
sstp347
a(g11
(tRp348
S'workload'
p349
g11
(tRp350
S'n_contents'
p351
I10000
sS'name'
p352
S'STATIONARY'
p353
sS'n_warmup'
p354
I36000
sS'rate'
p355
I10
sS'n_measured'
p356
I108000
sS'alpha'
p357
F0.80000000000000004
ssS'cache_policy'
p358
g11
(tRp359
g352
S'LRU'
p360
ssS'desc'
p361
S'caching probability: 1.0'
p362
sS'strategy'
p363
g11
(tRp364
S'p'
F1
sg352
S'SIT_ONLY'
p365
ssS'content_placement'
p366
g11
(tRp367
g352
S'LOWEST_DEGREE'
p368
ssS'joint_cache_rsn_placement'
p369
g11
(tRp370
S'network_cache'
p371
F0.94999999999999996
sS'network_rsn'
p372
F60.799999999999997
sg352
S'CACHE_ALL_RSN_ALL_SIT'
p373
sS'rsn_cache_ratio'
p374
I64
ssS'warmup_strategy'
p375
g11
(tRp376
S'p'
F0.10000000000000001
sg352
S'NDN'
p377
ssS'topology'
p378
g11
(tRp379
S'ext_delay'
p380
I5
sS'source_ratio'
p381
F0.10000000000000001
sg352
S'ROCKET_FUEL'
p382
sS'asn'
p383
I3257
ssg11
(tRp384
S'CACHE_HIT_RATIO'
p385
g11
(tRp386
S'MEAN_NETWORK_HITS'
p387
F0.057768518518518518
sS'MEAN_USER_HITS'
p388
F0.07934259259259259
sS'MEAN'
p389
F0.1371111111111111
ssS'OVERHEAD'
p390
g11
(tRp391
g389
F0.12492592592592593
ssS'ABS'
p392
g11
(tRp393
S'MEAN_ABS_TIME'
p394
F595.58335739897325
sg389
F0.76805954999154125
sstp395
a(g11
(tRp396
S'workload'
p397
g11
(tRp398
S'n_contents'
p399
I10000
sS'name'
p400
S'STATIONARY'
p401
sS'n_warmup'
p402
I36000
sS'rate'
p403
I10
sS'n_measured'
p404
I108000
sS'alpha'
p405
F0.80000000000000004
ssS'cache_policy'
p406
g11
(tRp407
g400
S'LRU'
p408
ssS'desc'
p409
S'caching probability: 1.0'
p410
sS'strategy'
p411
g11
(tRp412
S'p'
F1
sg400
S'SIT_ONLY'
p413
ssS'content_placement'
p414
g11
(tRp415
g400
S'LOWEST_DEGREE'
p416
ssS'joint_cache_rsn_placement'
p417
g11
(tRp418
S'network_cache'
p419
F0.94999999999999996
sS'network_rsn'
p420
F60.799999999999997
sg400
S'CACHE_ALL_RSN_ALL_SIT'
p421
sS'rsn_cache_ratio'
p422
I64
ssS'warmup_strategy'
p423
g11
(tRp424
S'p'
F0.10000000000000001
sg400
S'NDN'
p425
ssS'topology'
p426
g11
(tRp427
S'ext_delay'
p428
I5
sS'source_ratio'
p429
F0.10000000000000001
sg400
S'ROCKET_FUEL'
p430
sS'asn'
p431
I3257
ssg11
(tRp432
S'CACHE_HIT_RATIO'
p433
g11
(tRp434
S'MEAN_NETWORK_HITS'
p435
F0.059259259259259262
sS'MEAN_USER_HITS'
p436
F0.077157407407407411
sS'MEAN'
p437
F0.13641666666666666
ssS'OVERHEAD'
p438
g11
(tRp439
g437
F0.12352777777777778
ssS'ABS'
p440
g11
(tRp441
S'MEAN_ABS_TIME'
p442
F602.73622272098146
sg437
F0.7776828434723172
sstp443
a(g11
(tRp444
S'workload'
p445
g11
(tRp446
S'n_contents'
p447
I10000
sS'name'
p448
S'STATIONARY'
p449
sS'n_warmup'
p450
I36000
sS'rate'
p451
I10
sS'n_measured'
p452
I108000
sS'alpha'
p453
F0.80000000000000004
ssS'cache_policy'
p454
g11
(tRp455
g448
S'LRU'
p456
ssS'desc'
p457
S'caching probability: 1.0'
p458
sS'strategy'
p459
g11
(tRp460
S'p'
F1
sg448
S'SIT_ONLY'
p461
ssS'content_placement'
p462
g11
(tRp463
g448
S'LOWEST_DEGREE'
p464
ssS'joint_cache_rsn_placement'
p465
g11
(tRp466
S'network_cache'
p467
F0.94999999999999996
sS'network_rsn'
p468
F60.799999999999997
sg448
S'CACHE_ALL_RSN_ALL_SIT'
p469
sS'rsn_cache_ratio'
p470
I64
ssS'warmup_strategy'
p471
g11
(tRp472
S'p'
F0.10000000000000001
sg448
S'NDN'
p473
ssS'topology'
p474
g11
(tRp475
S'ext_delay'
p476
I5
sS'source_ratio'
p477
F0.10000000000000001
sg448
S'ROCKET_FUEL'
p478
sS'asn'
p479
I3257
ssg11
(tRp480
S'CACHE_HIT_RATIO'
p481
g11
(tRp482
S'MEAN_NETWORK_HITS'
p483
F0.058981481481481482
sS'MEAN_USER_HITS'
p484
F0.084750000000000006
sS'MEAN'
p485
F0.14373148148148149
ssS'OVERHEAD'
p486
g11
(tRp487
g485
F0.12404629629629629
ssS'ABS'
p488
g11
(tRp489
S'MEAN_ABS_TIME'
p490
F609.88945012404645
sg485
F0.76438727149627628
sstp491
a(g11
(tRp492
S'workload'
p493
g11
(tRp494
S'n_contents'
p495
I10000
sS'name'
p496
S'STATIONARY'
p497
sS'n_warmup'
p498
I36000
sS'rate'
p499
I10
sS'n_measured'
p500
I108000
sS'alpha'
p501
F0.80000000000000004
ssS'cache_policy'
p502
g11
(tRp503
g496
S'LRU'
p504
ssS'desc'
p505
S'caching probability: 1.0'
p506
sS'strategy'
p507
g11
(tRp508
S'p'
F1
sg496
S'SIT_ONLY'
p509
ssS'content_placement'
p510
g11
(tRp511
g496
S'LOWEST_DEGREE'
p512
ssS'joint_cache_rsn_placement'
p513
g11
(tRp514
S'network_cache'
p515
F0.94999999999999996
sS'network_rsn'
p516
F60.799999999999997
sg496
S'CACHE_ALL_RSN_ALL_SIT'
p517
sS'rsn_cache_ratio'
p518
I64
ssS'warmup_strategy'
p519
g11
(tRp520
S'p'
F0.10000000000000001
sg496
S'NDN'
p521
ssS'topology'
p522
g11
(tRp523
S'ext_delay'
p524
I5
sS'source_ratio'
p525
F0.10000000000000001
sg496
S'ROCKET_FUEL'
p526
sS'asn'
p527
I3257
ssg11
(tRp528
S'CACHE_HIT_RATIO'
p529
g11
(tRp530
S'MEAN_NETWORK_HITS'
p531
F0.058999999999999997
sS'MEAN_USER_HITS'
p532
F0.083305555555555549
sS'MEAN'
p533
F0.14230555555555555
ssS'OVERHEAD'
p534
g11
(tRp535
g533
F0.12387962962962963
ssS'ABS'
p536
g11
(tRp537
S'MEAN_ABS_TIME'
p538
F655.46029179631898
sg533
F0.78428716559431089
sstp539
a(g11
(tRp540
S'workload'
p541
g11
(tRp542
S'n_contents'
p543
I10000
sS'name'
p544
S'STATIONARY'
p545
sS'n_warmup'
p546
I36000
sS'rate'
p547
I10
sS'n_measured'
p548
I108000
sS'alpha'
p549
F0.80000000000000004
ssS'cache_policy'
p550
g11
(tRp551
g544
S'LRU'
p552
ssS'desc'
p553
S'caching probability: 1.0'
p554
sS'strategy'
p555
g11
(tRp556
S'p'
F1
sg544
S'SIT_ONLY'
p557
ssS'content_placement'
p558
g11
(tRp559
g544
S'LOWEST_DEGREE'
p560
ssS'joint_cache_rsn_placement'
p561
g11
(tRp562
S'network_cache'
p563
F0.94999999999999996
sS'network_rsn'
p564
F60.799999999999997
sg544
S'CACHE_ALL_RSN_ALL_SIT'
p565
sS'rsn_cache_ratio'
p566
I64
ssS'warmup_strategy'
p567
g11
(tRp568
S'p'
F0.10000000000000001
sg544
S'NDN'
p569
ssS'topology'
p570
g11
(tRp571
S'ext_delay'
p572
I5
sS'source_ratio'
p573
F0.10000000000000001
sg544
S'ROCKET_FUEL'
p574
sS'asn'
p575
I3257
ssg11
(tRp576
S'CACHE_HIT_RATIO'
p577
g11
(tRp578
S'MEAN_NETWORK_HITS'
p579
F0.06026851851851852
sS'MEAN_USER_HITS'
p580
F0.080500000000000002
sS'MEAN'
p581
F0.14076851851851852
ssS'OVERHEAD'
p582
g11
(tRp583
g581
F0.12511111111111112
ssS'ABS'
p584
g11
(tRp585
S'MEAN_ABS_TIME'
p586
F583.22433545766364
sg581
F0.76132315521628502
sstp587
a(g11
(tRp588
S'workload'
p589
g11
(tRp590
S'n_contents'
p591
I10000
sS'name'
p592
S'STATIONARY'
p593
sS'n_warmup'
p594
I36000
sS'rate'
p595
I10
sS'n_measured'
p596
I108000
sS'alpha'
p597
F0.80000000000000004
ssS'cache_policy'
p598
g11
(tRp599
g592
S'LRU'
p600
ssS'desc'
p601
S'caching probability: 1.0'
p602
sS'strategy'
p603
g11
(tRp604
S'p'
F1
sg592
S'SIT_ONLY'
p605
ssS'content_placement'
p606
g11
(tRp607
g592
S'LOWEST_DEGREE'
p608
ssS'joint_cache_rsn_placement'
p609
g11
(tRp610
S'network_cache'
p611
F0.94999999999999996
sS'network_rsn'
p612
F60.799999999999997
sg592
S'CACHE_ALL_RSN_ALL_SIT'
p613
sS'rsn_cache_ratio'
p614
I64
ssS'warmup_strategy'
p615
g11
(tRp616
S'p'
F0.10000000000000001
sg592
S'NDN'
p617
ssS'topology'
p618
g11
(tRp619
S'ext_delay'
p620
I5
sS'source_ratio'
p621
F0.10000000000000001
sg592
S'ROCKET_FUEL'
p622
sS'asn'
p623
I3257
ssg11
(tRp624
S'CACHE_HIT_RATIO'
p625
g11
(tRp626
S'MEAN_NETWORK_HITS'
p627
F0.060222222222222226
sS'MEAN_USER_HITS'
p628
F0.079157407407407412
sS'MEAN'
p629
F0.13937962962962963
ssS'OVERHEAD'
p630
g11
(tRp631
g629
F0.12004629629629629
ssS'ABS'
p632
g11
(tRp633
S'MEAN_ABS_TIME'
p634
F574.40612063991182
sg629
F0.78506437768240345
sstp635
a(g11
(tRp636
S'workload'
p637
g11
(tRp638
S'n_contents'
p639
I10000
sS'name'
p640
S'STATIONARY'
p641
sS'n_warmup'
p642
I36000
sS'rate'
p643
I10
sS'n_measured'
p644
I108000
sS'alpha'
p645
F0.80000000000000004
ssS'cache_policy'
p646
g11
(tRp647
g640
S'LRU'
p648
ssS'desc'
p649
S'caching probability: 1.0'
p650
sS'strategy'
p651
g11
(tRp652
S'p'
F1
sg640
S'SIT_ONLY'
p653
ssS'content_placement'
p654
g11
(tRp655
g640
S'LOWEST_DEGREE'
p656
ssS'joint_cache_rsn_placement'
p657
g11
(tRp658
S'network_cache'
p659
F0.94999999999999996
sS'network_rsn'
p660
F60.799999999999997
sg640
S'CACHE_ALL_RSN_ALL_SIT'
p661
sS'rsn_cache_ratio'
p662
I64
ssS'warmup_strategy'
p663
g11
(tRp664
S'p'
F0.10000000000000001
sg640
S'NDN'
p665
ssS'topology'
p666
g11
(tRp667
S'ext_delay'
p668
I5
sS'source_ratio'
p669
F0.10000000000000001
sg640
S'ROCKET_FUEL'
p670
sS'asn'
p671
I3257
ssg11
(tRp672
S'CACHE_HIT_RATIO'
p673
g11
(tRp674
S'MEAN_NETWORK_HITS'
p675
F0.056685185185185186
sS'MEAN_USER_HITS'
p676
F0.081611111111111106
sS'MEAN'
p677
F0.13829629629629631
ssS'OVERHEAD'
p678
g11
(tRp679
g677
F0.11892592592592592
ssS'ABS'
p680
g11
(tRp681
S'MEAN_ABS_TIME'
p682
F563.05236507327334
sg677
F0.75478732418234196
sstp683
atRp684
sb.