ccopy_reg
_reconstructor
p1
(cicarus.results.readwrite
ResultSet
p2
c__builtin__
object
p3
NtRp4
(dp5
S'attr'
p6
(dp7
sS'_results'
p8
ccollections
deque
p9
((lp10
(cicarus.util
Tree
p11
(tRp12
S'workload'
p13
g11
(tRp14
S'n_contents'
p15
I10000
sS'disconnection_rate'
p16
F0.0001
sS'name'
p17
S'STATIONARY_SIT'
p18
sS'n_warmup'
p19
I36000
sS'rate'
p20
I10
sS'n_measured'
p21
I108000
sS'alpha'
p22
F0.80000000000000004
ssS'cache_policy'
p23
g11
(tRp24
g17
S'LRU'
p25
ssS'desc'
p26
S'caching probability: 0.1'
p27
sS'strategy'
p28
g11
(tRp29
S'p'
F0.10000000000000001
sg17
S'SIT_ONLY'
p30
ssS'content_placement'
p31
g11
(tRp32
g17
S'UNIFORM'
p33
ssS'joint_cache_rsn_placement'
p34
g11
(tRp35
S'network_cache'
p36
F0.94999999999999996
sS'network_rsn'
p37
F60.799999999999997
sg17
S'CACHE_ALL_RSN_ALL_SIT'
p38
sS'rsn_cache_ratio'
p39
I64
ssS'warmup_strategy'
p40
g11
(tRp41
S'p'
F0.10000000000000001
sg17
S'NDN'
p42
ssS'topology'
p43
g11
(tRp44
S'ext_delay'
p45
I2
sS'source_ratio'
p46
F1
sg17
S'ROCKET_FUEL'
p47
sS'asn'
p48
I3257
ssg11
(tRp49
S'CACHE_HIT_RATIO'
p50
g11
(tRp51
S'MEAN_NETWORK_HITS'
p52
F0.013435225283331798
sS'MEAN_USER_HITS'
p53
F0.14153344697318715
sS'MEAN'
p54
F0.15496867225651895
ssS'OVERHEAD'
p55
g11
(tRp56
g54
F0.13247489173500415
ssS'ABS'
p57
g11
(tRp58
S'MEAN_ABS_TIME'
p59
F8074.4503738790436
sS'NUM_ABS'
p60
I6707
sstp61
a(g11
(tRp62
S'workload'
p63
g11
(tRp64
S'n_contents'
p65
I10000
sS'disconnection_rate'
p66
F0.0001
sS'name'
p67
S'STATIONARY_SIT'
p68
sS'n_warmup'
p69
I36000
sS'rate'
p70
I10
sS'n_measured'
p71
I108000
sS'alpha'
p72
F0.80000000000000004
ssS'cache_policy'
p73
g11
(tRp74
g67
S'LRU'
p75
ssS'desc'
p76
S'caching probability: 0.5'
p77
sS'strategy'
p78
g11
(tRp79
S'p'
F0.5
sg67
S'SIT_ONLY'
p80
ssS'content_placement'
p81
g11
(tRp82
g67
S'UNIFORM'
p83
ssS'joint_cache_rsn_placement'
p84
g11
(tRp85
S'network_cache'
p86
F0.94999999999999996
sS'network_rsn'
p87
F60.799999999999997
sg67
S'CACHE_ALL_RSN_ALL_SIT'
p88
sS'rsn_cache_ratio'
p89
I64
ssS'warmup_strategy'
p90
g11
(tRp91
S'p'
F0.10000000000000001
sg67
S'NDN'
p92
ssS'topology'
p93
g11
(tRp94
S'ext_delay'
p95
I2
sS'source_ratio'
p96
F1
sg67
S'ROCKET_FUEL'
p97
sS'asn'
p98
I3257
ssg11
(tRp99
S'CACHE_HIT_RATIO'
p100
g11
(tRp101
S'MEAN_NETWORK_HITS'
p102
F0.015722872872297632
sS'MEAN_USER_HITS'
p103
F0.14090820278828139
sS'MEAN'
p104
F0.15663107566057904
ssS'OVERHEAD'
p105
g11
(tRp106
g104
F0.13814980403875551
ssS'ABS'
p107
g11
(tRp108
S'MEAN_ABS_TIME'
p109
F8124.4434552145804
sS'NUM_ABS'
p110
I6746
sstp111
a(g11
(tRp112
S'workload'
p113
g11
(tRp114
S'n_contents'
p115
I10000
sS'disconnection_rate'
p116
F0.0001
sS'name'
p117
S'STATIONARY_SIT'
p118
sS'n_warmup'
p119
I36000
sS'rate'
p120
I10
sS'n_measured'
p121
I108000
sS'alpha'
p122
F0.80000000000000004
ssS'cache_policy'
p123
g11
(tRp124
g117
S'LRU'
p125
ssS'desc'
p126
S'caching probability: 0.1'
p127
sS'strategy'
p128
g11
(tRp129
S'scope'
p130
I2
sg117
S'SCOPED_FLOODING'
p131
sS'p'
F0.10000000000000001
ssS'content_placement'
p132
g11
(tRp133
g117
S'UNIFORM'
p134
ssS'joint_cache_rsn_placement'
p135
g11
(tRp136
S'network_cache'
p137
F0.94999999999999996
sS'network_rsn'
p138
F60.799999999999997
sg117
S'CACHE_ALL_RSN_ALL_SIT'
p139
sS'rsn_cache_ratio'
p140
I64
ssS'warmup_strategy'
p141
g11
(tRp142
S'p'
F0.10000000000000001
sg117
S'NDN'
p143
ssS'topology'
p144
g11
(tRp145
S'ext_delay'
p146
I2
sS'source_ratio'
p147
F1
sg117
S'ROCKET_FUEL'
p148
sS'asn'
p149
I3257
ssg11
(tRp150
S'CACHE_HIT_RATIO'
p151
g11
(tRp152
S'MEAN_NETWORK_HITS'
p153
F0.09901143654755272
sS'MEAN_USER_HITS'
p154
F0.18404167935160348
sS'MEAN'
p155
F0.28305311589915622
ssS'OVERHEAD'
p156
g11
(tRp157
g155
F0.69189102251121537
ssS'ABS'
p158
g11
(tRp159
S'MEAN_ABS_TIME'
p160
F7798.4479137739572
sS'NUM_ABS'
p161
I6551
sstp162
a(g11
(tRp163
S'workload'
p164
g11
(tRp165
S'n_contents'
p166
I10000
sS'disconnection_rate'
p167
F0.0001
sS'name'
p168
S'STATIONARY_SIT'
p169
sS'n_warmup'
p170
I36000
sS'rate'
p171
I10
sS'n_measured'
p172
I108000
sS'alpha'
p173
F0.80000000000000004
ssS'cache_policy'
p174
g11
(tRp175
g168
S'LRU'
p176
ssS'desc'
p177
S'caching probability: 0.5'
p178
sS'strategy'
p179
g11
(tRp180
S'scope'
p181
I2
sg168
S'SCOPED_FLOODING'
p182
sS'p'
F0.5
ssS'content_placement'
p183
g11
(tRp184
g168
S'UNIFORM'
p185
ssS'joint_cache_rsn_placement'
p186
g11
(tRp187
S'network_cache'
p188
F0.94999999999999996
sS'network_rsn'
p189
F60.799999999999997
sg168
S'CACHE_ALL_RSN_ALL_SIT'
p190
sS'rsn_cache_ratio'
p191
I64
ssS'warmup_strategy'
p192
g11
(tRp193
S'p'
F0.10000000000000001
sg168
S'NDN'
p194
ssS'topology'
p195
g11
(tRp196
S'ext_delay'
p197
I2
sS'source_ratio'
p198
F1
sg168
S'ROCKET_FUEL'
p199
sS'asn'
p200
I3257
ssg11
(tRp201
S'CACHE_HIT_RATIO'
p202
g11
(tRp203
S'MEAN_NETWORK_HITS'
p204
F0.096477513105858545
sS'MEAN_USER_HITS'
p205
F0.17834889175020693
sS'MEAN'
p206
F0.27482640485606546
ssS'OVERHEAD'
p207
g11
(tRp208
g206
F0.72131081578221279
ssS'ABS'
p209
g11
(tRp210
S'MEAN_ABS_TIME'
p211
F8054.3236967445755
sS'NUM_ABS'
p212
I6968
sstp213
a(g11
(tRp214
S'workload'
p215
g11
(tRp216
S'n_contents'
p217
I10000
sS'disconnection_rate'
p218
F0.0001
sS'name'
p219
S'STATIONARY_SIT'
p220
sS'n_warmup'
p221
I36000
sS'rate'
p222
I10
sS'n_measured'
p223
I108000
sS'alpha'
p224
F0.80000000000000004
ssS'cache_policy'
p225
g11
(tRp226
g219
S'LRU'
p227
ssS'desc'
p228
S'caching probability: 1.0'
p229
sS'strategy'
p230
g11
(tRp231
S'scope'
p232
I2
sg219
S'SCOPED_FLOODING'
p233
sS'p'
F1
ssS'content_placement'
p234
g11
(tRp235
g219
S'UNIFORM'
p236
ssS'joint_cache_rsn_placement'
p237
g11
(tRp238
S'network_cache'
p239
F0.94999999999999996
sS'network_rsn'
p240
F60.799999999999997
sg219
S'CACHE_ALL_RSN_ALL_SIT'
p241
sS'rsn_cache_ratio'
p242
I64
ssS'warmup_strategy'
p243
g11
(tRp244
S'p'
F0.10000000000000001
sg219
S'NDN'
p245
ssS'topology'
p246
g11
(tRp247
S'ext_delay'
p248
I2
sS'source_ratio'
p249
F1
sg219
S'ROCKET_FUEL'
p250
sS'asn'
p251
I3257
ssg11
(tRp252
S'CACHE_HIT_RATIO'
p253
g11
(tRp254
S'MEAN_NETWORK_HITS'
p255
F0.095019033708640496
sS'MEAN_USER_HITS'
p256
F0.17876160136168648
sS'MEAN'
p257
F0.27378063507032696
ssS'OVERHEAD'
p258
g11
(tRp259
g257
F0.72424698968384493
ssS'ABS'
p260
g11
(tRp261
S'MEAN_ABS_TIME'
p262
F7853.6761616637323
sS'NUM_ABS'
p263
I6881
sstp264
a(g11
(tRp265
S'workload'
p266
g11
(tRp267
S'n_contents'
p268
I10000
sS'disconnection_rate'
p269
F0.0001
sS'name'
p270
S'STATIONARY_SIT'
p271
sS'n_warmup'
p272
I36000
sS'rate'
p273
I10
sS'n_measured'
p274
I108000
sS'alpha'
p275
F0.80000000000000004
ssS'cache_policy'
p276
g11
(tRp277
g270
S'LRU'
p278
ssS'desc'
p279
S'caching probability: 1.0'
p280
sS'strategy'
p281
g11
(tRp282
S'p'
F1
sg270
S'SIT_ONLY'
p283
ssS'content_placement'
p284
g11
(tRp285
g270
S'UNIFORM'
p286
ssS'joint_cache_rsn_placement'
p287
g11
(tRp288
S'network_cache'
p289
F0.94999999999999996
sS'network_rsn'
p290
F60.799999999999997
sg270
S'CACHE_ALL_RSN_ALL_SIT'
p291
sS'rsn_cache_ratio'
p292
I64
ssS'warmup_strategy'
p293
g11
(tRp294
S'p'
F0.10000000000000001
sg270
S'NDN'
p295
ssS'topology'
p296
g11
(tRp297
S'ext_delay'
p298
I2
sS'source_ratio'
p299
F1
sg270
S'ROCKET_FUEL'
p300
sS'asn'
p301
I3257
ssg11
(tRp302
S'CACHE_HIT_RATIO'
p303
g11
(tRp304
S'MEAN_NETWORK_HITS'
p305
F0.015153255824640412
sS'MEAN_USER_HITS'
p306
F0.14001539451311981
sS'MEAN'
p307
F0.1551686503377602
ssS'OVERHEAD'
p308
g11
(tRp309
g307
F0.13388631037176602
ssS'ABS'
p310
g11
(tRp311
S'MEAN_ABS_TIME'
p312
F8123.487654818834
sS'NUM_ABS'
p313
I6896
sstp314
a(g11
(tRp315
S'workload'
p316
g11
(tRp317
S'n_contents'
p318
I10000
sS'disconnection_rate'
p319
F0.0001
sS'name'
p320
S'STATIONARY_SIT'
p321
sS'n_warmup'
p322
I36000
sS'rate'
p323
I10
sS'n_measured'
p324
I108000
sS'alpha'
p325
F0.80000000000000004
ssS'cache_policy'
p326
g11
(tRp327
g320
S'LRU'
p328
ssS'desc'
p329
S'caching probability: 0.1'
p330
sS'strategy'
p331
g11
(tRp332
S'scope'
p333
I2
sg320
S'SIT_WITH_SCOPED_FLOODING'
p334
sS'p'
F0.10000000000000001
ssS'content_placement'
p335
g11
(tRp336
g320
S'UNIFORM'
p337
ssS'joint_cache_rsn_placement'
p338
g11
(tRp339
S'network_cache'
p340
F0.94999999999999996
sS'network_rsn'
p341
F60.799999999999997
sg320
S'CACHE_ALL_RSN_ALL_SIT'
p342
sS'rsn_cache_ratio'
p343
I64
ssS'warmup_strategy'
p344
g11
(tRp345
S'p'
F0.10000000000000001
sg320
S'NDN'
p346
ssS'topology'
p347
g11
(tRp348
S'ext_delay'
p349
I2
sS'source_ratio'
p350
F1
sg320
S'ROCKET_FUEL'
p351
sS'asn'
p352
I3257
ssg11
(tRp353
S'CACHE_HIT_RATIO'
p354
g11
(tRp355
S'MEAN_NETWORK_HITS'
p356
F0.11149881960039154
sS'MEAN_USER_HITS'
p357
F0.3614786664363448
sS'MEAN'
p358
F0.47297748603673634
ssS'OVERHEAD'
p359
g11
(tRp360
g358
F3.0883687453215871
ssS'ABS'
p361
g11
(tRp362
S'MEAN_ABS_TIME'
p363
F4525.2269076885696
sS'NUM_ABS'
p364
I3819
sstp365
a(g11
(tRp366
S'workload'
p367
g11
(tRp368
S'n_contents'
p369
I10000
sS'disconnection_rate'
p370
F0.0001
sS'name'
p371
S'STATIONARY_SIT'
p372
sS'n_warmup'
p373
I36000
sS'rate'
p374
I10
sS'n_measured'
p375
I108000
sS'alpha'
p376
F0.80000000000000004
ssS'cache_policy'
p377
g11
(tRp378
g371
S'LRU'
p379
ssS'desc'
p380
S'caching probability: 0.5'
p381
sS'strategy'
p382
g11
(tRp383
S'scope'
p384
I2
sg371
S'SIT_WITH_SCOPED_FLOODING'
p385
sS'p'
F0.5
ssS'content_placement'
p386
g11
(tRp387
g371
S'UNIFORM'
p388
ssS'joint_cache_rsn_placement'
p389
g11
(tRp390
S'network_cache'
p391
F0.94999999999999996
sS'network_rsn'
p392
F60.799999999999997
sg371
S'CACHE_ALL_RSN_ALL_SIT'
p393
sS'rsn_cache_ratio'
p394
I64
ssS'warmup_strategy'
p395
g11
(tRp396
S'p'
F0.10000000000000001
sg371
S'NDN'
p397
ssS'topology'
p398
g11
(tRp399
S'ext_delay'
p400
I2
sS'source_ratio'
p401
F1
sg371
S'ROCKET_FUEL'
p402
sS'asn'
p403
I3257
ssg11
(tRp404
S'CACHE_HIT_RATIO'
p405
g11
(tRp406
S'MEAN_NETWORK_HITS'
p407
F0.13660583417157637
sS'MEAN_USER_HITS'
p408
F0.33451932748958185
sS'MEAN'
p409
F0.4711251616611582
ssS'OVERHEAD'
p410
g11
(tRp411
g409
F3.0217674953297888
ssS'ABS'
p412
g11
(tRp413
S'MEAN_ABS_TIME'
p414
F4348.9998236036181
sS'NUM_ABS'
p415
I3759
sstp416
a(g11
(tRp417
S'workload'
p418
g11
(tRp419
S'n_contents'
p420
I10000
sS'disconnection_rate'
p421
F0.0001
sS'name'
p422
S'STATIONARY_SIT'
p423
sS'n_warmup'
p424
I36000
sS'rate'
p425
I10
sS'n_measured'
p426
I108000
sS'alpha'
p427
F0.80000000000000004
ssS'cache_policy'
p428
g11
(tRp429
g422
S'LRU'
p430
ssS'desc'
p431
S'caching probability: 1.0'
p432
sS'strategy'
p433
g11
(tRp434
S'scope'
p435
I2
sg422
S'SIT_WITH_SCOPED_FLOODING'
p436
sS'p'
F1
ssS'content_placement'
p437
g11
(tRp438
g422
S'UNIFORM'
p439
ssS'joint_cache_rsn_placement'
p440
g11
(tRp441
S'network_cache'
p442
F0.94999999999999996
sS'network_rsn'
p443
F60.799999999999997
sg422
S'CACHE_ALL_RSN_ALL_SIT'
p444
sS'rsn_cache_ratio'
p445
I64
ssS'warmup_strategy'
p446
g11
(tRp447
S'p'
F0.10000000000000001
sg422
S'NDN'
p448
ssS'topology'
p449
g11
(tRp450
S'ext_delay'
p451
I2
sS'source_ratio'
p452
F1
sg422
S'ROCKET_FUEL'
p453
sS'asn'
p454
I3257
ssg11
(tRp455
S'CACHE_HIT_RATIO'
p456
g11
(tRp457
S'MEAN_NETWORK_HITS'
p458
F0.13522893677862718
sS'MEAN_USER_HITS'
p459
F0.33802045499094863
sS'MEAN'
p460
F0.47324939176957581
ssS'OVERHEAD'
p461
g11
(tRp462
g460
F3.059081946798575
ssS'ABS'
p463
g11
(tRp464
S'MEAN_ABS_TIME'
p465
F3832.3764668173158
sS'NUM_ABS'
p466
I3397
sstp467
atRp468
sb.