ccopy_reg
_reconstructor
p1
(cicarus.results.readwrite
ResultSet
p2
c__builtin__
object
p3
NtRp4
(dp5
S'attr'
p6
(dp7
sS'_results'
p8
ccollections
deque
p9
((lp10
(cicarus.util
Tree
p11
(tRp12
S'workload'
p13
g11
(tRp14
S'n_contents'
p15
I10000
sS'disconnection_rate'
p16
F0.0025000000000000001
sS'name'
p17
S'STATIONARY_SIT'
p18
sS'n_warmup'
p19
I36000
sS'rate'
p20
I100
sS'n_measured'
p21
I108000
sS'alpha'
p22
F0.69999999999999996
ssS'cache_policy'
p23
g11
(tRp24
g17
S'LRU'
p25
ssS'desc'
p26
S'strategy: NDN_SIT network_cache: 0.125'
p27
sS'strategy'
p28
g11
(tRp29
g17
S'NDN_SIT'
p30
ssS'content_placement'
p31
g11
(tRp32
g17
S'UNIFORM'
p33
ssS'joint_cache_rsn_placement'
p34
g11
(tRp35
S'network_cache'
p36
F0.125
sS'network_rsn'
p37
F8
sS'rsn_cache_ratio'
p38
I64
sg17
S'CACHE_ALL_RSN_ALL_SIT'
p39
ssS'warmup_strategy'
p40
g11
(tRp41
S'p'
F0.10000000000000001
sg17
S'NDN'
p42
ssS'topology'
p43
g11
(tRp44
S'ext_delay'
p45
I2
sS'source_ratio'
p46
F1
sg17
S'ROCKET_FUEL'
p47
sS'asn'
p48
I3257
ssg11
(tRp49
S'LATENCY'
p50
g11
(tRp51
S'MEAN'
p52
F0.28949202671263197
ssS'CACHE_HIT_RATIO'
p53
g11
(tRp54
S'MEAN_NETWORK_HITS'
p55
F0.070365556152099995
sS'MEAN_USER_HITS'
p56
F0
sg52
F0.070365556152099995
ssS'OVERHEAD'
p57
g11
(tRp58
g52
F4.1141155210494613
ssS'ABS'
p59
g11
(tRp60
S'MEAN_ABS_TIME'
p61
F94466.886202745052
sS'NUM_ABS'
p62
I8459
sstp63
a(g11
(tRp64
S'workload'
p65
g11
(tRp66
S'n_contents'
p67
I10000
sS'disconnection_rate'
p68
F0.0025000000000000001
sS'name'
p69
S'STATIONARY_SIT'
p70
sS'n_warmup'
p71
I36000
sS'rate'
p72
I100
sS'n_measured'
p73
I108000
sS'alpha'
p74
F0.69999999999999996
ssS'cache_policy'
p75
g11
(tRp76
g69
S'LRU'
p77
ssS'desc'
p78
S'strategy: NDN_SIT network_cache: 0.25'
p79
sS'strategy'
p80
g11
(tRp81
g69
S'NDN_SIT'
p82
ssS'content_placement'
p83
g11
(tRp84
g69
S'UNIFORM'
p85
ssS'joint_cache_rsn_placement'
p86
g11
(tRp87
S'network_cache'
p88
F0.25
sS'network_rsn'
p89
F16
sS'rsn_cache_ratio'
p90
I64
sg69
S'CACHE_ALL_RSN_ALL_SIT'
p91
ssS'warmup_strategy'
p92
g11
(tRp93
S'p'
F0.10000000000000001
sg69
S'NDN'
p94
ssS'topology'
p95
g11
(tRp96
S'ext_delay'
p97
I2
sS'source_ratio'
p98
F1
sg69
S'ROCKET_FUEL'
p99
sS'asn'
p100
I3257
ssg11
(tRp101
S'LATENCY'
p102
g11
(tRp103
S'MEAN'
p104
F0.3790248866859528
ssS'CACHE_HIT_RATIO'
p105
g11
(tRp106
S'MEAN_NETWORK_HITS'
p107
F0.086109252645564974
sS'MEAN_USER_HITS'
p108
F0
sg104
F0.086109252645564974
ssS'OVERHEAD'
p109
g11
(tRp110
g104
F4.4016743269862113
ssS'ABS'
p111
g11
(tRp112
S'MEAN_ABS_TIME'
p113
F258079.65251651697
sS'NUM_ABS'
p114
I8290
sstp115
a(g11
(tRp116
S'workload'
p117
g11
(tRp118
S'n_contents'
p119
I10000
sS'disconnection_rate'
p120
F0.0025000000000000001
sS'name'
p121
S'STATIONARY_SIT'
p122
sS'n_warmup'
p123
I36000
sS'rate'
p124
I100
sS'n_measured'
p125
I108000
sS'alpha'
p126
F0.69999999999999996
ssS'cache_policy'
p127
g11
(tRp128
g121
S'LRU'
p129
ssS'desc'
p130
S'strategy: NDN_SIT network_cache: 0.375'
p131
sS'strategy'
p132
g11
(tRp133
g121
S'NDN_SIT'
p134
ssS'content_placement'
p135
g11
(tRp136
g121
S'UNIFORM'
p137
ssS'joint_cache_rsn_placement'
p138
g11
(tRp139
S'network_cache'
p140
F0.375
sS'network_rsn'
p141
F24
sS'rsn_cache_ratio'
p142
I64
sg121
S'CACHE_ALL_RSN_ALL_SIT'
p143
ssS'warmup_strategy'
p144
g11
(tRp145
S'p'
F0.10000000000000001
sg121
S'NDN'
p146
ssS'topology'
p147
g11
(tRp148
S'ext_delay'
p149
I2
sS'source_ratio'
p150
F1
sg121
S'ROCKET_FUEL'
p151
sS'asn'
p152
I3257
ssg11
(tRp153
S'LATENCY'
p154
g11
(tRp155
S'MEAN'
p156
F0.44857537175990692
ssS'CACHE_HIT_RATIO'
p157
g11
(tRp158
S'MEAN_NETWORK_HITS'
p159
F0.1074794748964913
sS'MEAN_USER_HITS'
p160
F0
sg156
F0.1074794748964913
ssS'OVERHEAD'
p161
g11
(tRp162
g156
F4.1735910246296779
ssS'ABS'
p163
g11
(tRp164
S'MEAN_ABS_TIME'
p165
F370670.33315830957
sS'NUM_ABS'
p166
I8199
sstp167
a(g11
(tRp168
S'workload'
p169
g11
(tRp170
S'n_contents'
p171
I10000
sS'disconnection_rate'
p172
F0.0025000000000000001
sS'name'
p173
S'STATIONARY_SIT'
p174
sS'n_warmup'
p175
I36000
sS'rate'
p176
I100
sS'n_measured'
p177
I108000
sS'alpha'
p178
F0.69999999999999996
ssS'cache_policy'
p179
g11
(tRp180
g173
S'LRU'
p181
ssS'desc'
p182
S'strategy: NDN_SIT network_cache: 0.5'
p183
sS'strategy'
p184
g11
(tRp185
g173
S'NDN_SIT'
p186
ssS'content_placement'
p187
g11
(tRp188
g173
S'UNIFORM'
p189
ssS'joint_cache_rsn_placement'
p190
g11
(tRp191
S'network_cache'
p192
F0.5
sS'network_rsn'
p193
F32
sS'rsn_cache_ratio'
p194
I64
sg173
S'CACHE_ALL_RSN_ALL_SIT'
p195
ssS'warmup_strategy'
p196
g11
(tRp197
S'p'
F0.10000000000000001
sg173
S'NDN'
p198
ssS'topology'
p199
g11
(tRp200
S'ext_delay'
p201
I2
sS'source_ratio'
p202
F1
sg173
S'ROCKET_FUEL'
p203
sS'asn'
p204
I3257
ssg11
(tRp205
S'LATENCY'
p206
g11
(tRp207
S'MEAN'
p208
F0.53968134357530062
ssS'CACHE_HIT_RATIO'
p209
g11
(tRp210
S'MEAN_NETWORK_HITS'
p211
F0.12619566804346086
sS'MEAN_USER_HITS'
p212
F0
sg208
F0.12619566804346086
ssS'OVERHEAD'
p213
g11
(tRp214
g208
F4.2765441313677925
ssS'ABS'
p215
g11
(tRp216
S'MEAN_ABS_TIME'
p217
F523635.68529564788
sS'NUM_ABS'
p218
I8183
sstp219
a(g11
(tRp220
S'workload'
p221
g11
(tRp222
S'n_contents'
p223
I10000
sS'disconnection_rate'
p224
F0.0025000000000000001
sS'name'
p225
S'STATIONARY_SIT'
p226
sS'n_warmup'
p227
I36000
sS'rate'
p228
I100
sS'n_measured'
p229
I108000
sS'alpha'
p230
F0.69999999999999996
ssS'cache_policy'
p231
g11
(tRp232
g225
S'LRU'
p233
ssS'desc'
p234
S'strategy: NDN_SIT network_cache: 0.625'
p235
sS'strategy'
p236
g11
(tRp237
g225
S'NDN_SIT'
p238
ssS'content_placement'
p239
g11
(tRp240
g225
S'UNIFORM'
p241
ssS'joint_cache_rsn_placement'
p242
g11
(tRp243
S'network_cache'
p244
F0.625
sS'network_rsn'
p245
F40
sS'rsn_cache_ratio'
p246
I64
sg225
S'CACHE_ALL_RSN_ALL_SIT'
p247
ssS'warmup_strategy'
p248
g11
(tRp249
S'p'
F0.10000000000000001
sg225
S'NDN'
p250
ssS'topology'
p251
g11
(tRp252
S'ext_delay'
p253
I2
sS'source_ratio'
p254
F1
sg225
S'ROCKET_FUEL'
p255
sS'asn'
p256
I3257
ssg11
(tRp257
S'LATENCY'
p258
g11
(tRp259
S'MEAN'
p260
F0.5719122044800542
ssS'CACHE_HIT_RATIO'
p261
g11
(tRp262
S'MEAN_NETWORK_HITS'
p263
F0.13466493633508247
sS'MEAN_USER_HITS'
p264
F0
sg260
F0.13466493633508247
ssS'OVERHEAD'
p265
g11
(tRp266
g260
F4.2469273743016762
ssS'ABS'
p267
g11
(tRp268
S'MEAN_ABS_TIME'
p269
F627939.65355476749
sS'NUM_ABS'
p270
I8060
sstp271
a(g11
(tRp272
S'workload'
p273
g11
(tRp274
S'n_contents'
p275
I10000
sS'disconnection_rate'
p276
F0.0025000000000000001
sS'name'
p277
S'STATIONARY_SIT'
p278
sS'n_warmup'
p279
I36000
sS'rate'
p280
I100
sS'n_measured'
p281
I108000
sS'alpha'
p282
F0.69999999999999996
ssS'cache_policy'
p283
g11
(tRp284
g277
S'LRU'
p285
ssS'desc'
p286
S'strategy: NDN_SIT network_cache: 0.75'
p287
sS'strategy'
p288
g11
(tRp289
g277
S'NDN_SIT'
p290
ssS'content_placement'
p291
g11
(tRp292
g277
S'UNIFORM'
p293
ssS'joint_cache_rsn_placement'
p294
g11
(tRp295
S'network_cache'
p296
F0.75
sS'network_rsn'
p297
F48
sS'rsn_cache_ratio'
p298
I64
sg277
S'CACHE_ALL_RSN_ALL_SIT'
p299
ssS'warmup_strategy'
p300
g11
(tRp301
S'p'
F0.10000000000000001
sg277
S'NDN'
p302
ssS'topology'
p303
g11
(tRp304
S'ext_delay'
p305
I2
sS'source_ratio'
p306
F1
sg277
S'ROCKET_FUEL'
p307
sS'asn'
p308
I3257
ssg11
(tRp309
S'LATENCY'
p310
g11
(tRp311
S'MEAN'
p312
F0.62942517926413544
ssS'CACHE_HIT_RATIO'
p313
g11
(tRp314
S'MEAN_NETWORK_HITS'
p315
F0.15186082050076408
sS'MEAN_USER_HITS'
p316
F0
sg312
F0.15186082050076408
ssS'OVERHEAD'
p317
g11
(tRp318
g312
F4.1447502864043102
ssS'ABS'
p319
g11
(tRp320
S'MEAN_ABS_TIME'
p321
F762461.23310847767
sS'NUM_ABS'
p322
I7969
sstp323
a(g11
(tRp324
S'workload'
p325
g11
(tRp326
S'n_contents'
p327
I10000
sS'disconnection_rate'
p328
F0.0025000000000000001
sS'name'
p329
S'STATIONARY_SIT'
p330
sS'n_warmup'
p331
I36000
sS'rate'
p332
I100
sS'n_measured'
p333
I108000
sS'alpha'
p334
F0.69999999999999996
ssS'cache_policy'
p335
g11
(tRp336
g329
S'LRU'
p337
ssS'desc'
p338
S'strategy: NDN_SIT network_cache: 1.0'
p339
sS'strategy'
p340
g11
(tRp341
g329
S'NDN_SIT'
p342
ssS'content_placement'
p343
g11
(tRp344
g329
S'UNIFORM'
p345
ssS'joint_cache_rsn_placement'
p346
g11
(tRp347
S'network_cache'
p348
F1
sS'network_rsn'
p349
F64
sS'rsn_cache_ratio'
p350
I64
sg329
S'CACHE_ALL_RSN_ALL_SIT'
p351
ssS'warmup_strategy'
p352
g11
(tRp353
S'p'
F0.10000000000000001
sg329
S'NDN'
p354
ssS'topology'
p355
g11
(tRp356
S'ext_delay'
p357
I2
sS'source_ratio'
p358
F1
sg329
S'ROCKET_FUEL'
p359
sS'asn'
p360
I3257
ssg11
(tRp361
S'LATENCY'
p362
g11
(tRp363
S'MEAN'
p364
F0.69706586939299053
ssS'CACHE_HIT_RATIO'
p365
g11
(tRp366
S'MEAN_NETWORK_HITS'
p367
F0.16864884747425207
sS'MEAN_USER_HITS'
p368
F0
sg364
F0.16864884747425207
ssS'OVERHEAD'
p369
g11
(tRp370
g364
F4.1332382630092557
ssS'ABS'
p371
g11
(tRp372
S'MEAN_ABS_TIME'
p373
F991831.76036359987
sS'NUM_ABS'
p374
I7775
sstp375
a(g11
(tRp376
S'workload'
p377
g11
(tRp378
S'n_contents'
p379
I10000
sS'disconnection_rate'
p380
F0.0025000000000000001
sS'name'
p381
S'STATIONARY_SIT'
p382
sS'n_warmup'
p383
I36000
sS'rate'
p384
I100
sS'n_measured'
p385
I108000
sS'alpha'
p386
F0.69999999999999996
ssS'cache_policy'
p387
g11
(tRp388
g381
S'LRU'
p389
ssS'desc'
p390
S'strategy: NDN_SIT network_cache: 0.875'
p391
sS'strategy'
p392
g11
(tRp393
g381
S'NDN_SIT'
p394
ssS'content_placement'
p395
g11
(tRp396
g381
S'UNIFORM'
p397
ssS'joint_cache_rsn_placement'
p398
g11
(tRp399
S'network_cache'
p400
F0.875
sS'network_rsn'
p401
F56
sS'rsn_cache_ratio'
p402
I64
sg381
S'CACHE_ALL_RSN_ALL_SIT'
p403
ssS'warmup_strategy'
p404
g11
(tRp405
S'p'
F0.10000000000000001
sg381
S'NDN'
p406
ssS'topology'
p407
g11
(tRp408
S'ext_delay'
p409
I2
sS'source_ratio'
p410
F1
sg381
S'ROCKET_FUEL'
p411
sS'asn'
p412
I3257
ssg11
(tRp413
S'LATENCY'
p414
g11
(tRp415
S'MEAN'
p416
F0.67724342850695118
ssS'CACHE_HIT_RATIO'
p417
g11
(tRp418
S'MEAN_NETWORK_HITS'
p419
F0.16365380185144265
sS'MEAN_USER_HITS'
p420
F0
sg416
F0.16365380185144265
ssS'OVERHEAD'
p421
g11
(tRp422
g416
F4.1382688385187736
ssS'ABS'
p423
g11
(tRp424
S'MEAN_ABS_TIME'
p425
F881062.25533998443
sS'NUM_ABS'
p426
I7829
sstp427
a(g11
(tRp428
S'workload'
p429
g11
(tRp430
S'n_contents'
p431
I10000
sS'disconnection_rate'
p432
F0.0025000000000000001
sS'name'
p433
S'STATIONARY_SIT'
p434
sS'n_warmup'
p435
I36000
sS'rate'
p436
I100
sS'n_measured'
p437
I108000
sS'alpha'
p438
F0.69999999999999996
ssS'cache_policy'
p439
g11
(tRp440
g433
S'LRU'
p441
ssS'desc'
p442
S'strategy: NDN_SIT network_cache: 1.25'
p443
sS'strategy'
p444
g11
(tRp445
g433
S'NDN_SIT'
p446
ssS'content_placement'
p447
g11
(tRp448
g433
S'UNIFORM'
p449
ssS'joint_cache_rsn_placement'
p450
g11
(tRp451
S'network_cache'
p452
F1.25
sS'network_rsn'
p453
F80
sS'rsn_cache_ratio'
p454
I64
sg433
S'CACHE_ALL_RSN_ALL_SIT'
p455
ssS'warmup_strategy'
p456
g11
(tRp457
S'p'
F0.10000000000000001
sg433
S'NDN'
p458
ssS'topology'
p459
g11
(tRp460
S'ext_delay'
p461
I2
sS'source_ratio'
p462
F1
sg433
S'ROCKET_FUEL'
p463
sS'asn'
p464
I3257
ssg11
(tRp465
S'LATENCY'
p466
g11
(tRp467
S'MEAN'
p468
F0.73194267666053836
ssS'CACHE_HIT_RATIO'
p469
g11
(tRp470
S'MEAN_NETWORK_HITS'
p471
F0.17923443171640033
sS'MEAN_USER_HITS'
p472
F0
sg468
F0.17923443171640033
ssS'OVERHEAD'
p473
g11
(tRp474
g468
F4.0837168932958106
ssS'ABS'
p475
g11
(tRp476
S'MEAN_ABS_TIME'
p477
F1309106.161136898
sS'NUM_ABS'
p478
I7601
sstp479
a(g11
(tRp480
S'workload'
p481
g11
(tRp482
S'n_contents'
p483
I10000
sS'disconnection_rate'
p484
F0.0025000000000000001
sS'name'
p485
S'STATIONARY_SIT'
p486
sS'n_warmup'
p487
I36000
sS'rate'
p488
I100
sS'n_measured'
p489
I108000
sS'alpha'
p490
F0.69999999999999996
ssS'cache_policy'
p491
g11
(tRp492
g485
S'LRU'
p493
ssS'desc'
p494
S'strategy: NDN_SIT network_cache: 1.5'
p495
sS'strategy'
p496
g11
(tRp497
g485
S'NDN_SIT'
p498
ssS'content_placement'
p499
g11
(tRp500
g485
S'UNIFORM'
p501
ssS'joint_cache_rsn_placement'
p502
g11
(tRp503
S'network_cache'
p504
F1.5
sS'network_rsn'
p505
F96
sS'rsn_cache_ratio'
p506
I64
sg485
S'CACHE_ALL_RSN_ALL_SIT'
p507
ssS'warmup_strategy'
p508
g11
(tRp509
S'p'
F0.10000000000000001
sg485
S'NDN'
p510
ssS'topology'
p511
g11
(tRp512
S'ext_delay'
p513
I2
sS'source_ratio'
p514
F1
sg485
S'ROCKET_FUEL'
p515
sS'asn'
p516
I3257
ssg11
(tRp517
S'LATENCY'
p518
g11
(tRp519
S'MEAN'
p520
F0.74787347280965344
ssS'CACHE_HIT_RATIO'
p521
g11
(tRp522
S'MEAN_NETWORK_HITS'
p523
F0.18576380711950941
sS'MEAN_USER_HITS'
p524
F0
sg520
F0.18576380711950941
ssS'OVERHEAD'
p525
g11
(tRp526
g520
F4.0259374762303191
ssS'ABS'
p527
g11
(tRp528
S'MEAN_ABS_TIME'
p529
F1507036.6758280296
sS'NUM_ABS'
p530
I7440
sstp531
a(g11
(tRp532
S'workload'
p533
g11
(tRp534
S'n_contents'
p535
I10000
sS'disconnection_rate'
p536
F0.0025000000000000001
sS'name'
p537
S'STATIONARY_SIT'
p538
sS'n_warmup'
p539
I36000
sS'rate'
p540
I100
sS'n_measured'
p541
I108000
sS'alpha'
p542
F0.69999999999999996
ssS'cache_policy'
p543
g11
(tRp544
g537
S'LRU'
p545
ssS'desc'
p546
S'strategy: SIT_ONLY network_cache: 0.125'
p547
sS'strategy'
p548
g11
(tRp549
S'fan_out'
p550
I1
sg537
S'SIT_ONLY'
p551
ssS'content_placement'
p552
g11
(tRp553
g537
S'UNIFORM'
p554
ssS'joint_cache_rsn_placement'
p555
g11
(tRp556
S'network_cache'
p557
F0.125
sS'network_rsn'
p558
F8
sS'rsn_cache_ratio'
p559
I64
sg537
S'CACHE_ALL_RSN_ALL_SIT'
p560
ssS'warmup_strategy'
p561
g11
(tRp562
S'p'
F0.10000000000000001
sg537
S'NDN'
p563
ssS'topology'
p564
g11
(tRp565
S'ext_delay'
p566
I2
sS'source_ratio'
p567
F1
sg537
S'ROCKET_FUEL'
p568
sS'asn'
p569
I3257
ssg11
(tRp570
S'LATENCY'
p571
g11
(tRp572
S'MEAN'
p573
F0.11742897707172809
ssS'CACHE_HIT_RATIO'
p574
g11
(tRp575
S'MEAN_NETWORK_HITS'
p576
F0.0031225089500917414
sS'MEAN_USER_HITS'
p577
F0.051809121310887746
sg573
F0.05493163026097949
ssS'OVERHEAD'
p578
g11
(tRp579
g573
F2.1377296925983171
ssS'ABS'
p580
g11
(tRp581
S'MEAN_ABS_TIME'
p582
F-73986.363343503064
sS'NUM_ABS'
p583
I8531
sstp584
a(g11
(tRp585
S'workload'
p586
g11
(tRp587
S'n_contents'
p588
I10000
sS'disconnection_rate'
p589
F0.0025000000000000001
sS'name'
p590
S'STATIONARY_SIT'
p591
sS'n_warmup'
p592
I36000
sS'rate'
p593
I100
sS'n_measured'
p594
I108000
sS'alpha'
p595
F0.69999999999999996
ssS'cache_policy'
p596
g11
(tRp597
g590
S'LRU'
p598
ssS'desc'
p599
S'strategy: SIT_ONLY network_cache: 0.375'
p600
sS'strategy'
p601
g11
(tRp602
S'fan_out'
p603
I1
sg590
S'SIT_ONLY'
p604
ssS'content_placement'
p605
g11
(tRp606
g590
S'UNIFORM'
p607
ssS'joint_cache_rsn_placement'
p608
g11
(tRp609
S'network_cache'
p610
F0.375
sS'network_rsn'
p611
F24
sS'rsn_cache_ratio'
p612
I64
sg590
S'CACHE_ALL_RSN_ALL_SIT'
p613
ssS'warmup_strategy'
p614
g11
(tRp615
S'p'
F0.10000000000000001
sg590
S'NDN'
p616
ssS'topology'
p617
g11
(tRp618
S'ext_delay'
p619
I2
sS'source_ratio'
p620
F1
sg590
S'ROCKET_FUEL'
p621
sS'asn'
p622
I3257
ssg11
(tRp623
S'LATENCY'
p624
g11
(tRp625
S'MEAN'
p626
F0.13620118939433179
ssS'CACHE_HIT_RATIO'
p627
g11
(tRp628
S'MEAN_NETWORK_HITS'
p629
F0.0073454281772508323
sS'MEAN_USER_HITS'
p630
F0.055363810582125181
sg626
F0.062709238759376021
ssS'OVERHEAD'
p631
g11
(tRp632
g626
F2.1719477399008862
ssS'ABS'
p633
g11
(tRp634
S'MEAN_ABS_TIME'
p635
F-130309.44325139675
sS'NUM_ABS'
p636
I8548
sstp637
a(g11
(tRp638
S'workload'
p639
g11
(tRp640
S'n_contents'
p641
I10000
sS'disconnection_rate'
p642
F0.0025000000000000001
sS'name'
p643
S'STATIONARY_SIT'
p644
sS'n_warmup'
p645
I36000
sS'rate'
p646
I100
sS'n_measured'
p647
I108000
sS'alpha'
p648
F0.69999999999999996
ssS'cache_policy'
p649
g11
(tRp650
g643
S'LRU'
p651
ssS'desc'
p652
S'strategy: SIT_ONLY network_cache: 0.25'
p653
sS'strategy'
p654
g11
(tRp655
S'fan_out'
p656
I1
sg643
S'SIT_ONLY'
p657
ssS'content_placement'
p658
g11
(tRp659
g643
S'UNIFORM'
p660
ssS'joint_cache_rsn_placement'
p661
g11
(tRp662
S'network_cache'
p663
F0.25
sS'network_rsn'
p664
F16
sS'rsn_cache_ratio'
p665
I64
sg643
S'CACHE_ALL_RSN_ALL_SIT'
p666
ssS'warmup_strategy'
p667
g11
(tRp668
S'p'
F0.10000000000000001
sg643
S'NDN'
p669
ssS'topology'
p670
g11
(tRp671
S'ext_delay'
p672
I2
sS'source_ratio'
p673
F1
sg643
S'ROCKET_FUEL'
p674
sS'asn'
p675
I3257
ssg11
(tRp676
S'LATENCY'
p677
g11
(tRp678
S'MEAN'
p679
F0.12926161830620431
ssS'CACHE_HIT_RATIO'
p680
g11
(tRp681
S'MEAN_NETWORK_HITS'
p682
F0.0055673507902807267
sS'MEAN_USER_HITS'
p683
F0.053649445623967916
sg679
F0.059216796414248644
ssS'OVERHEAD'
p684
g11
(tRp685
g679
F2.1828539558600908
ssS'ABS'
p686
g11
(tRp687
S'MEAN_ABS_TIME'
p688
F-124352.42354138005
sS'NUM_ABS'
p689
I8580
sstp690
a(g11
(tRp691
S'workload'
p692
g11
(tRp693
S'n_contents'
p694
I10000
sS'disconnection_rate'
p695
F0.0025000000000000001
sS'name'
p696
S'STATIONARY_SIT'
p697
sS'n_warmup'
p698
I36000
sS'rate'
p699
I100
sS'n_measured'
p700
I108000
sS'alpha'
p701
F0.69999999999999996
ssS'cache_policy'
p702
g11
(tRp703
g696
S'LRU'
p704
ssS'desc'
p705
S'strategy: SIT_ONLY network_cache: 0.5'
p706
sS'strategy'
p707
g11
(tRp708
S'fan_out'
p709
I1
sg696
S'SIT_ONLY'
p710
ssS'content_placement'
p711
g11
(tRp712
g696
S'UNIFORM'
p713
ssS'joint_cache_rsn_placement'
p714
g11
(tRp715
S'network_cache'
p716
F0.5
sS'network_rsn'
p717
F32
sS'rsn_cache_ratio'
p718
I64
sg696
S'CACHE_ALL_RSN_ALL_SIT'
p719
ssS'warmup_strategy'
p720
g11
(tRp721
S'p'
F0.10000000000000001
sg696
S'NDN'
p722
ssS'topology'
p723
g11
(tRp724
S'ext_delay'
p725
I2
sS'source_ratio'
p726
F1
sg696
S'ROCKET_FUEL'
p727
sS'asn'
p728
I3257
ssg11
(tRp729
S'LATENCY'
p730
g11
(tRp731
S'MEAN'
p732
F0.13821991994348953
ssS'CACHE_HIT_RATIO'
p733
g11
(tRp734
S'MEAN_NETWORK_HITS'
p735
F0.0097857311043089232
sS'MEAN_USER_HITS'
p736
F0.053633152813750883
sg732
F0.063418883918059804
ssS'OVERHEAD'
p737
g11
(tRp738
g732
F2.1794757555506052
ssS'ABS'
p739
g11
(tRp740
S'MEAN_ABS_TIME'
p741
F-149164.95893636197
sS'NUM_ABS'
p742
I8579
sstp743
a(g11
(tRp744
S'workload'
p745
g11
(tRp746
S'n_contents'
p747
I10000
sS'disconnection_rate'
p748
F0.0025000000000000001
sS'name'
p749
S'STATIONARY_SIT'
p750
sS'n_warmup'
p751
I36000
sS'rate'
p752
I100
sS'n_measured'
p753
I108000
sS'alpha'
p754
F0.69999999999999996
ssS'cache_policy'
p755
g11
(tRp756
g749
S'LRU'
p757
ssS'desc'
p758
S'strategy: SIT_ONLY network_cache: 0.625'
p759
sS'strategy'
p760
g11
(tRp761
S'fan_out'
p762
I1
sg749
S'SIT_ONLY'
p763
ssS'content_placement'
p764
g11
(tRp765
g749
S'UNIFORM'
p766
ssS'joint_cache_rsn_placement'
p767
g11
(tRp768
S'network_cache'
p769
F0.625
sS'network_rsn'
p770
F40
sS'rsn_cache_ratio'
p771
I64
sg749
S'CACHE_ALL_RSN_ALL_SIT'
p772
ssS'warmup_strategy'
p773
g11
(tRp774
S'p'
F0.10000000000000001
sg749
S'NDN'
p775
ssS'topology'
p776
g11
(tRp777
S'ext_delay'
p778
I2
sS'source_ratio'
p779
F1
sg749
S'ROCKET_FUEL'
p780
sS'asn'
p781
I3257
ssg11
(tRp782
S'LATENCY'
p783
g11
(tRp784
S'MEAN'
p785
F0.14238574726317429
ssS'CACHE_HIT_RATIO'
p786
g11
(tRp787
S'MEAN_NETWORK_HITS'
p788
F0.010569646844448222
sS'MEAN_USER_HITS'
p789
F0.055052801027224277
sg785
F0.065622447871672498
ssS'OVERHEAD'
p790
g11
(tRp791
g785
F2.1697719588518813
ssS'ABS'
p792
g11
(tRp793
S'MEAN_ABS_TIME'
p794
F-155885.54179017697
sS'NUM_ABS'
p795
I8573
sstp796
a(g11
(tRp797
S'workload'
p798
g11
(tRp799
S'n_contents'
p800
I10000
sS'disconnection_rate'
p801
F0.0025000000000000001
sS'name'
p802
S'STATIONARY_SIT'
p803
sS'n_warmup'
p804
I36000
sS'rate'
p805
I100
sS'n_measured'
p806
I108000
sS'alpha'
p807
F0.69999999999999996
ssS'cache_policy'
p808
g11
(tRp809
g802
S'LRU'
p810
ssS'desc'
p811
S'strategy: SIT_ONLY network_cache: 0.75'
p812
sS'strategy'
p813
g11
(tRp814
S'fan_out'
p815
I1
sg802
S'SIT_ONLY'
p816
ssS'content_placement'
p817
g11
(tRp818
g802
S'UNIFORM'
p819
ssS'joint_cache_rsn_placement'
p820
g11
(tRp821
S'network_cache'
p822
F0.75
sS'network_rsn'
p823
F48
sS'rsn_cache_ratio'
p824
I64
sg802
S'CACHE_ALL_RSN_ALL_SIT'
p825
ssS'warmup_strategy'
p826
g11
(tRp827
S'p'
F0.10000000000000001
sg802
S'NDN'
p828
ssS'topology'
p829
g11
(tRp830
S'ext_delay'
p831
I2
sS'source_ratio'
p832
F1
sg802
S'ROCKET_FUEL'
p833
sS'asn'
p834
I3257
ssg11
(tRp835
S'LATENCY'
p836
g11
(tRp837
S'MEAN'
p838
F0.14585018529317706
ssS'CACHE_HIT_RATIO'
p839
g11
(tRp840
S'MEAN_NETWORK_HITS'
p841
F0.012001730657085348
sS'MEAN_USER_HITS'
p842
F0.055381026731127374
sg838
F0.067382757388212713
ssS'OVERHEAD'
p843
g11
(tRp844
g838
F2.1645030709101061
ssS'ABS'
p845
g11
(tRp846
S'MEAN_ABS_TIME'
p847
F-116112.27221121098
sS'NUM_ABS'
p848
I8558
sstp849
a(g11
(tRp850
S'workload'
p851
g11
(tRp852
S'n_contents'
p853
I10000
sS'disconnection_rate'
p854
F0.0025000000000000001
sS'name'
p855
S'STATIONARY_SIT'
p856
sS'n_warmup'
p857
I36000
sS'rate'
p858
I100
sS'n_measured'
p859
I108000
sS'alpha'
p860
F0.69999999999999996
ssS'cache_policy'
p861
g11
(tRp862
g855
S'LRU'
p863
ssS'desc'
p864
S'strategy: SIT_ONLY network_cache: 0.875'
p865
sS'strategy'
p866
g11
(tRp867
S'fan_out'
p868
I1
sg855
S'SIT_ONLY'
p869
ssS'content_placement'
p870
g11
(tRp871
g855
S'UNIFORM'
p872
ssS'joint_cache_rsn_placement'
p873
g11
(tRp874
S'network_cache'
p875
F0.875
sS'network_rsn'
p876
F56
sS'rsn_cache_ratio'
p877
I64
sg855
S'CACHE_ALL_RSN_ALL_SIT'
p878
ssS'warmup_strategy'
p879
g11
(tRp880
S'p'
F0.10000000000000001
sg855
S'NDN'
p881
ssS'topology'
p882
g11
(tRp883
S'ext_delay'
p884
I2
sS'source_ratio'
p885
F1
sg855
S'ROCKET_FUEL'
p886
sS'asn'
p887
I3257
ssg11
(tRp888
S'LATENCY'
p889
g11
(tRp890
S'MEAN'
p891
F0.14903465066243912
ssS'CACHE_HIT_RATIO'
p892
g11
(tRp893
S'MEAN_NETWORK_HITS'
p894
F0.013413920658287094
sS'MEAN_USER_HITS'
p895
F0.055599592345147775
sg891
F0.069013513003434876
ssS'OVERHEAD'
p896
g11
(tRp897
g891
F2.1594995556163261
ssS'ABS'
p898
g11
(tRp899
S'MEAN_ABS_TIME'
p900
F-36564.3980563394
sS'NUM_ABS'
p901
I8511
sstp902
a(g11
(tRp903
S'workload'
p904
g11
(tRp905
S'n_contents'
p906
I10000
sS'disconnection_rate'
p907
F0.0025000000000000001
sS'name'
p908
S'STATIONARY_SIT'
p909
sS'n_warmup'
p910
I36000
sS'rate'
p911
I100
sS'n_measured'
p912
I108000
sS'alpha'
p913
F0.69999999999999996
ssS'cache_policy'
p914
g11
(tRp915
g908
S'LRU'
p916
ssS'desc'
p917
S'strategy: SIT_ONLY network_cache: 1.0'
p918
sS'strategy'
p919
g11
(tRp920
S'fan_out'
p921
I1
sg908
S'SIT_ONLY'
p922
ssS'content_placement'
p923
g11
(tRp924
g908
S'UNIFORM'
p925
ssS'joint_cache_rsn_placement'
p926
g11
(tRp927
S'network_cache'
p928
F1
sS'network_rsn'
p929
F64
sS'rsn_cache_ratio'
p930
I64
sg908
S'CACHE_ALL_RSN_ALL_SIT'
p931
ssS'warmup_strategy'
p932
g11
(tRp933
S'p'
F0.10000000000000001
sg908
S'NDN'
p934
ssS'topology'
p935
g11
(tRp936
S'ext_delay'
p937
I2
sS'source_ratio'
p938
F1
sg908
S'ROCKET_FUEL'
p939
sS'asn'
p940
I3257
ssg11
(tRp941
S'LATENCY'
p942
g11
(tRp943
S'MEAN'
p944
F0.14489519181874683
ssS'CACHE_HIT_RATIO'
p945
g11
(tRp946
S'MEAN_NETWORK_HITS'
p947
F0.013305836487937171
sS'MEAN_USER_HITS'
p948
F0.05394843399815432
sg944
F0.067254270486091491
ssS'OVERHEAD'
p949
g11
(tRp950
g944
F2.154438532623915
ssS'ABS'
p951
g11
(tRp952
S'MEAN_ABS_TIME'
p953
F-23714.107255084553
sS'NUM_ABS'
p954
I8524
sstp955
a(g11
(tRp956
S'workload'
p957
g11
(tRp958
S'n_contents'
p959
I10000
sS'disconnection_rate'
p960
F0.0025000000000000001
sS'name'
p961
S'STATIONARY_SIT'
p962
sS'n_warmup'
p963
I36000
sS'rate'
p964
I100
sS'n_measured'
p965
I108000
sS'alpha'
p966
F0.69999999999999996
ssS'cache_policy'
p967
g11
(tRp968
g961
S'LRU'
p969
ssS'desc'
p970
S'strategy: SIT_ONLY network_cache: 1.25'
p971
sS'strategy'
p972
g11
(tRp973
S'fan_out'
p974
I1
sg961
S'SIT_ONLY'
p975
ssS'content_placement'
p976
g11
(tRp977
g961
S'UNIFORM'
p978
ssS'joint_cache_rsn_placement'
p979
g11
(tRp980
S'network_cache'
p981
F1.25
sS'network_rsn'
p982
F80
sS'rsn_cache_ratio'
p983
I64
sg961
S'CACHE_ALL_RSN_ALL_SIT'
p984
ssS'warmup_strategy'
p985
g11
(tRp986
S'p'
F0.10000000000000001
sg961
S'NDN'
p987
ssS'topology'
p988
g11
(tRp989
S'ext_delay'
p990
I2
sS'source_ratio'
p991
F1
sg961
S'ROCKET_FUEL'
p992
sS'asn'
p993
I3257
ssg11
(tRp994
S'LATENCY'
p995
g11
(tRp996
S'MEAN'
p997
F0.14654320173993277
ssS'CACHE_HIT_RATIO'
p998
g11
(tRp999
S'MEAN_NETWORK_HITS'
p1000
F0.014857218178908022
sS'MEAN_USER_HITS'
p1001
F0.05385506209338016
sg997
F0.068712280272288179
ssS'OVERHEAD'
p1002
g11
(tRp1003
g997
F2.1327075911208548
ssS'ABS'
p1004
g11
(tRp1005
S'MEAN_ABS_TIME'
p1006
F19528.202939026716
sS'NUM_ABS'
p1007
I8504
sstp1008
a(g11
(tRp1009
S'workload'
p1010
g11
(tRp1011
S'n_contents'
p1012
I10000
sS'disconnection_rate'
p1013
F0.0025000000000000001
sS'name'
p1014
S'STATIONARY_SIT'
p1015
sS'n_warmup'
p1016
I36000
sS'rate'
p1017
I100
sS'n_measured'
p1018
I108000
sS'alpha'
p1019
F0.69999999999999996
ssS'cache_policy'
p1020
g11
(tRp1021
g1014
S'LRU'
p1022
ssS'desc'
p1023
S'strategy: SIT_ONLY network_cache: 1.5'
p1024
sS'strategy'
p1025
g11
(tRp1026
S'fan_out'
p1027
I1
sg1014
S'SIT_ONLY'
p1028
ssS'content_placement'
p1029
g11
(tRp1030
g1014
S'UNIFORM'
p1031
ssS'joint_cache_rsn_placement'
p1032
g11
(tRp1033
S'network_cache'
p1034
F1.5
sS'network_rsn'
p1035
F96
sS'rsn_cache_ratio'
p1036
I64
sg1014
S'CACHE_ALL_RSN_ALL_SIT'
p1037
ssS'warmup_strategy'
p1038
g11
(tRp1039
S'p'
F0.10000000000000001
sg1014
S'NDN'
p1040
ssS'topology'
p1041
g11
(tRp1042
S'ext_delay'
p1043
I2
sS'source_ratio'
p1044
F1
sg1014
S'ROCKET_FUEL'
p1045
sS'asn'
p1046
I3257
ssg11
(tRp1047
S'LATENCY'
p1048
g11
(tRp1049
S'MEAN'
p1050
F0.14965415066386087
ssS'CACHE_HIT_RATIO'
p1051
g11
(tRp1052
S'MEAN_NETWORK_HITS'
p1053
F0.015249455039586302
sS'MEAN_USER_HITS'
p1054
F0.055241528342659788
sg1050
F0.070490983382246089
ssS'OVERHEAD'
p1055
g11
(tRp1056
g1050
F2.123025435073628
ssS'ABS'
p1057
g11
(tRp1058
S'MEAN_ABS_TIME'
p1059
F76593.705638920394
sS'NUM_ABS'
p1060
I8464
sstp1061
a(g11
(tRp1062
S'workload'
p1063
g11
(tRp1064
S'n_contents'
p1065
I10000
sS'disconnection_rate'
p1066
F0.0025000000000000001
sS'name'
p1067
S'STATIONARY_SIT'
p1068
sS'n_warmup'
p1069
I36000
sS'rate'
p1070
I100
sS'n_measured'
p1071
I108000
sS'alpha'
p1072
F0.69999999999999996
ssS'cache_policy'
p1073
g11
(tRp1074
g1067
S'LRU'
p1075
ssS'desc'
p1076
S'strategy: SIT_ONLY network_cache: 0.125'
p1077
sS'strategy'
p1078
g11
(tRp1079
S'fan_out'
p1080
I100
sg1067
S'SIT_ONLY'
p1081
ssS'content_placement'
p1082
g11
(tRp1083
g1067
S'UNIFORM'
p1084
ssS'joint_cache_rsn_placement'
p1085
g11
(tRp1086
S'network_cache'
p1087
F0.125
sS'network_rsn'
p1088
F8
sS'rsn_cache_ratio'
p1089
I64
sg1067
S'CACHE_ALL_RSN_ALL_SIT'
p1090
ssS'warmup_strategy'
p1091
g11
(tRp1092
S'p'
F0.10000000000000001
sg1067
S'NDN'
p1093
ssS'topology'
p1094
g11
(tRp1095
S'ext_delay'
p1096
I2
sS'source_ratio'
p1097
F1
sg1067
S'ROCKET_FUEL'
p1098
sS'asn'
p1099
I3257
ssg11
(tRp1100
S'LATENCY'
p1101
g11
(tRp1102
S'MEAN'
p1103
F0.11987602761630642
ssS'CACHE_HIT_RATIO'
p1104
g11
(tRp1105
S'MEAN_NETWORK_HITS'
p1106
F0.0041151682751095807
sS'MEAN_USER_HITS'
p1107
F0.052025133096299643
sg1103
F0.056140301371409219
ssS'OVERHEAD'
p1108
g11
(tRp1109
g1103
F2.2741894948479517
ssS'ABS'
p1110
g11
(tRp1111
S'MEAN_ABS_TIME'
p1112
F-112042.58707648169
sS'NUM_ABS'
p1113
I8643
sstp1114
a(g11
(tRp1115
S'workload'
p1116
g11
(tRp1117
S'n_contents'
p1118
I10000
sS'disconnection_rate'
p1119
F0.0025000000000000001
sS'name'
p1120
S'STATIONARY_SIT'
p1121
sS'n_warmup'
p1122
I36000
sS'rate'
p1123
I100
sS'n_measured'
p1124
I108000
sS'alpha'
p1125
F0.69999999999999996
ssS'cache_policy'
p1126
g11
(tRp1127
g1120
S'LRU'
p1128
ssS'desc'
p1129
S'strategy: SIT_ONLY network_cache: 0.25'
p1130
sS'strategy'
p1131
g11
(tRp1132
S'fan_out'
p1133
I100
sg1120
S'SIT_ONLY'
p1134
ssS'content_placement'
p1135
g11
(tRp1136
g1120
S'UNIFORM'
p1137
ssS'joint_cache_rsn_placement'
p1138
g11
(tRp1139
S'network_cache'
p1140
F0.25
sS'network_rsn'
p1141
F16
sS'rsn_cache_ratio'
p1142
I64
sg1120
S'CACHE_ALL_RSN_ALL_SIT'
p1143
ssS'warmup_strategy'
p1144
g11
(tRp1145
S'p'
F0.10000000000000001
sg1120
S'NDN'
p1146
ssS'topology'
p1147
g11
(tRp1148
S'ext_delay'
p1149
I2
sS'source_ratio'
p1150
F1
sg1120
S'ROCKET_FUEL'
p1151
sS'asn'
p1152
I3257
ssg11
(tRp1153
S'LATENCY'
p1154
g11
(tRp1155
S'MEAN'
p1156
F0.13359159974361876
ssS'CACHE_HIT_RATIO'
p1157
g11
(tRp1158
S'MEAN_NETWORK_HITS'
p1159
F0.0071494551898352377
sS'MEAN_USER_HITS'
p1160
F0.054424461787882218
sg1156
F0.061573916977717455
ssS'OVERHEAD'
p1161
g11
(tRp1162
g1156
F2.3762724837351703
ssS'ABS'
p1163
g11
(tRp1164
S'MEAN_ABS_TIME'
p1165
F-195037.68428658217
sS'NUM_ABS'
p1166
I8608
sstp1167
a(g11
(tRp1168
S'workload'
p1169
g11
(tRp1170
S'n_contents'
p1171
I10000
sS'disconnection_rate'
p1172
F0.0025000000000000001
sS'name'
p1173
S'STATIONARY_SIT'
p1174
sS'n_warmup'
p1175
I36000
sS'rate'
p1176
I100
sS'n_measured'
p1177
I108000
sS'alpha'
p1178
F0.69999999999999996
ssS'cache_policy'
p1179
g11
(tRp1180
g1173
S'LRU'
p1181
ssS'desc'
p1182
S'strategy: SIT_ONLY network_cache: 0.375'
p1183
sS'strategy'
p1184
g11
(tRp1185
S'fan_out'
p1186
I100
sg1173
S'SIT_ONLY'
p1187
ssS'content_placement'
p1188
g11
(tRp1189
g1173
S'UNIFORM'
p1190
ssS'joint_cache_rsn_placement'
p1191
g11
(tRp1192
S'network_cache'
p1193
F0.375
sS'network_rsn'
p1194
F24
sS'rsn_cache_ratio'
p1195
I64
sg1173
S'CACHE_ALL_RSN_ALL_SIT'
p1196
ssS'warmup_strategy'
p1197
g11
(tRp1198
S'p'
F0.10000000000000001
sg1173
S'NDN'
p1199
ssS'topology'
p1200
g11
(tRp1201
S'ext_delay'
p1202
I2
sS'source_ratio'
p1203
F1
sg1173
S'ROCKET_FUEL'
p1204
sS'asn'
p1205
I3257
ssg11
(tRp1206
S'LATENCY'
p1207
g11
(tRp1208
S'MEAN'
p1209
F0.14230972266737052
ssS'CACHE_HIT_RATIO'
p1210
g11
(tRp1211
S'MEAN_NETWORK_HITS'
p1212
F0.010223223544050829
sS'MEAN_USER_HITS'
p1213
F0.055664485963688469
sg1209
F0.065887709507739298
ssS'OVERHEAD'
p1214
g11
(tRp1215
g1209
F2.4407325273624725
ssS'ABS'
p1216
g11
(tRp1217
S'MEAN_ABS_TIME'
p1218
F-209383.9687604286
sS'NUM_ABS'
p1219
I8627
sstp1220
a(g11
(tRp1221
S'workload'
p1222
g11
(tRp1223
S'n_contents'
p1224
I10000
sS'disconnection_rate'
p1225
F0.0025000000000000001
sS'name'
p1226
S'STATIONARY_SIT'
p1227
sS'n_warmup'
p1228
I36000
sS'rate'
p1229
I100
sS'n_measured'
p1230
I108000
sS'alpha'
p1231
F0.69999999999999996
ssS'cache_policy'
p1232
g11
(tRp1233
g1226
S'LRU'
p1234
ssS'desc'
p1235
S'strategy: SIT_ONLY network_cache: 0.5'
p1236
sS'strategy'
p1237
g11
(tRp1238
S'fan_out'
p1239
I100
sg1226
S'SIT_ONLY'
p1240
ssS'content_placement'
p1241
g11
(tRp1242
g1226
S'UNIFORM'
p1243
ssS'joint_cache_rsn_placement'
p1244
g11
(tRp1245
S'network_cache'
p1246
F0.5
sS'network_rsn'
p1247
F32
sS'rsn_cache_ratio'
p1248
I64
sg1226
S'CACHE_ALL_RSN_ALL_SIT'
p1249
ssS'warmup_strategy'
p1250
g11
(tRp1251
S'p'
F0.10000000000000001
sg1226
S'NDN'
p1252
ssS'topology'
p1253
g11
(tRp1254
S'ext_delay'
p1255
I2
sS'source_ratio'
p1256
F1
sg1226
S'ROCKET_FUEL'
p1257
sS'asn'
p1258
I3257
ssg11
(tRp1259
S'LATENCY'
p1260
g11
(tRp1261
S'MEAN'
p1262
F0.14718743086836394
ssS'CACHE_HIT_RATIO'
p1263
g11
(tRp1264
S'MEAN_NETWORK_HITS'
p1265
F0.011983601387574897
sS'MEAN_USER_HITS'
p1266
F0.056430242354923582
sg1262
F0.068413843742498481
ssS'OVERHEAD'
p1267
g11
(tRp1268
g1262
F2.4367389060887512
ssS'ABS'
p1269
g11
(tRp1270
S'MEAN_ABS_TIME'
p1271
F-267671.54473276751
sS'NUM_ABS'
p1272
I8680
sstp1273
a(g11
(tRp1274
S'workload'
p1275
g11
(tRp1276
S'n_contents'
p1277
I10000
sS'disconnection_rate'
p1278
F0.0025000000000000001
sS'name'
p1279
S'STATIONARY_SIT'
p1280
sS'n_warmup'
p1281
I36000
sS'rate'
p1282
I100
sS'n_measured'
p1283
I108000
sS'alpha'
p1284
F0.69999999999999996
ssS'cache_policy'
p1285
g11
(tRp1286
g1279
S'LRU'
p1287
ssS'desc'
p1288
S'strategy: SIT_ONLY network_cache: 0.625'
p1289
sS'strategy'
p1290
g11
(tRp1291
S'fan_out'
p1292
I100
sg1279
S'SIT_ONLY'
p1293
ssS'content_placement'
p1294
g11
(tRp1295
g1279
S'UNIFORM'
p1296
ssS'joint_cache_rsn_placement'
p1297
g11
(tRp1298
S'network_cache'
p1299
F0.625
sS'network_rsn'
p1300
F40
sS'rsn_cache_ratio'
p1301
I64
sg1279
S'CACHE_ALL_RSN_ALL_SIT'
p1302
ssS'warmup_strategy'
p1303
g11
(tRp1304
S'p'
F0.10000000000000001
sg1279
S'NDN'
p1305
ssS'topology'
p1306
g11
(tRp1307
S'ext_delay'
p1308
I2
sS'source_ratio'
p1309
F1
sg1279
S'ROCKET_FUEL'
p1310
sS'asn'
p1311
I3257
ssg11
(tRp1312
S'LATENCY'
p1313
g11
(tRp1314
S'MEAN'
p1315
F0.15081593427300821
ssS'CACHE_HIT_RATIO'
p1316
g11
(tRp1317
S'MEAN_NETWORK_HITS'
p1318
F0.013115248360593955
sS'MEAN_USER_HITS'
p1319
F0.05678563352679581
sg1315
F0.069900881887389771
ssS'OVERHEAD'
p1320
g11
(tRp1321
g1315
F2.440221054050411
ssS'ABS'
p1322
g11
(tRp1323
S'MEAN_ABS_TIME'
p1324
F-281191.57648872171
sS'NUM_ABS'
p1325
I8696
sstp1326
a(g11
(tRp1327
S'workload'
p1328
g11
(tRp1329
S'n_contents'
p1330
I10000
sS'disconnection_rate'
p1331
F0.0025000000000000001
sS'name'
p1332
S'STATIONARY_SIT'
p1333
sS'n_warmup'
p1334
I36000
sS'rate'
p1335
I100
sS'n_measured'
p1336
I108000
sS'alpha'
p1337
F0.69999999999999996
ssS'cache_policy'
p1338
g11
(tRp1339
g1332
S'LRU'
p1340
ssS'desc'
p1341
S'strategy: SIT_ONLY network_cache: 0.75'
p1342
sS'strategy'
p1343
g11
(tRp1344
S'fan_out'
p1345
I100
sg1332
S'SIT_ONLY'
p1346
ssS'content_placement'
p1347
g11
(tRp1348
g1332
S'UNIFORM'
p1349
ssS'joint_cache_rsn_placement'
p1350
g11
(tRp1351
S'network_cache'
p1352
F0.75
sS'network_rsn'
p1353
F48
sS'rsn_cache_ratio'
p1354
I64
sg1332
S'CACHE_ALL_RSN_ALL_SIT'
p1355
ssS'warmup_strategy'
p1356
g11
(tRp1357
S'p'
F0.10000000000000001
sg1332
S'NDN'
p1358
ssS'topology'
p1359
g11
(tRp1360
S'ext_delay'
p1361
I2
sS'source_ratio'
p1362
F1
sg1332
S'ROCKET_FUEL'
p1363
sS'asn'
p1364
I3257
ssg11
(tRp1365
S'LATENCY'
p1366
g11
(tRp1367
S'MEAN'
p1368
F0.14957999820975121
ssS'CACHE_HIT_RATIO'
p1369
g11
(tRp1370
S'MEAN_NETWORK_HITS'
p1371
F0.01515586942490613
sS'MEAN_USER_HITS'
p1372
F0.05538935555754472
sg1368
F0.070545224982450846
ssS'OVERHEAD'
p1373
g11
(tRp1374
g1368
F2.4049018298383866
ssS'ABS'
p1375
g11
(tRp1376
S'MEAN_ABS_TIME'
p1377
F-250743.75690074873
sS'NUM_ABS'
p1378
I8705
sstp1379
a(g11
(tRp1380
S'workload'
p1381
g11
(tRp1382
S'n_contents'
p1383
I10000
sS'disconnection_rate'
p1384
F0.0025000000000000001
sS'name'
p1385
S'STATIONARY_SIT'
p1386
sS'n_warmup'
p1387
I36000
sS'rate'
p1388
I100
sS'n_measured'
p1389
I108000
sS'alpha'
p1390
F0.69999999999999996
ssS'cache_policy'
p1391
g11
(tRp1392
g1385
S'LRU'
p1393
ssS'desc'
p1394
S'strategy: SIT_ONLY network_cache: 1.5'
p1395
sS'strategy'
p1396
g11
(tRp1397
S'fan_out'
p1398
I100
sg1385
S'SIT_ONLY'
p1399
ssS'content_placement'
p1400
g11
(tRp1401
g1385
S'UNIFORM'
p1402
ssS'joint_cache_rsn_placement'
p1403
g11
(tRp1404
S'network_cache'
p1405
F1.5
sS'network_rsn'
p1406
F96
sS'rsn_cache_ratio'
p1407
I64
sg1385
S'CACHE_ALL_RSN_ALL_SIT'
p1408
ssS'warmup_strategy'
p1409
g11
(tRp1410
S'p'
F0.10000000000000001
sg1385
S'NDN'
p1411
ssS'topology'
p1412
g11
(tRp1413
S'ext_delay'
p1414
I2
sS'source_ratio'
p1415
F1
sg1385
S'ROCKET_FUEL'
p1416
sS'asn'
p1417
I3257
ssg11
(tRp1418
S'LATENCY'
p1419
g11
(tRp1420
S'MEAN'
p1421
F0.15382768587649345
ssS'CACHE_HIT_RATIO'
p1422
g11
(tRp1423
S'MEAN_NETWORK_HITS'
p1424
F0.018613540715354995
sS'MEAN_USER_HITS'
p1425
F0.05492736294050634
sg1421
F0.073540903655861342
ssS'OVERHEAD'
p1426
g11
(tRp1427
g1421
F2.3216617590577391
ssS'ABS'
p1428
g11
(tRp1429
S'MEAN_ABS_TIME'
p1430
F-59660.222770817847
sS'NUM_ABS'
p1431
I8528
sstp1432
a(g11
(tRp1433
S'workload'
p1434
g11
(tRp1435
S'n_contents'
p1436
I10000
sS'disconnection_rate'
p1437
F0.0025000000000000001
sS'name'
p1438
S'STATIONARY_SIT'
p1439
sS'n_warmup'
p1440
I36000
sS'rate'
p1441
I100
sS'n_measured'
p1442
I108000
sS'alpha'
p1443
F0.69999999999999996
ssS'cache_policy'
p1444
g11
(tRp1445
g1438
S'LRU'
p1446
ssS'desc'
p1447
S'strategy: SIT_ONLY network_cache: 0.875'
p1448
sS'strategy'
p1449
g11
(tRp1450
S'fan_out'
p1451
I100
sg1438
S'SIT_ONLY'
p1452
ssS'content_placement'
p1453
g11
(tRp1454
g1438
S'UNIFORM'
p1455
ssS'joint_cache_rsn_placement'
p1456
g11
(tRp1457
S'network_cache'
p1458
F0.875
sS'network_rsn'
p1459
F56
sS'rsn_cache_ratio'
p1460
I64
sg1438
S'CACHE_ALL_RSN_ALL_SIT'
p1461
ssS'warmup_strategy'
p1462
g11
(tRp1463
S'p'
F0.10000000000000001
sg1438
S'NDN'
p1464
ssS'topology'
p1465
g11
(tRp1466
S'ext_delay'
p1467
I2
sS'source_ratio'
p1468
F1
sg1438
S'ROCKET_FUEL'
p1469
sS'asn'
p1470
I3257
ssg11
(tRp1471
S'LATENCY'
p1472
g11
(tRp1473
S'MEAN'
p1474
F0.15154597904156364
ssS'CACHE_HIT_RATIO'
p1475
g11
(tRp1476
S'MEAN_NETWORK_HITS'
p1477
F0.015537501471800306
sS'MEAN_USER_HITS'
p1478
F0.05523607676910397
sg1474
F0.070773578240904272
ssS'OVERHEAD'
p1479
g11
(tRp1480
g1474
F2.424302921408132
ssS'ABS'
p1481
g11
(tRp1482
S'MEAN_ABS_TIME'
p1483
F-197184.03621959663
sS'NUM_ABS'
p1484
I8595
sstp1485
a(g11
(tRp1486
S'workload'
p1487
g11
(tRp1488
S'n_contents'
p1489
I10000
sS'disconnection_rate'
p1490
F0.0025000000000000001
sS'name'
p1491
S'STATIONARY_SIT'
p1492
sS'n_warmup'
p1493
I36000
sS'rate'
p1494
I100
sS'n_measured'
p1495
I108000
sS'alpha'
p1496
F0.69999999999999996
ssS'cache_policy'
p1497
g11
(tRp1498
g1491
S'LRU'
p1499
ssS'desc'
p1500
S'strategy: SIT_ONLY network_cache: 1.25'
p1501
sS'strategy'
p1502
g11
(tRp1503
S'fan_out'
p1504
I100
sg1491
S'SIT_ONLY'
p1505
ssS'content_placement'
p1506
g11
(tRp1507
g1491
S'UNIFORM'
p1508
ssS'joint_cache_rsn_placement'
p1509
g11
(tRp1510
S'network_cache'
p1511
F1.25
sS'network_rsn'
p1512
F80
sS'rsn_cache_ratio'
p1513
I64
sg1491
S'CACHE_ALL_RSN_ALL_SIT'
p1514
ssS'warmup_strategy'
p1515
g11
(tRp1516
S'p'
F0.10000000000000001
sg1491
S'NDN'
p1517
ssS'topology'
p1518
g11
(tRp1519
S'ext_delay'
p1520
I2
sS'source_ratio'
p1521
F1
sg1491
S'ROCKET_FUEL'
p1522
sS'asn'
p1523
I3257
ssg11
(tRp1524
S'LATENCY'
p1525
g11
(tRp1526
S'MEAN'
p1527
F0.1565202637420644
ssS'CACHE_HIT_RATIO'
p1528
g11
(tRp1529
S'MEAN_NETWORK_HITS'
p1530
F0.017820027618450633
sS'MEAN_USER_HITS'
p1531
F0.056297336657601907
sg1527
F0.074117364276052547
ssS'OVERHEAD'
p1532
g11
(tRp1533
g1527
F2.3824876001526136
ssS'ABS'
p1534
g11
(tRp1535
S'MEAN_ABS_TIME'
p1536
F-144315.4072214422
sS'NUM_ABS'
p1537
I8592
sstp1538
a(g11
(tRp1539
S'workload'
p1540
g11
(tRp1541
S'n_contents'
p1542
I10000
sS'disconnection_rate'
p1543
F0.0025000000000000001
sS'name'
p1544
S'STATIONARY_SIT'
p1545
sS'n_warmup'
p1546
I36000
sS'rate'
p1547
I100
sS'n_measured'
p1548
I108000
sS'alpha'
p1549
F0.69999999999999996
ssS'cache_policy'
p1550
g11
(tRp1551
g1544
S'LRU'
p1552
ssS'desc'
p1553
S'strategy: SIT_ONLY network_cache: 1.0'
p1554
sS'strategy'
p1555
g11
(tRp1556
S'fan_out'
p1557
I100
sg1544
S'SIT_ONLY'
p1558
ssS'content_placement'
p1559
g11
(tRp1560
g1544
S'UNIFORM'
p1561
ssS'joint_cache_rsn_placement'
p1562
g11
(tRp1563
S'network_cache'
p1564
F1
sS'network_rsn'
p1565
F64
sS'rsn_cache_ratio'
p1566
I64
sg1544
S'CACHE_ALL_RSN_ALL_SIT'
p1567
ssS'warmup_strategy'
p1568
g11
(tRp1569
S'p'
F0.10000000000000001
sg1544
S'NDN'
p1570
ssS'topology'
p1571
g11
(tRp1572
S'ext_delay'
p1573
I2
sS'source_ratio'
p1574
F1
sg1544
S'ROCKET_FUEL'
p1575
sS'asn'
p1576
I3257
ssg11
(tRp1577
S'LATENCY'
p1578
g11
(tRp1579
S'MEAN'
p1580
F0.15408442350149931
ssS'CACHE_HIT_RATIO'
p1581
g11
(tRp1582
S'MEAN_NETWORK_HITS'
p1583
F0.016141863869810619
sS'MEAN_USER_HITS'
p1584
F0.056385898347212478
sg1580
F0.072527762217023103
ssS'OVERHEAD'
p1585
g11
(tRp1586
g1580
F2.3859284740702278
ssS'ABS'
p1587
g11
(tRp1588
S'MEAN_ABS_TIME'
p1589
F-203362.42125423948
sS'NUM_ABS'
p1590
I8650
sstp1591
a(g11
(tRp1592
S'workload'
p1593
g11
(tRp1594
S'n_contents'
p1595
I10000
sS'disconnection_rate'
p1596
F0.0025000000000000001
sS'name'
p1597
S'STATIONARY_SIT'
p1598
sS'n_warmup'
p1599
I36000
sS'rate'
p1600
I100
sS'n_measured'
p1601
I108000
sS'alpha'
p1602
F0.69999999999999996
ssS'cache_policy'
p1603
g11
(tRp1604
g1597
S'LRU'
p1605
ssS'desc'
p1606
S'strategy: SIT_WITH_SCOPED_FLOODING network_cache: 0.125'
p1607
sS'strategy'
p1608
g11
(tRp1609
S'fan_out'
p1610
I1
sg1597
S'SIT_WITH_SCOPED_FLOODING'
p1611
sS'scope'
p1612
I1
ssS'content_placement'
p1613
g11
(tRp1614
g1597
S'UNIFORM'
p1615
ssS'joint_cache_rsn_placement'
p1616
g11
(tRp1617
S'network_cache'
p1618
F0.125
sS'network_rsn'
p1619
F8
sS'rsn_cache_ratio'
p1620
I64
sg1597
S'CACHE_ALL_RSN_ALL_SIT'
p1621
ssS'warmup_strategy'
p1622
g11
(tRp1623
S'p'
F0.10000000000000001
sg1597
S'NDN'
p1624
ssS'topology'
p1625
g11
(tRp1626
S'ext_delay'
p1627
I2
sS'source_ratio'
p1628
F1
sg1597
S'ROCKET_FUEL'
p1629
sS'asn'
p1630
I3257
ssg11
(tRp1631
S'LATENCY'
p1632
g11
(tRp1633
S'MEAN'
p1634
F0.34078235990063777
ssS'CACHE_HIT_RATIO'
p1635
g11
(tRp1636
S'MEAN_NETWORK_HITS'
p1637
F0.021262956451240378
sS'MEAN_USER_HITS'
p1638
F0.097820912266147544
sg1634
F0.11908386871738792
ssS'OVERHEAD'
p1639
g11
(tRp1640
g1634
F3.3267891070297657
ssS'ABS'
p1641
g11
(tRp1642
S'MEAN_ABS_TIME'
p1643
F-1099105.7471695775
sS'NUM_ABS'
p1644
I9219
sstp1645
a(g11
(tRp1646
S'workload'
p1647
g11
(tRp1648
S'n_contents'
p1649
I10000
sS'disconnection_rate'
p1650
F0.0025000000000000001
sS'name'
p1651
S'STATIONARY_SIT'
p1652
sS'n_warmup'
p1653
I36000
sS'rate'
p1654
I100
sS'n_measured'
p1655
I108000
sS'alpha'
p1656
F0.69999999999999996
ssS'cache_policy'
p1657
g11
(tRp1658
g1651
S'LRU'
p1659
ssS'desc'
p1660
S'strategy: SIT_WITH_SCOPED_FLOODING network_cache: 0.25'
p1661
sS'strategy'
p1662
g11
(tRp1663
S'fan_out'
p1664
I1
sg1651
S'SIT_WITH_SCOPED_FLOODING'
p1665
sS'scope'
p1666
I1
ssS'content_placement'
p1667
g11
(tRp1668
g1651
S'UNIFORM'
p1669
ssS'joint_cache_rsn_placement'
p1670
g11
(tRp1671
S'network_cache'
p1672
F0.25
sS'network_rsn'
p1673
F16
sS'rsn_cache_ratio'
p1674
I64
sg1651
S'CACHE_ALL_RSN_ALL_SIT'
p1675
ssS'warmup_strategy'
p1676
g11
(tRp1677
S'p'
F0.10000000000000001
sg1651
S'NDN'
p1678
ssS'topology'
p1679
g11
(tRp1680
S'ext_delay'
p1681
I2
sS'source_ratio'
p1682
F1
sg1651
S'ROCKET_FUEL'
p1683
sS'asn'
p1684
I3257
ssg11
(tRp1685
S'LATENCY'
p1686
g11
(tRp1687
S'MEAN'
p1688
F0.41707714476769919
ssS'CACHE_HIT_RATIO'
p1689
g11
(tRp1690
S'MEAN_NETWORK_HITS'
p1691
F0.033966866647202311
sS'MEAN_USER_HITS'
p1692
F0.10777286983056594
sg1688
F0.14173973647776825
ssS'OVERHEAD'
p1693
g11
(tRp1694
g1688
F3.4746669324562278
ssS'ABS'
p1695
g11
(tRp1696
S'MEAN_ABS_TIME'
p1697
F-1577223.8251760227
sS'NUM_ABS'
p1698
I9569
sstp1699
a(g11
(tRp1700
S'workload'
p1701
g11
(tRp1702
S'n_contents'
p1703
I10000
sS'disconnection_rate'
p1704
F0.0025000000000000001
sS'name'
p1705
S'STATIONARY_SIT'
p1706
sS'n_warmup'
p1707
I36000
sS'rate'
p1708
I100
sS'n_measured'
p1709
I108000
sS'alpha'
p1710
F0.69999999999999996
ssS'cache_policy'
p1711
g11
(tRp1712
g1705
S'LRU'
p1713
ssS'desc'
p1714
S'strategy: SIT_WITH_SCOPED_FLOODING network_cache: 0.125'
p1715
sS'strategy'
p1716
g11
(tRp1717
S'fan_out'
p1718
I100
sg1705
S'SIT_WITH_SCOPED_FLOODING'
p1719
sS'scope'
p1720
I1
ssS'content_placement'
p1721
g11
(tRp1722
g1705
S'UNIFORM'
p1723
ssS'joint_cache_rsn_placement'
p1724
g11
(tRp1725
S'network_cache'
p1726
F0.125
sS'network_rsn'
p1727
F8
sS'rsn_cache_ratio'
p1728
I64
sg1705
S'CACHE_ALL_RSN_ALL_SIT'
p1729
ssS'warmup_strategy'
p1730
g11
(tRp1731
S'p'
F0.10000000000000001
sg1705
S'NDN'
p1732
ssS'topology'
p1733
g11
(tRp1734
S'ext_delay'
p1735
I2
sS'source_ratio'
p1736
F1
sg1705
S'ROCKET_FUEL'
p1737
sS'asn'
p1738
I3257
ssg11
(tRp1739
S'LATENCY'
p1740
g11
(tRp1741
S'MEAN'
p1742
F0.39182089047211754
ssS'CACHE_HIT_RATIO'
p1743
g11
(tRp1744
S'MEAN_NETWORK_HITS'
p1745
F0.025546793492053049
sS'MEAN_USER_HITS'
p1746
F0.10958897671839313
sg1742
F0.13513577021044618
ssS'OVERHEAD'
p1747
g11
(tRp1748
g1742
F4.6526169361850114
ssS'ABS'
p1749
g11
(tRp1750
S'MEAN_ABS_TIME'
p1751
F-1853761.6870376966
sS'NUM_ABS'
p1752
I9754
sstp1753
a(g11
(tRp1754
S'workload'
p1755
g11
(tRp1756
S'n_contents'
p1757
I10000
sS'disconnection_rate'
p1758
F0.0025000000000000001
sS'name'
p1759
S'STATIONARY_SIT'
p1760
sS'n_warmup'
p1761
I36000
sS'rate'
p1762
I100
sS'n_measured'
p1763
I108000
sS'alpha'
p1764
F0.69999999999999996
ssS'cache_policy'
p1765
g11
(tRp1766
g1759
S'LRU'
p1767
ssS'desc'
p1768
S'strategy: SIT_WITH_SCOPED_FLOODING network_cache: 0.375'
p1769
sS'strategy'
p1770
g11
(tRp1771
S'fan_out'
p1772
I1
sg1759
S'SIT_WITH_SCOPED_FLOODING'
p1773
sS'scope'
p1774
I1
ssS'content_placement'
p1775
g11
(tRp1776
g1759
S'UNIFORM'
p1777
ssS'joint_cache_rsn_placement'
p1778
g11
(tRp1779
S'network_cache'
p1780
F0.375
sS'network_rsn'
p1781
F24
sS'rsn_cache_ratio'
p1782
I64
sg1759
S'CACHE_ALL_RSN_ALL_SIT'
p1783
ssS'warmup_strategy'
p1784
g11
(tRp1785
S'p'
F0.10000000000000001
sg1759
S'NDN'
p1786
ssS'topology'
p1787
g11
(tRp1788
S'ext_delay'
p1789
I2
sS'source_ratio'
p1790
F1
sg1759
S'ROCKET_FUEL'
p1791
sS'asn'
p1792
I3257
ssg11
(tRp1793
S'LATENCY'
p1794
g11
(tRp1795
S'MEAN'
p1796
F0.45515284685201829
ssS'CACHE_HIT_RATIO'
p1797
g11
(tRp1798
S'MEAN_NETWORK_HITS'
p1799
F0.042195800181618857
sS'MEAN_USER_HITS'
p1800
F0.11207200764116632
sg1796
F0.15426780782278518
ssS'OVERHEAD'
p1801
g11
(tRp1802
g1796
F3.5034617378839172
ssS'ABS'
p1803
g11
(tRp1804
S'MEAN_ABS_TIME'
p1805
F-1606723.1005814506
sS'NUM_ABS'
p1806
I9592
sstp1807
a(g11
(tRp1808
S'workload'
p1809
g11
(tRp1810
S'n_contents'
p1811
I10000
sS'disconnection_rate'
p1812
F0.0025000000000000001
sS'name'
p1813
S'STATIONARY_SIT'
p1814
sS'n_warmup'
p1815
I36000
sS'rate'
p1816
I100
sS'n_measured'
p1817
I108000
sS'alpha'
p1818
F0.69999999999999996
ssS'cache_policy'
p1819
g11
(tRp1820
g1813
S'LRU'
p1821
ssS'desc'
p1822
S'strategy: SIT_WITH_SCOPED_FLOODING network_cache: 0.25'
p1823
sS'strategy'
p1824
g11
(tRp1825
S'fan_out'
p1826
I100
sg1813
S'SIT_WITH_SCOPED_FLOODING'
p1827
sS'scope'
p1828
I1
ssS'content_placement'
p1829
g11
(tRp1830
g1813
S'UNIFORM'
p1831
ssS'joint_cache_rsn_placement'
p1832
g11
(tRp1833
S'network_cache'
p1834
F0.25
sS'network_rsn'
p1835
F16
sS'rsn_cache_ratio'
p1836
I64
sg1813
S'CACHE_ALL_RSN_ALL_SIT'
p1837
ssS'warmup_strategy'
p1838
g11
(tRp1839
S'p'
F0.10000000000000001
sg1813
S'NDN'
p1840
ssS'topology'
p1841
g11
(tRp1842
S'ext_delay'
p1843
I2
sS'source_ratio'
p1844
F1
sg1813
S'ROCKET_FUEL'
p1845
sS'asn'
p1846
I3257
ssg11
(tRp1847
S'LATENCY'
p1848
g11
(tRp1849
S'MEAN'
p1850
F0.48064467469288857
ssS'CACHE_HIT_RATIO'
p1851
g11
(tRp1852
S'MEAN_NETWORK_HITS'
p1853
F0.039545013151816272
sS'MEAN_USER_HITS'
p1854
F0.1217650774495847
sg1850
F0.16131009060140097
ssS'OVERHEAD'
p1855
g11
(tRp1856
g1850
F4.987901811805961
ssS'ABS'
p1857
g11
(tRp1858
S'MEAN_ABS_TIME'
p1859
F-2104285.2576040942
sS'NUM_ABS'
p1860
I9911
sstp1861
a(g11
(tRp1862
S'workload'
p1863
g11
(tRp1864
S'n_contents'
p1865
I10000
sS'disconnection_rate'
p1866
F0.0025000000000000001
sS'name'
p1867
S'STATIONARY_SIT'
p1868
sS'n_warmup'
p1869
I36000
sS'rate'
p1870
I100
sS'n_measured'
p1871
I108000
sS'alpha'
p1872
F0.69999999999999996
ssS'cache_policy'
p1873
g11
(tRp1874
g1867
S'LRU'
p1875
ssS'desc'
p1876
S'strategy: SIT_WITH_SCOPED_FLOODING network_cache: 0.125'
p1877
sS'strategy'
p1878
g11
(tRp1879
S'fan_out'
p1880
I1
sg1867
S'SIT_WITH_SCOPED_FLOODING'
p1881
sS'scope'
p1882
I2
ssS'content_placement'
p1883
g11
(tRp1884
g1867
S'UNIFORM'
p1885
ssS'joint_cache_rsn_placement'
p1886
g11
(tRp1887
S'network_cache'
p1888
F0.125
sS'network_rsn'
p1889
F8
sS'rsn_cache_ratio'
p1890
I64
sg1867
S'CACHE_ALL_RSN_ALL_SIT'
p1891
ssS'warmup_strategy'
p1892
g11
(tRp1893
S'p'
F0.10000000000000001
sg1867
S'NDN'
p1894
ssS'topology'
p1895
g11
(tRp1896
S'ext_delay'
p1897
I2
sS'source_ratio'
p1898
F1
sg1867
S'ROCKET_FUEL'
p1899
sS'asn'
p1900
I3257
ssg11
(tRp1901
S'LATENCY'
p1902
g11
(tRp1903
S'MEAN'
p1904
F0.91393317451591227
ssS'CACHE_HIT_RATIO'
p1905
g11
(tRp1906
S'MEAN_NETWORK_HITS'
p1907
F0.041377106797667547
sS'MEAN_USER_HITS'
p1908
F0.18887526254211245
sg1904
F0.23025236933977999
ssS'OVERHEAD'
p1909
g11
(tRp1910
g1904
F5.6204926229006391
ssS'ABS'
p1911
g11
(tRp1912
S'MEAN_ABS_TIME'
p1913
F-2249153.3164549558
sS'NUM_ABS'
p1914
I10043
sstp1915
a(g11
(tRp1916
S'workload'
p1917
g11
(tRp1918
S'n_contents'
p1919
I10000
sS'disconnection_rate'
p1920
F0.0025000000000000001
sS'name'
p1921
S'STATIONARY_SIT'
p1922
sS'n_warmup'
p1923
I36000
sS'rate'
p1924
I100
sS'n_measured'
p1925
I108000
sS'alpha'
p1926
F0.69999999999999996
ssS'cache_policy'
p1927
g11
(tRp1928
g1921
S'LRU'
p1929
ssS'desc'
p1930
S'strategy: SIT_WITH_SCOPED_FLOODING network_cache: 0.375'
p1931
sS'strategy'
p1932
g11
(tRp1933
S'fan_out'
p1934
I100
sg1921
S'SIT_WITH_SCOPED_FLOODING'
p1935
sS'scope'
p1936
I1
ssS'content_placement'
p1937
g11
(tRp1938
g1921
S'UNIFORM'
p1939
ssS'joint_cache_rsn_placement'
p1940
g11
(tRp1941
S'network_cache'
p1942
F0.375
sS'network_rsn'
p1943
F24
sS'rsn_cache_ratio'
p1944
I64
sg1921
S'CACHE_ALL_RSN_ALL_SIT'
p1945
ssS'warmup_strategy'
p1946
g11
(tRp1947
S'p'
F0.10000000000000001
sg1921
S'NDN'
p1948
ssS'topology'
p1949
g11
(tRp1950
S'ext_delay'
p1951
I2
sS'source_ratio'
p1952
F1
sg1921
S'ROCKET_FUEL'
p1953
sS'asn'
p1954
I3257
ssg11
(tRp1955
S'LATENCY'
p1956
g11
(tRp1957
S'MEAN'
p1958
F0.53702151307361912
ssS'CACHE_HIT_RATIO'
p1959
g11
(tRp1960
S'MEAN_NETWORK_HITS'
p1961
F0.049939718182503201
sS'MEAN_USER_HITS'
p1962
F0.12886651345038053
sg1958
F0.17880623163288373
ssS'OVERHEAD'
p1963
g11
(tRp1964
g1958
F5.1381726235941736
ssS'ABS'
p1965
g11
(tRp1966
S'MEAN_ABS_TIME'
p1967
F-2434554.0107930317
sS'NUM_ABS'
p1968
I10183
sstp1969
a(g11
(tRp1970
S'workload'
p1971
g11
(tRp1972
S'n_contents'
p1973
I10000
sS'disconnection_rate'
p1974
F0.0025000000000000001
sS'name'
p1975
S'STATIONARY_SIT'
p1976
sS'n_warmup'
p1977
I36000
sS'rate'
p1978
I100
sS'n_measured'
p1979
I108000
sS'alpha'
p1980
F0.69999999999999996
ssS'cache_policy'
p1981
g11
(tRp1982
g1975
S'LRU'
p1983
ssS'desc'
p1984
S'strategy: SIT_WITH_SCOPED_FLOODING network_cache: 0.25'
p1985
sS'strategy'
p1986
g11
(tRp1987
S'fan_out'
p1988
I1
sg1975
S'SIT_WITH_SCOPED_FLOODING'
p1989
sS'scope'
p1990
I2
ssS'content_placement'
p1991
g11
(tRp1992
g1975
S'UNIFORM'
p1993
ssS'joint_cache_rsn_placement'
p1994
g11
(tRp1995
S'network_cache'
p1996
F0.25
sS'network_rsn'
p1997
F16
sS'rsn_cache_ratio'
p1998
I64
sg1975
S'CACHE_ALL_RSN_ALL_SIT'
p1999
ssS'warmup_strategy'
p2000
g11
(tRp2001
S'p'
F0.10000000000000001
sg1975
S'NDN'
p2002
ssS'topology'
p2003
g11
(tRp2004
S'ext_delay'
p2005
I2
sS'source_ratio'
p2006
F1
sg1975
S'ROCKET_FUEL'
p2007
sS'asn'
p2008
I3257
ssg11
(tRp2009
S'LATENCY'
p2010
g11
(tRp2011
S'MEAN'
p2012
F1.0492333628435269
ssS'CACHE_HIT_RATIO'
p2013
g11
(tRp2014
S'MEAN_NETWORK_HITS'
p2015
F0.062809621578858138
sS'MEAN_USER_HITS'
p2016
F0.19776224830002448
sg2012
F0.26057186987888264
ssS'OVERHEAD'
p2017
g11
(tRp2018
g2012
F5.6816785339935665
ssS'ABS'
p2019
g11
(tRp2020
S'MEAN_ABS_TIME'
p2021
F-2294138.7842959664
sS'NUM_ABS'
p2022
I10052
sstp2023
a(g11
(tRp2024
S'workload'
p2025
g11
(tRp2026
S'n_contents'
p2027
I10000
sS'disconnection_rate'
p2028
F0.0025000000000000001
sS'name'
p2029
S'STATIONARY_SIT'
p2030
sS'n_warmup'
p2031
I36000
sS'rate'
p2032
I100
sS'n_measured'
p2033
I108000
sS'alpha'
p2034
F0.69999999999999996
ssS'cache_policy'
p2035
g11
(tRp2036
g2029
S'LRU'
p2037
ssS'desc'
p2038
S'strategy: SIT_WITH_SCOPED_FLOODING network_cache: 0.125'
p2039
sS'strategy'
p2040
g11
(tRp2041
S'fan_out'
p2042
I100
sg2029
S'SIT_WITH_SCOPED_FLOODING'
p2043
sS'scope'
p2044
I2
ssS'content_placement'
p2045
g11
(tRp2046
g2029
S'UNIFORM'
p2047
ssS'joint_cache_rsn_placement'
p2048
g11
(tRp2049
S'network_cache'
p2050
F0.125
sS'network_rsn'
p2051
F8
sS'rsn_cache_ratio'
p2052
I64
sg2029
S'CACHE_ALL_RSN_ALL_SIT'
p2053
ssS'warmup_strategy'
p2054
g11
(tRp2055
S'p'
F0.10000000000000001
sg2029
S'NDN'
p2056
ssS'topology'
p2057
g11
(tRp2058
S'ext_delay'
p2059
I2
sS'source_ratio'
p2060
F1
sg2029
S'ROCKET_FUEL'
p2061
sS'asn'
p2062
I3257
ssg11
(tRp2063
S'LATENCY'
p2064
g11
(tRp2065
S'MEAN'
p2066
F0.87561415657400732
ssS'CACHE_HIT_RATIO'
p2067
g11
(tRp2068
S'MEAN_NETWORK_HITS'
p2069
F0.039927832186279634
sS'MEAN_USER_HITS'
p2070
F0.19909272056641369
sg2066
F0.23902055275269335
ssS'OVERHEAD'
p2071
g11
(tRp2072
g2066
F6.806089869925108
ssS'ABS'
p2073
g11
(tRp2074
S'MEAN_ABS_TIME'
p2075
F-2289127.7818341749
sS'NUM_ABS'
p2076
I10106
sstp2077
a(g11
(tRp2078
S'workload'
p2079
g11
(tRp2080
S'n_contents'
p2081
I10000
sS'disconnection_rate'
p2082
F0.0025000000000000001
sS'name'
p2083
S'STATIONARY_SIT'
p2084
sS'n_warmup'
p2085
I36000
sS'rate'
p2086
I100
sS'n_measured'
p2087
I108000
sS'alpha'
p2088
F0.69999999999999996
ssS'cache_policy'
p2089
g11
(tRp2090
g2083
S'LRU'
p2091
ssS'desc'
p2092
S'strategy: SIT_WITH_SCOPED_FLOODING network_cache: 0.5'
p2093
sS'strategy'
p2094
g11
(tRp2095
S'fan_out'
p2096
I1
sg2083
S'SIT_WITH_SCOPED_FLOODING'
p2097
sS'scope'
p2098
I1
ssS'content_placement'
p2099
g11
(tRp2100
g2083
S'UNIFORM'
p2101
ssS'joint_cache_rsn_placement'
p2102
g11
(tRp2103
S'network_cache'
p2104
F0.5
sS'network_rsn'
p2105
F32
sS'rsn_cache_ratio'
p2106
I64
sg2083
S'CACHE_ALL_RSN_ALL_SIT'
p2107
ssS'warmup_strategy'
p2108
g11
(tRp2109
S'p'
F0.10000000000000001
sg2083
S'NDN'
p2110
ssS'topology'
p2111
g11
(tRp2112
S'ext_delay'
p2113
I2
sS'source_ratio'
p2114
F1
sg2083
S'ROCKET_FUEL'
p2115
sS'asn'
p2116
I3257
ssg11
(tRp2117
S'LATENCY'
p2118
g11
(tRp2119
S'MEAN'
p2120
F0.48184369379125896
ssS'CACHE_HIT_RATIO'
p2121
g11
(tRp2122
S'MEAN_NETWORK_HITS'
p2123
F0.049501360781248525
sS'MEAN_USER_HITS'
p2124
F0.11359933703114258
sg2120
F0.16310069781239112
ssS'OVERHEAD'
p2125
g11
(tRp2126
g2120
F3.502179624123098
ssS'ABS'
p2127
g11
(tRp2128
S'MEAN_ABS_TIME'
p2129
F-1605092.7945826889
sS'NUM_ABS'
p2130
I9567
sstp2131
a(g11
(tRp2132
S'workload'
p2133
g11
(tRp2134
S'n_contents'
p2135
I10000
sS'disconnection_rate'
p2136
F0.0025000000000000001
sS'name'
p2137
S'STATIONARY_SIT'
p2138
sS'n_warmup'
p2139
I36000
sS'rate'
p2140
I100
sS'n_measured'
p2141
I108000
sS'alpha'
p2142
F0.69999999999999996
ssS'cache_policy'
p2143
g11
(tRp2144
g2137
S'LRU'
p2145
ssS'desc'
p2146
S'strategy: SIT_WITH_SCOPED_FLOODING network_cache: 0.375'
p2147
sS'strategy'
p2148
g11
(tRp2149
S'fan_out'
p2150
I1
sg2137
S'SIT_WITH_SCOPED_FLOODING'
p2151
sS'scope'
p2152
I2
ssS'content_placement'
p2153
g11
(tRp2154
g2137
S'UNIFORM'
p2155
ssS'joint_cache_rsn_placement'
p2156
g11
(tRp2157
S'network_cache'
p2158
F0.375
sS'network_rsn'
p2159
F24
sS'rsn_cache_ratio'
p2160
I64
sg2137
S'CACHE_ALL_RSN_ALL_SIT'
p2161
ssS'warmup_strategy'
p2162
g11
(tRp2163
S'p'
F0.10000000000000001
sg2137
S'NDN'
p2164
ssS'topology'
p2165
g11
(tRp2166
S'ext_delay'
p2167
I2
sS'source_ratio'
p2168
F1
sg2137
S'ROCKET_FUEL'
p2169
sS'asn'
p2170
I3257
ssg11
(tRp2171
S'LATENCY'
p2172
g11
(tRp2173
S'MEAN'
p2174
F1.0830037106100845
ssS'CACHE_HIT_RATIO'
p2175
g11
(tRp2176
S'MEAN_NETWORK_HITS'
p2177
F0.075761428490704635
sS'MEAN_USER_HITS'
p2178
F0.19550394605488688
sg2174
F0.27126537454559152
ssS'OVERHEAD'
p2179
g11
(tRp2180
g2174
F5.6697102782647946
ssS'ABS'
p2181
g11
(tRp2182
S'MEAN_ABS_TIME'
p2183
F-1985677.3324347716
sS'NUM_ABS'
p2184
I9798
sstp2185
a(g11
(tRp2186
S'workload'
p2187
g11
(tRp2188
S'n_contents'
p2189
I10000
sS'disconnection_rate'
p2190
F0.0025000000000000001
sS'name'
p2191
S'STATIONARY_SIT'
p2192
sS'n_warmup'
p2193
I36000
sS'rate'
p2194
I100
sS'n_measured'
p2195
I108000
sS'alpha'
p2196
F0.69999999999999996
ssS'cache_policy'
p2197
g11
(tRp2198
g2191
S'LRU'
p2199
ssS'desc'
p2200
S'strategy: SIT_WITH_SCOPED_FLOODING network_cache: 0.25'
p2201
sS'strategy'
p2202
g11
(tRp2203
S'fan_out'
p2204
I100
sg2191
S'SIT_WITH_SCOPED_FLOODING'
p2205
sS'scope'
p2206
I2
ssS'content_placement'
p2207
g11
(tRp2208
g2191
S'UNIFORM'
p2209
ssS'joint_cache_rsn_placement'
p2210
g11
(tRp2211
S'network_cache'
p2212
F0.25
sS'network_rsn'
p2213
F16
sS'rsn_cache_ratio'
p2214
I64
sg2191
S'CACHE_ALL_RSN_ALL_SIT'
p2215
ssS'warmup_strategy'
p2216
g11
(tRp2217
S'p'
F0.10000000000000001
sg2191
S'NDN'
p2218
ssS'topology'
p2219
g11
(tRp2220
S'ext_delay'
p2221
I2
sS'source_ratio'
p2222
F1
sg2191
S'ROCKET_FUEL'
p2223
sS'asn'
p2224
I3257
ssg11
(tRp2225
S'LATENCY'
p2226
g11
(tRp2227
S'MEAN'
p2228
F0.99920444756179649
ssS'CACHE_HIT_RATIO'
p2229
g11
(tRp2230
S'MEAN_NETWORK_HITS'
p2231
F0.061243415509035878
sS'MEAN_USER_HITS'
p2232
F0.20814758674581393
sg2228
F0.2693910022548498
ssS'OVERHEAD'
p2233
g11
(tRp2234
g2228
F6.9928879724605517
ssS'ABS'
p2235
g11
(tRp2236
S'MEAN_ABS_TIME'
p2237
F-2415550.5017875587
sS'NUM_ABS'
p2238
I10168
sstp2239
a(g11
(tRp2240
S'workload'
p2241
g11
(tRp2242
S'n_contents'
p2243
I10000
sS'disconnection_rate'
p2244
F0.0025000000000000001
sS'name'
p2245
S'STATIONARY_SIT'
p2246
sS'n_warmup'
p2247
I36000
sS'rate'
p2248
I100
sS'n_measured'
p2249
I108000
sS'alpha'
p2250
F0.69999999999999996
ssS'cache_policy'
p2251
g11
(tRp2252
g2245
S'LRU'
p2253
ssS'desc'
p2254
S'strategy: SIT_WITH_SCOPED_FLOODING network_cache: 0.5'
p2255
sS'strategy'
p2256
g11
(tRp2257
S'fan_out'
p2258
I100
sg2245
S'SIT_WITH_SCOPED_FLOODING'
p2259
sS'scope'
p2260
I1
ssS'content_placement'
p2261
g11
(tRp2262
g2245
S'UNIFORM'
p2263
ssS'joint_cache_rsn_placement'
p2264
g11
(tRp2265
S'network_cache'
p2266
F0.5
sS'network_rsn'
p2267
F32
sS'rsn_cache_ratio'
p2268
I64
sg2245
S'CACHE_ALL_RSN_ALL_SIT'
p2269
ssS'warmup_strategy'
p2270
g11
(tRp2271
S'p'
F0.10000000000000001
sg2245
S'NDN'
p2272
ssS'topology'
p2273
g11
(tRp2274
S'ext_delay'
p2275
I2
sS'source_ratio'
p2276
F1
sg2245
S'ROCKET_FUEL'
p2277
sS'asn'
p2278
I3257
ssg11
(tRp2279
S'LATENCY'
p2280
g11
(tRp2281
S'MEAN'
p2282
F0.57404992065995852
ssS'CACHE_HIT_RATIO'
p2283
g11
(tRp2284
S'MEAN_NETWORK_HITS'
p2285
F0.059653352293327432
sS'MEAN_USER_HITS'
p2286
F0.1301647541871295
sg2282
F0.18981810648045691
ssS'OVERHEAD'
p2287
g11
(tRp2288
g2282
F5.1781559298489324
ssS'ABS'
p2289
g11
(tRp2290
S'MEAN_ABS_TIME'
p2291
F-2677400.7685472136
sS'NUM_ABS'
p2292
I10301
sstp2293
a(g11
(tRp2294
S'workload'
p2295
g11
(tRp2296
S'n_contents'
p2297
I10000
sS'disconnection_rate'
p2298
F0.0025000000000000001
sS'name'
p2299
S'STATIONARY_SIT'
p2300
sS'n_warmup'
p2301
I36000
sS'rate'
p2302
I100
sS'n_measured'
p2303
I108000
sS'alpha'
p2304
F0.69999999999999996
ssS'cache_policy'
p2305
g11
(tRp2306
g2299
S'LRU'
p2307
ssS'desc'
p2308
S'strategy: SIT_WITH_SCOPED_FLOODING network_cache: 0.625'
p2309
sS'strategy'
p2310
g11
(tRp2311
S'fan_out'
p2312
I1
sg2299
S'SIT_WITH_SCOPED_FLOODING'
p2313
sS'scope'
p2314
I1
ssS'content_placement'
p2315
g11
(tRp2316
g2299
S'UNIFORM'
p2317
ssS'joint_cache_rsn_placement'
p2318
g11
(tRp2319
S'network_cache'
p2320
F0.625
sS'network_rsn'
p2321
F40
sS'rsn_cache_ratio'
p2322
I64
sg2299
S'CACHE_ALL_RSN_ALL_SIT'
p2323
ssS'warmup_strategy'
p2324
g11
(tRp2325
S'p'
F0.10000000000000001
sg2299
S'NDN'
p2326
ssS'topology'
p2327
g11
(tRp2328
S'ext_delay'
p2329
I2
sS'source_ratio'
p2330
F1
sg2299
S'ROCKET_FUEL'
p2331
sS'asn'
p2332
I3257
ssg11
(tRp2333
S'LATENCY'
p2334
g11
(tRp2335
S'MEAN'
p2336
F0.50843001791819709
ssS'CACHE_HIT_RATIO'
p2337
g11
(tRp2338
S'MEAN_NETWORK_HITS'
p2339
F0.057342933599206142
sS'MEAN_USER_HITS'
p2340
F0.11523611104579251
sg2336
F0.17257904464499865
ssS'OVERHEAD'
p2341
g11
(tRp2342
g2336
F3.5341726618705036
ssS'ABS'
p2343
g11
(tRp2344
S'MEAN_ABS_TIME'
p2345
F-1531976.4961361373
sS'NUM_ABS'
p2346
I9565
sstp2347
a(g11
(tRp2348
S'workload'
p2349
g11
(tRp2350
S'n_contents'
p2351
I10000
sS'disconnection_rate'
p2352
F0.0025000000000000001
sS'name'
p2353
S'STATIONARY_SIT'
p2354
sS'n_warmup'
p2355
I36000
sS'rate'
p2356
I100
sS'n_measured'
p2357
I108000
sS'alpha'
p2358
F0.69999999999999996
ssS'cache_policy'
p2359
g11
(tRp2360
g2353
S'LRU'
p2361
ssS'desc'
p2362
S'strategy: SIT_WITH_SCOPED_FLOODING network_cache: 0.5'
p2363
sS'strategy'
p2364
g11
(tRp2365
S'fan_out'
p2366
I1
sg2353
S'SIT_WITH_SCOPED_FLOODING'
p2367
sS'scope'
p2368
I2
ssS'content_placement'
p2369
g11
(tRp2370
g2353
S'UNIFORM'
p2371
ssS'joint_cache_rsn_placement'
p2372
g11
(tRp2373
S'network_cache'
p2374
F0.5
sS'network_rsn'
p2375
F32
sS'rsn_cache_ratio'
p2376
I64
sg2353
S'CACHE_ALL_RSN_ALL_SIT'
p2377
ssS'warmup_strategy'
p2378
g11
(tRp2379
S'p'
F0.10000000000000001
sg2353
S'NDN'
p2380
ssS'topology'
p2381
g11
(tRp2382
S'ext_delay'
p2383
I2
sS'source_ratio'
p2384
F1
sg2353
S'ROCKET_FUEL'
p2385
sS'asn'
p2386
I3257
ssg11
(tRp2387
S'LATENCY'
p2388
g11
(tRp2389
S'MEAN'
p2390
F1.1376743353831376
ssS'CACHE_HIT_RATIO'
p2391
g11
(tRp2392
S'MEAN_NETWORK_HITS'
p2393
F0.092622588027008443
sS'MEAN_USER_HITS'
p2394
F0.19283070751207751
sg2390
F0.28545329553908599
ssS'OVERHEAD'
p2395
g11
(tRp2396
g2390
F5.6922835840591182
ssS'ABS'
p2397
g11
(tRp2398
S'MEAN_ABS_TIME'
p2399
F-1597902.5907418446
sS'NUM_ABS'
p2400
I9604
sstp2401
a(g11
(tRp2402
S'workload'
p2403
g11
(tRp2404
S'n_contents'
p2405
I10000
sS'disconnection_rate'
p2406
F0.0025000000000000001
sS'name'
p2407
S'STATIONARY_SIT'
p2408
sS'n_warmup'
p2409
I36000
sS'rate'
p2410
I100
sS'n_measured'
p2411
I108000
sS'alpha'
p2412
F0.69999999999999996
ssS'cache_policy'
p2413
g11
(tRp2414
g2407
S'LRU'
p2415
ssS'desc'
p2416
S'strategy: SIT_WITH_SCOPED_FLOODING network_cache: 0.75'
p2417
sS'strategy'
p2418
g11
(tRp2419
S'fan_out'
p2420
I1
sg2407
S'SIT_WITH_SCOPED_FLOODING'
p2421
sS'scope'
p2422
I1
ssS'content_placement'
p2423
g11
(tRp2424
g2407
S'UNIFORM'
p2425
ssS'joint_cache_rsn_placement'
p2426
g11
(tRp2427
S'network_cache'
p2428
F0.75
sS'network_rsn'
p2429
F48
sS'rsn_cache_ratio'
p2430
I64
sg2407
S'CACHE_ALL_RSN_ALL_SIT'
p2431
ssS'warmup_strategy'
p2432
g11
(tRp2433
S'p'
F0.10000000000000001
sg2407
S'NDN'
p2434
ssS'topology'
p2435
g11
(tRp2436
S'ext_delay'
p2437
I2
sS'source_ratio'
p2438
F1
sg2407
S'ROCKET_FUEL'
p2439
sS'asn'
p2440
I3257
ssg11
(tRp2441
S'LATENCY'
p2442
g11
(tRp2443
S'MEAN'
p2444
F0.52324770209757243
ssS'CACHE_HIT_RATIO'
p2445
g11
(tRp2446
S'MEAN_NETWORK_HITS'
p2447
F0.063785057742163559
sS'MEAN_USER_HITS'
p2448
F0.11449446146594391
sg2444
F0.17827951920810747
ssS'OVERHEAD'
p2449
g11
(tRp2450
g2444
F3.5123473110887842
ssS'ABS'
p2451
g11
(tRp2452
S'MEAN_ABS_TIME'
p2453
F-1553236.2663220558
sS'NUM_ABS'
p2454
I9565
sstp2455
a(g11
(tRp2456
S'workload'
p2457
g11
(tRp2458
S'n_contents'
p2459
I10000
sS'disconnection_rate'
p2460
F0.0025000000000000001
sS'name'
p2461
S'STATIONARY_SIT'
p2462
sS'n_warmup'
p2463
I36000
sS'rate'
p2464
I100
sS'n_measured'
p2465
I108000
sS'alpha'
p2466
F0.69999999999999996
ssS'cache_policy'
p2467
g11
(tRp2468
g2461
S'LRU'
p2469
ssS'desc'
p2470
S'strategy: SIT_WITH_SCOPED_FLOODING network_cache: 0.375'
p2471
sS'strategy'
p2472
g11
(tRp2473
S'fan_out'
p2474
I100
sg2461
S'SIT_WITH_SCOPED_FLOODING'
p2475
sS'scope'
p2476
I2
ssS'content_placement'
p2477
g11
(tRp2478
g2461
S'UNIFORM'
p2479
ssS'joint_cache_rsn_placement'
p2480
g11
(tRp2481
S'network_cache'
p2482
F0.375
sS'network_rsn'
p2483
F24
sS'rsn_cache_ratio'
p2484
I64
sg2461
S'CACHE_ALL_RSN_ALL_SIT'
p2485
ssS'warmup_strategy'
p2486
g11
(tRp2487
S'p'
F0.10000000000000001
sg2461
S'NDN'
p2488
ssS'topology'
p2489
g11
(tRp2490
S'ext_delay'
p2491
I2
sS'source_ratio'
p2492
F1
sg2461
S'ROCKET_FUEL'
p2493
sS'asn'
p2494
I3257
ssg11
(tRp2495
S'LATENCY'
p2496
g11
(tRp2497
S'MEAN'
p2498
F1.0760464875156701
ssS'CACHE_HIT_RATIO'
p2499
g11
(tRp2500
S'MEAN_NETWORK_HITS'
p2501
F0.07546209457739908
sS'MEAN_USER_HITS'
p2502
F0.21214877513125277
sg2498
F0.28761086970865185
ssS'OVERHEAD'
p2503
g11
(tRp2504
g2498
F7.0856014550936468
ssS'ABS'
p2505
g11
(tRp2506
S'MEAN_ABS_TIME'
p2507
F-1602217.0986547791
sS'NUM_ABS'
p2508
I9592
sstp2509
a(g11
(tRp2510
S'workload'
p2511
g11
(tRp2512
S'n_contents'
p2513
I10000
sS'disconnection_rate'
p2514
F0.0025000000000000001
sS'name'
p2515
S'STATIONARY_SIT'
p2516
sS'n_warmup'
p2517
I36000
sS'rate'
p2518
I100
sS'n_measured'
p2519
I108000
sS'alpha'
p2520
F0.69999999999999996
ssS'cache_policy'
p2521
g11
(tRp2522
g2515
S'LRU'
p2523
ssS'desc'
p2524
S'strategy: SIT_WITH_SCOPED_FLOODING network_cache: 0.625'
p2525
sS'strategy'
p2526
g11
(tRp2527
S'fan_out'
p2528
I100
sg2515
S'SIT_WITH_SCOPED_FLOODING'
p2529
sS'scope'
p2530
I1
ssS'content_placement'
p2531
g11
(tRp2532
g2515
S'UNIFORM'
p2533
ssS'joint_cache_rsn_placement'
p2534
g11
(tRp2535
S'network_cache'
p2536
F0.625
sS'network_rsn'
p2537
F40
sS'rsn_cache_ratio'
p2538
I64
sg2515
S'CACHE_ALL_RSN_ALL_SIT'
p2539
ssS'warmup_strategy'
p2540
g11
(tRp2541
S'p'
F0.10000000000000001
sg2515
S'NDN'
p2542
ssS'topology'
p2543
g11
(tRp2544
S'ext_delay'
p2545
I2
sS'source_ratio'
p2546
F1
sg2515
S'ROCKET_FUEL'
p2547
sS'asn'
p2548
I3257
ssg11
(tRp2549
S'LATENCY'
p2550
g11
(tRp2551
S'MEAN'
p2552
F0.59640936784910492
ssS'CACHE_HIT_RATIO'
p2553
g11
(tRp2554
S'MEAN_NETWORK_HITS'
p2555
F0.067405572872034886
sS'MEAN_USER_HITS'
p2556
F0.13042290923130526
sg2552
F0.19782848210334014
ssS'OVERHEAD'
p2557
g11
(tRp2558
g2552
F5.2107054455445541
ssS'ABS'
p2559
g11
(tRp2560
S'MEAN_ABS_TIME'
p2561
F-2728175.4903805079
sS'NUM_ABS'
p2562
I10363
sstp2563
a(g11
(tRp2564
S'workload'
p2565
g11
(tRp2566
S'n_contents'
p2567
I10000
sS'disconnection_rate'
p2568
F0.0025000000000000001
sS'name'
p2569
S'STATIONARY_SIT'
p2570
sS'n_warmup'
p2571
I36000
sS'rate'
p2572
I100
sS'n_measured'
p2573
I108000
sS'alpha'
p2574
F0.69999999999999996
ssS'cache_policy'
p2575
g11
(tRp2576
g2569
S'LRU'
p2577
ssS'desc'
p2578
S'strategy: SIT_WITH_SCOPED_FLOODING network_cache: 0.75'
p2579
sS'strategy'
p2580
g11
(tRp2581
S'fan_out'
p2582
I100
sg2569
S'SIT_WITH_SCOPED_FLOODING'
p2583
sS'scope'
p2584
I1
ssS'content_placement'
p2585
g11
(tRp2586
g2569
S'UNIFORM'
p2587
ssS'joint_cache_rsn_placement'
p2588
g11
(tRp2589
S'network_cache'
p2590
F0.75
sS'network_rsn'
p2591
F48
sS'rsn_cache_ratio'
p2592
I64
sg2569
S'CACHE_ALL_RSN_ALL_SIT'
p2593
ssS'warmup_strategy'
p2594
g11
(tRp2595
S'p'
F0.10000000000000001
sg2569
S'NDN'
p2596
ssS'topology'
p2597
g11
(tRp2598
S'ext_delay'
p2599
I2
sS'source_ratio'
p2600
F1
sg2569
S'ROCKET_FUEL'
p2601
sS'asn'
p2602
I3257
ssg11
(tRp2603
S'LATENCY'
p2604
g11
(tRp2605
S'MEAN'
p2606
F0.61126542700439057
ssS'CACHE_HIT_RATIO'
p2607
g11
(tRp2608
S'MEAN_NETWORK_HITS'
p2609
F0.074285417855475433
sS'MEAN_USER_HITS'
p2610
F0.13071630346102514
sg2606
F0.20500172131650057
ssS'OVERHEAD'
p2611
g11
(tRp2612
g2606
F5.1519438693351738
ssS'ABS'
p2613
g11
(tRp2614
S'MEAN_ABS_TIME'
p2615
F-2668542.555099708
sS'NUM_ABS'
p2616
I10333
sstp2617
a(g11
(tRp2618
S'workload'
p2619
g11
(tRp2620
S'n_contents'
p2621
I10000
sS'disconnection_rate'
p2622
F0.0025000000000000001
sS'name'
p2623
S'STATIONARY_SIT'
p2624
sS'n_warmup'
p2625
I36000
sS'rate'
p2626
I100
sS'n_measured'
p2627
I108000
sS'alpha'
p2628
F0.69999999999999996
ssS'cache_policy'
p2629
g11
(tRp2630
g2623
S'LRU'
p2631
ssS'desc'
p2632
S'strategy: SIT_WITH_SCOPED_FLOODING network_cache: 0.5'
p2633
sS'strategy'
p2634
g11
(tRp2635
S'fan_out'
p2636
I100
sg2623
S'SIT_WITH_SCOPED_FLOODING'
p2637
sS'scope'
p2638
I2
ssS'content_placement'
p2639
g11
(tRp2640
g2623
S'UNIFORM'
p2641
ssS'joint_cache_rsn_placement'
p2642
g11
(tRp2643
S'network_cache'
p2644
F0.5
sS'network_rsn'
p2645
F32
sS'rsn_cache_ratio'
p2646
I64
sg2623
S'CACHE_ALL_RSN_ALL_SIT'
p2647
ssS'warmup_strategy'
p2648
g11
(tRp2649
S'p'
F0.10000000000000001
sg2623
S'NDN'
p2650
ssS'topology'
p2651
g11
(tRp2652
S'ext_delay'
p2653
I2
sS'source_ratio'
p2654
F1
sg2623
S'ROCKET_FUEL'
p2655
sS'asn'
p2656
I3257
ssg11
(tRp2657
S'LATENCY'
p2658
g11
(tRp2659
S'MEAN'
p2660
F1.126190823769855
ssS'CACHE_HIT_RATIO'
p2661
g11
(tRp2662
S'MEAN_NETWORK_HITS'
p2663
F0.089078091668118656
sS'MEAN_USER_HITS'
p2664
F0.21196780831916667
sg2660
F0.30104589998728531
ssS'OVERHEAD'
p2665
g11
(tRp2666
g2660
F7.1789826054311101
ssS'ABS'
p2667
g11
(tRp2668
S'MEAN_ABS_TIME'
p2669
F-1300996.4625607706
sS'NUM_ABS'
p2670
I9415
sstp2671
a(g11
(tRp2672
S'workload'
p2673
g11
(tRp2674
S'n_contents'
p2675
I10000
sS'disconnection_rate'
p2676
F0.0025000000000000001
sS'name'
p2677
S'STATIONARY_SIT'
p2678
sS'n_warmup'
p2679
I36000
sS'rate'
p2680
I100
sS'n_measured'
p2681
I108000
sS'alpha'
p2682
F0.69999999999999996
ssS'cache_policy'
p2683
g11
(tRp2684
g2677
S'LRU'
p2685
ssS'desc'
p2686
S'strategy: SIT_WITH_SCOPED_FLOODING network_cache: 0.625'
p2687
sS'strategy'
p2688
g11
(tRp2689
S'fan_out'
p2690
I1
sg2677
S'SIT_WITH_SCOPED_FLOODING'
p2691
sS'scope'
p2692
I2
ssS'content_placement'
p2693
g11
(tRp2694
g2677
S'UNIFORM'
p2695
ssS'joint_cache_rsn_placement'
p2696
g11
(tRp2697
S'network_cache'
p2698
F0.625
sS'network_rsn'
p2699
F40
sS'rsn_cache_ratio'
p2700
I64
sg2677
S'CACHE_ALL_RSN_ALL_SIT'
p2701
ssS'warmup_strategy'
p2702
g11
(tRp2703
S'p'
F0.10000000000000001
sg2677
S'NDN'
p2704
ssS'topology'
p2705
g11
(tRp2706
S'ext_delay'
p2707
I2
sS'source_ratio'
p2708
F1
sg2677
S'ROCKET_FUEL'
p2709
sS'asn'
p2710
I3257
ssg11
(tRp2711
S'LATENCY'
p2712
g11
(tRp2713
S'MEAN'
p2714
F1.1476231959126975
ssS'CACHE_HIT_RATIO'
p2715
g11
(tRp2716
S'MEAN_NETWORK_HITS'
p2717
F0.10181997975184234
sS'MEAN_USER_HITS'
p2718
F0.19048807477691709
sg2714
F0.29230805452875946
ssS'OVERHEAD'
p2719
g11
(tRp2720
g2714
F5.6479315677556547
ssS'ABS'
p2721
g11
(tRp2722
S'MEAN_ABS_TIME'
p2723
F-1035834.4695044452
sS'NUM_ABS'
p2724
I9239
sstp2725
a(g11
(tRp2726
S'workload'
p2727
g11
(tRp2728
S'n_contents'
p2729
I10000
sS'disconnection_rate'
p2730
F0.0025000000000000001
sS'name'
p2731
S'STATIONARY_SIT'
p2732
sS'n_warmup'
p2733
I36000
sS'rate'
p2734
I100
sS'n_measured'
p2735
I108000
sS'alpha'
p2736
F0.69999999999999996
ssS'cache_policy'
p2737
g11
(tRp2738
g2731
S'LRU'
p2739
ssS'desc'
p2740
S'strategy: SIT_WITH_SCOPED_FLOODING network_cache: 0.875'
p2741
sS'strategy'
p2742
g11
(tRp2743
S'fan_out'
p2744
I1
sg2731
S'SIT_WITH_SCOPED_FLOODING'
p2745
sS'scope'
p2746
I1
ssS'content_placement'
p2747
g11
(tRp2748
g2731
S'UNIFORM'
p2749
ssS'joint_cache_rsn_placement'
p2750
g11
(tRp2751
S'network_cache'
p2752
F0.875
sS'network_rsn'
p2753
F56
sS'rsn_cache_ratio'
p2754
I64
sg2731
S'CACHE_ALL_RSN_ALL_SIT'
p2755
ssS'warmup_strategy'
p2756
g11
(tRp2757
S'p'
F0.10000000000000001
sg2731
S'NDN'
p2758
ssS'topology'
p2759
g11
(tRp2760
S'ext_delay'
p2761
I2
sS'source_ratio'
p2762
F1
sg2731
S'ROCKET_FUEL'
p2763
sS'asn'
p2764
I3257
ssg11
(tRp2765
S'LATENCY'
p2766
g11
(tRp2767
S'MEAN'
p2768
F0.53100512356841467
ssS'CACHE_HIT_RATIO'
p2769
g11
(tRp2770
S'MEAN_NETWORK_HITS'
p2771
F0.069818037974683542
sS'MEAN_USER_HITS'
p2772
F0.11324122212176009
sg2768
F0.18305926009644363
ssS'OVERHEAD'
p2773
g11
(tRp2774
g2768
F3.4811565868340493
ssS'ABS'
p2775
g11
(tRp2776
S'MEAN_ABS_TIME'
p2777
F-1386763.9768654634
sS'NUM_ABS'
p2778
I9461
sstp2779
a(g11
(tRp2780
S'workload'
p2781
g11
(tRp2782
S'n_contents'
p2783
I10000
sS'disconnection_rate'
p2784
F0.0025000000000000001
sS'name'
p2785
S'STATIONARY_SIT'
p2786
sS'n_warmup'
p2787
I36000
sS'rate'
p2788
I100
sS'n_measured'
p2789
I108000
sS'alpha'
p2790
F0.69999999999999996
ssS'cache_policy'
p2791
g11
(tRp2792
g2785
S'LRU'
p2793
ssS'desc'
p2794
S'strategy: SIT_WITH_SCOPED_FLOODING network_cache: 0.75'
p2795
sS'strategy'
p2796
g11
(tRp2797
S'fan_out'
p2798
I1
sg2785
S'SIT_WITH_SCOPED_FLOODING'
p2799
sS'scope'
p2800
I2
ssS'content_placement'
p2801
g11
(tRp2802
g2785
S'UNIFORM'
p2803
ssS'joint_cache_rsn_placement'
p2804
g11
(tRp2805
S'network_cache'
p2806
F0.75
sS'network_rsn'
p2807
F48
sS'rsn_cache_ratio'
p2808
I64
sg2785
S'CACHE_ALL_RSN_ALL_SIT'
p2809
ssS'warmup_strategy'
p2810
g11
(tRp2811
S'p'
F0.10000000000000001
sg2785
S'NDN'
p2812
ssS'topology'
p2813
g11
(tRp2814
S'ext_delay'
p2815
I2
sS'source_ratio'
p2816
F1
sg2785
S'ROCKET_FUEL'
p2817
sS'asn'
p2818
I3257
ssg11
(tRp2819
S'LATENCY'
p2820
g11
(tRp2821
S'MEAN'
p2822
F1.1682911103476514
ssS'CACHE_HIT_RATIO'
p2823
g11
(tRp2824
S'MEAN_NETWORK_HITS'
p2825
F0.11166069756168728
sS'MEAN_USER_HITS'
p2826
F0.18780796581373568
sg2822
F0.29946866337542299
ssS'OVERHEAD'
p2827
g11
(tRp2828
g2822
F5.6501602967060602
ssS'ABS'
p2829
g11
(tRp2830
S'MEAN_ABS_TIME'
p2831
F-937874.63960643113
sS'NUM_ABS'
p2832
I9129
sstp2833
a(g11
(tRp2834
S'workload'
p2835
g11
(tRp2836
S'n_contents'
p2837
I10000
sS'disconnection_rate'
p2838
F0.0025000000000000001
sS'name'
p2839
S'STATIONARY_SIT'
p2840
sS'n_warmup'
p2841
I36000
sS'rate'
p2842
I100
sS'n_measured'
p2843
I108000
sS'alpha'
p2844
F0.69999999999999996
ssS'cache_policy'
p2845
g11
(tRp2846
g2839
S'LRU'
p2847
ssS'desc'
p2848
S'strategy: SIT_WITH_SCOPED_FLOODING network_cache: 0.625'
p2849
sS'strategy'
p2850
g11
(tRp2851
S'fan_out'
p2852
I100
sg2839
S'SIT_WITH_SCOPED_FLOODING'
p2853
sS'scope'
p2854
I2
ssS'content_placement'
p2855
g11
(tRp2856
g2839
S'UNIFORM'
p2857
ssS'joint_cache_rsn_placement'
p2858
g11
(tRp2859
S'network_cache'
p2860
F0.625
sS'network_rsn'
p2861
F40
sS'rsn_cache_ratio'
p2862
I64
sg2839
S'CACHE_ALL_RSN_ALL_SIT'
p2863
ssS'warmup_strategy'
p2864
g11
(tRp2865
S'p'
F0.10000000000000001
sg2839
S'NDN'
p2866
ssS'topology'
p2867
g11
(tRp2868
S'ext_delay'
p2869
I2
sS'source_ratio'
p2870
F1
sg2839
S'ROCKET_FUEL'
p2871
sS'asn'
p2872
I3257
ssg11
(tRp2873
S'LATENCY'
p2874
g11
(tRp2875
S'MEAN'
p2876
F1.1618936652971117
ssS'CACHE_HIT_RATIO'
p2877
g11
(tRp2878
S'MEAN_NETWORK_HITS'
p2879
F0.10149959196380978
sS'MEAN_USER_HITS'
p2880
F0.20956550042218774
sg2876
F0.3110650923859975
ssS'OVERHEAD'
p2881
g11
(tRp2882
g2876
F7.2586931137497537
ssS'ABS'
p2883
g11
(tRp2884
S'MEAN_ABS_TIME'
p2885
F-753112.1991341532
sS'NUM_ABS'
p2886
I9035
sstp2887
a(g11
(tRp2888
S'workload'
p2889
g11
(tRp2890
S'n_contents'
p2891
I10000
sS'disconnection_rate'
p2892
F0.0025000000000000001
sS'name'
p2893
S'STATIONARY_SIT'
p2894
sS'n_warmup'
p2895
I36000
sS'rate'
p2896
I100
sS'n_measured'
p2897
I108000
sS'alpha'
p2898
F0.69999999999999996
ssS'cache_policy'
p2899
g11
(tRp2900
g2893
S'LRU'
p2901
ssS'desc'
p2902
S'strategy: SIT_WITH_SCOPED_FLOODING network_cache: 0.875'
p2903
sS'strategy'
p2904
g11
(tRp2905
S'fan_out'
p2906
I100
sg2893
S'SIT_WITH_SCOPED_FLOODING'
p2907
sS'scope'
p2908
I1
ssS'content_placement'
p2909
g11
(tRp2910
g2893
S'UNIFORM'
p2911
ssS'joint_cache_rsn_placement'
p2912
g11
(tRp2913
S'network_cache'
p2914
F0.875
sS'network_rsn'
p2915
F56
sS'rsn_cache_ratio'
p2916
I64
sg2893
S'CACHE_ALL_RSN_ALL_SIT'
p2917
ssS'warmup_strategy'
p2918
g11
(tRp2919
S'p'
F0.10000000000000001
sg2893
S'NDN'
p2920
ssS'topology'
p2921
g11
(tRp2922
S'ext_delay'
p2923
I2
sS'source_ratio'
p2924
F1
sg2893
S'ROCKET_FUEL'
p2925
sS'asn'
p2926
I3257
ssg11
(tRp2927
S'LATENCY'
p2928
g11
(tRp2929
S'MEAN'
p2930
F0.61019811107766408
ssS'CACHE_HIT_RATIO'
p2931
g11
(tRp2932
S'MEAN_NETWORK_HITS'
p2933
F0.078811709813365438
sS'MEAN_USER_HITS'
p2934
F0.12751636815171583
sg2930
F0.20632807796508126
ssS'OVERHEAD'
p2935
g11
(tRp2936
g2930
F5.1158729796886044
ssS'ABS'
p2937
g11
(tRp2938
S'MEAN_ABS_TIME'
p2939
F-2583200.7180247782
sS'NUM_ABS'
p2940
I10294
sstp2941
a(g11
(tRp2942
S'workload'
p2943
g11
(tRp2944
S'n_contents'
p2945
I10000
sS'disconnection_rate'
p2946
F0.0025000000000000001
sS'name'
p2947
S'STATIONARY_SIT'
p2948
sS'n_warmup'
p2949
I36000
sS'rate'
p2950
I100
sS'n_measured'
p2951
I108000
sS'alpha'
p2952
F0.69999999999999996
ssS'cache_policy'
p2953
g11
(tRp2954
g2947
S'LRU'
p2955
ssS'desc'
p2956
S'strategy: SIT_WITH_SCOPED_FLOODING network_cache: 1.0'
p2957
sS'strategy'
p2958
g11
(tRp2959
S'fan_out'
p2960
I1
sg2947
S'SIT_WITH_SCOPED_FLOODING'
p2961
sS'scope'
p2962
I1
ssS'content_placement'
p2963
g11
(tRp2964
g2947
S'UNIFORM'
p2965
ssS'joint_cache_rsn_placement'
p2966
g11
(tRp2967
S'network_cache'
p2968
F1
sS'network_rsn'
p2969
F64
sS'rsn_cache_ratio'
p2970
I64
sg2947
S'CACHE_ALL_RSN_ALL_SIT'
p2971
ssS'warmup_strategy'
p2972
g11
(tRp2973
S'p'
F0.10000000000000001
sg2947
S'NDN'
p2974
ssS'topology'
p2975
g11
(tRp2976
S'ext_delay'
p2977
I2
sS'source_ratio'
p2978
F1
sg2947
S'ROCKET_FUEL'
p2979
sS'asn'
p2980
I3257
ssg11
(tRp2981
S'LATENCY'
p2982
g11
(tRp2983
S'MEAN'
p2984
F0.53585616115974777
ssS'CACHE_HIT_RATIO'
p2985
g11
(tRp2986
S'MEAN_NETWORK_HITS'
p2987
F0.074715240515861814
sS'MEAN_USER_HITS'
p2988
F0.11151746211051491
sg2984
F0.18623270262637673
ssS'OVERHEAD'
p2989
g11
(tRp2990
g2984
F3.4516895392625169
ssS'ABS'
p2991
g11
(tRp2992
S'MEAN_ABS_TIME'
p2993
F-1353950.7635321207
sS'NUM_ABS'
p2994
I9453
sstp2995
a(g11
(tRp2996
S'workload'
p2997
g11
(tRp2998
S'n_contents'
p2999
I10000
sS'disconnection_rate'
p3000
F0.0025000000000000001
sS'name'
p3001
S'STATIONARY_SIT'
p3002
sS'n_warmup'
p3003
I36000
sS'rate'
p3004
I100
sS'n_measured'
p3005
I108000
sS'alpha'
p3006
F0.69999999999999996
ssS'cache_policy'
p3007
g11
(tRp3008
g3001
S'LRU'
p3009
ssS'desc'
p3010
S'strategy: SIT_WITH_SCOPED_FLOODING network_cache: 0.75'
p3011
sS'strategy'
p3012
g11
(tRp3013
S'fan_out'
p3014
I100
sg3001
S'SIT_WITH_SCOPED_FLOODING'
p3015
sS'scope'
p3016
I2
ssS'content_placement'
p3017
g11
(tRp3018
g3001
S'UNIFORM'
p3019
ssS'joint_cache_rsn_placement'
p3020
g11
(tRp3021
S'network_cache'
p3022
F0.75
sS'network_rsn'
p3023
F48
sS'rsn_cache_ratio'
p3024
I64
sg3001
S'CACHE_ALL_RSN_ALL_SIT'
p3025
ssS'warmup_strategy'
p3026
g11
(tRp3027
S'p'
F0.10000000000000001
sg3001
S'NDN'
p3028
ssS'topology'
p3029
g11
(tRp3030
S'ext_delay'
p3031
I2
sS'source_ratio'
p3032
F1
sg3001
S'ROCKET_FUEL'
p3033
sS'asn'
p3034
I3257
ssg11
(tRp3035
S'LATENCY'
p3036
g11
(tRp3037
S'MEAN'
p3038
F1.1767085865008713
ssS'CACHE_HIT_RATIO'
p3039
g11
(tRp3040
S'MEAN_NETWORK_HITS'
p3041
F0.11275022372945222
sS'MEAN_USER_HITS'
p3042
F0.20567566294569262
sg3038
F0.31842588667514482
ssS'OVERHEAD'
p3043
g11
(tRp3044
g3038
F7.2196583092966495
ssS'ABS'
p3045
g11
(tRp3046
S'MEAN_ABS_TIME'
p3047
F-639351.33813417435
sS'NUM_ABS'
p3048
I8965
sstp3049
a(g11
(tRp3050
S'workload'
p3051
g11
(tRp3052
S'n_contents'
p3053
I10000
sS'disconnection_rate'
p3054
F0.0025000000000000001
sS'name'
p3055
S'STATIONARY_SIT'
p3056
sS'n_warmup'
p3057
I36000
sS'rate'
p3058
I100
sS'n_measured'
p3059
I108000
sS'alpha'
p3060
F0.69999999999999996
ssS'cache_policy'
p3061
g11
(tRp3062
g3055
S'LRU'
p3063
ssS'desc'
p3064
S'strategy: SIT_WITH_SCOPED_FLOODING network_cache: 1.0'
p3065
sS'strategy'
p3066
g11
(tRp3067
S'fan_out'
p3068
I100
sg3055
S'SIT_WITH_SCOPED_FLOODING'
p3069
sS'scope'
p3070
I1
ssS'content_placement'
p3071
g11
(tRp3072
g3055
S'UNIFORM'
p3073
ssS'joint_cache_rsn_placement'
p3074
g11
(tRp3075
S'network_cache'
p3076
F1
sS'network_rsn'
p3077
F64
sS'rsn_cache_ratio'
p3078
I64
sg3055
S'CACHE_ALL_RSN_ALL_SIT'
p3079
ssS'warmup_strategy'
p3080
g11
(tRp3081
S'p'
F0.10000000000000001
sg3055
S'NDN'
p3082
ssS'topology'
p3083
g11
(tRp3084
S'ext_delay'
p3085
I2
sS'source_ratio'
p3086
F1
sg3055
S'ROCKET_FUEL'
p3087
sS'asn'
p3088
I3257
ssg11
(tRp3089
S'LATENCY'
p3090
g11
(tRp3091
S'MEAN'
p3092
F0.61190210245026655
ssS'CACHE_HIT_RATIO'
p3093
g11
(tRp3094
S'MEAN_NETWORK_HITS'
p3095
F0.083918918282032795
sS'MEAN_USER_HITS'
p3096
F0.12582653489237963
sg3092
F0.2097454531744124
ssS'OVERHEAD'
p3097
g11
(tRp3098
g3092
F5.0338396548624846
ssS'ABS'
p3099
g11
(tRp3100
S'MEAN_ABS_TIME'
p3101
F-2394923.7021174589
sS'NUM_ABS'
p3102
I10133
sstp3103
a(g11
(tRp3104
S'workload'
p3105
g11
(tRp3106
S'n_contents'
p3107
I10000
sS'disconnection_rate'
p3108
F0.0025000000000000001
sS'name'
p3109
S'STATIONARY_SIT'
p3110
sS'n_warmup'
p3111
I36000
sS'rate'
p3112
I100
sS'n_measured'
p3113
I108000
sS'alpha'
p3114
F0.69999999999999996
ssS'cache_policy'
p3115
g11
(tRp3116
g3109
S'LRU'
p3117
ssS'desc'
p3118
S'strategy: SIT_WITH_SCOPED_FLOODING network_cache: 0.875'
p3119
sS'strategy'
p3120
g11
(tRp3121
S'fan_out'
p3122
I1
sg3109
S'SIT_WITH_SCOPED_FLOODING'
p3123
sS'scope'
p3124
I2
ssS'content_placement'
p3125
g11
(tRp3126
g3109
S'UNIFORM'
p3127
ssS'joint_cache_rsn_placement'
p3128
g11
(tRp3129
S'network_cache'
p3130
F0.875
sS'network_rsn'
p3131
F56
sS'rsn_cache_ratio'
p3132
I64
sg3109
S'CACHE_ALL_RSN_ALL_SIT'
p3133
ssS'warmup_strategy'
p3134
g11
(tRp3135
S'p'
F0.10000000000000001
sg3109
S'NDN'
p3136
ssS'topology'
p3137
g11
(tRp3138
S'ext_delay'
p3139
I2
sS'source_ratio'
p3140
F1
sg3109
S'ROCKET_FUEL'
p3141
sS'asn'
p3142
I3257
ssg11
(tRp3143
S'LATENCY'
p3144
g11
(tRp3145
S'MEAN'
p3146
F1.1578714386625855
ssS'CACHE_HIT_RATIO'
p3147
g11
(tRp3148
S'MEAN_NETWORK_HITS'
p3149
F0.11984930539204144
sS'MEAN_USER_HITS'
p3150
F0.18258064516129033
sg3146
F0.30242995055333177
ssS'OVERHEAD'
p3151
g11
(tRp3152
g3146
F5.587331246788434
ssS'ABS'
p3153
g11
(tRp3154
S'MEAN_ABS_TIME'
p3155
F-487084.25494476769
sS'NUM_ABS'
p3156
I8846
sstp3157
a(g11
(tRp3158
S'workload'
p3159
g11
(tRp3160
S'n_contents'
p3161
I10000
sS'disconnection_rate'
p3162
F0.0025000000000000001
sS'name'
p3163
S'STATIONARY_SIT'
p3164
sS'n_warmup'
p3165
I36000
sS'rate'
p3166
I100
sS'n_measured'
p3167
I108000
sS'alpha'
p3168
F0.69999999999999996
ssS'cache_policy'
p3169
g11
(tRp3170
g3163
S'LRU'
p3171
ssS'desc'
p3172
S'strategy: SIT_WITH_SCOPED_FLOODING network_cache: 1.25'
p3173
sS'strategy'
p3174
g11
(tRp3175
S'fan_out'
p3176
I1
sg3163
S'SIT_WITH_SCOPED_FLOODING'
p3177
sS'scope'
p3178
I1
ssS'content_placement'
p3179
g11
(tRp3180
g3163
S'UNIFORM'
p3181
ssS'joint_cache_rsn_placement'
p3182
g11
(tRp3183
S'network_cache'
p3184
F1.25
sS'network_rsn'
p3185
F80
sS'rsn_cache_ratio'
p3186
I64
sg3163
S'CACHE_ALL_RSN_ALL_SIT'
p3187
ssS'warmup_strategy'
p3188
g11
(tRp3189
S'p'
F0.10000000000000001
sg3163
S'NDN'
p3190
ssS'topology'
p3191
g11
(tRp3192
S'ext_delay'
p3193
I2
sS'source_ratio'
p3194
F1
sg3163
S'ROCKET_FUEL'
p3195
sS'asn'
p3196
I3257
ssg11
(tRp3197
S'LATENCY'
p3198
g11
(tRp3199
S'MEAN'
p3200
F0.54244519432711136
ssS'CACHE_HIT_RATIO'
p3201
g11
(tRp3202
S'MEAN_NETWORK_HITS'
p3203
F0.084479788564551531
sS'MEAN_USER_HITS'
p3204
F0.10811997073884419
sg3200
F0.19259975930339571
ssS'OVERHEAD'
p3205
g11
(tRp3206
g3200
F3.4030728515768582
ssS'ABS'
p3207
g11
(tRp3208
S'MEAN_ABS_TIME'
p3209
F-1109018.7955402101
sS'NUM_ABS'
p3210
I9181
sstp3211
a(g11
(tRp3212
S'workload'
p3213
g11
(tRp3214
S'n_contents'
p3215
I10000
sS'disconnection_rate'
p3216
F0.0025000000000000001
sS'name'
p3217
S'STATIONARY_SIT'
p3218
sS'n_warmup'
p3219
I36000
sS'rate'
p3220
I100
sS'n_measured'
p3221
I108000
sS'alpha'
p3222
F0.69999999999999996
ssS'cache_policy'
p3223
g11
(tRp3224
g3217
S'LRU'
p3225
ssS'desc'
p3226
S'strategy: SIT_WITH_SCOPED_FLOODING network_cache: 1.25'
p3227
sS'strategy'
p3228
g11
(tRp3229
S'fan_out'
p3230
I100
sg3217
S'SIT_WITH_SCOPED_FLOODING'
p3231
sS'scope'
p3232
I1
ssS'content_placement'
p3233
g11
(tRp3234
g3217
S'UNIFORM'
p3235
ssS'joint_cache_rsn_placement'
p3236
g11
(tRp3237
S'network_cache'
p3238
F1.25
sS'network_rsn'
p3239
F80
sS'rsn_cache_ratio'
p3240
I64
sg3217
S'CACHE_ALL_RSN_ALL_SIT'
p3241
ssS'warmup_strategy'
p3242
g11
(tRp3243
S'p'
F0.10000000000000001
sg3217
S'NDN'
p3244
ssS'topology'
p3245
g11
(tRp3246
S'ext_delay'
p3247
I2
sS'source_ratio'
p3248
F1
sg3217
S'ROCKET_FUEL'
p3249
sS'asn'
p3250
I3257
ssg11
(tRp3251
S'LATENCY'
p3252
g11
(tRp3253
S'MEAN'
p3254
F0.61434597167566041
ssS'CACHE_HIT_RATIO'
p3255
g11
(tRp3256
S'MEAN_NETWORK_HITS'
p3257
F0.094516577514904443
sS'MEAN_USER_HITS'
p3258
F0.12123382897000259
sg3254
F0.21575040648490704
ssS'OVERHEAD'
p3259
g11
(tRp3260
g3254
F4.8802944581576702
ssS'ABS'
p3261
g11
(tRp3262
S'MEAN_ABS_TIME'
p3263
F-2083969.216280947
sS'NUM_ABS'
p3264
I9936
sstp3265
a(g11
(tRp3266
S'workload'
p3267
g11
(tRp3268
S'n_contents'
p3269
I10000
sS'disconnection_rate'
p3270
F0.0025000000000000001
sS'name'
p3271
S'STATIONARY_SIT'
p3272
sS'n_warmup'
p3273
I36000
sS'rate'
p3274
I100
sS'n_measured'
p3275
I108000
sS'alpha'
p3276
F0.69999999999999996
ssS'cache_policy'
p3277
g11
(tRp3278
g3271
S'LRU'
p3279
ssS'desc'
p3280
S'strategy: SIT_WITH_SCOPED_FLOODING network_cache: 0.875'
p3281
sS'strategy'
p3282
g11
(tRp3283
S'fan_out'
p3284
I100
sg3271
S'SIT_WITH_SCOPED_FLOODING'
p3285
sS'scope'
p3286
I2
ssS'content_placement'
p3287
g11
(tRp3288
g3271
S'UNIFORM'
p3289
ssS'joint_cache_rsn_placement'
p3290
g11
(tRp3291
S'network_cache'
p3292
F0.875
sS'network_rsn'
p3293
F56
sS'rsn_cache_ratio'
p3294
I64
sg3271
S'CACHE_ALL_RSN_ALL_SIT'
p3295
ssS'warmup_strategy'
p3296
g11
(tRp3297
S'p'
F0.10000000000000001
sg3271
S'NDN'
p3298
ssS'topology'
p3299
g11
(tRp3300
S'ext_delay'
p3301
I2
sS'source_ratio'
p3302
F1
sg3271
S'ROCKET_FUEL'
p3303
sS'asn'
p3304
I3257
ssg11
(tRp3305
S'LATENCY'
p3306
g11
(tRp3307
S'MEAN'
p3308
F1.1837232931613559
ssS'CACHE_HIT_RATIO'
p3309
g11
(tRp3310
S'MEAN_NETWORK_HITS'
p3311
F0.12029014140159747
sS'MEAN_USER_HITS'
p3312
F0.20176305118869539
sg3308
F0.32205319259029286
ssS'OVERHEAD'
p3313
g11
(tRp3314
g3308
F7.2351746903482121
ssS'ABS'
p3315
g11
(tRp3316
S'MEAN_ABS_TIME'
p3317
F-357319.22733043233
sS'NUM_ABS'
p3318
I8807
sstp3319
a(g11
(tRp3320
S'workload'
p3321
g11
(tRp3322
S'n_contents'
p3323
I10000
sS'disconnection_rate'
p3324
F0.0025000000000000001
sS'name'
p3325
S'STATIONARY_SIT'
p3326
sS'n_warmup'
p3327
I36000
sS'rate'
p3328
I100
sS'n_measured'
p3329
I108000
sS'alpha'
p3330
F0.69999999999999996
ssS'cache_policy'
p3331
g11
(tRp3332
g3325
S'LRU'
p3333
ssS'desc'
p3334
S'strategy: SIT_WITH_SCOPED_FLOODING network_cache: 1.0'
p3335
sS'strategy'
p3336
g11
(tRp3337
S'fan_out'
p3338
I1
sg3325
S'SIT_WITH_SCOPED_FLOODING'
p3339
sS'scope'
p3340
I2
ssS'content_placement'
p3341
g11
(tRp3342
g3325
S'UNIFORM'
p3343
ssS'joint_cache_rsn_placement'
p3344
g11
(tRp3345
S'network_cache'
p3346
F1
sS'network_rsn'
p3347
F64
sS'rsn_cache_ratio'
p3348
I64
sg3325
S'CACHE_ALL_RSN_ALL_SIT'
p3349
ssS'warmup_strategy'
p3350
g11
(tRp3351
S'p'
F0.10000000000000001
sg3325
S'NDN'
p3352
ssS'topology'
p3353
g11
(tRp3354
S'ext_delay'
p3355
I2
sS'source_ratio'
p3356
F1
sg3325
S'ROCKET_FUEL'
p3357
sS'asn'
p3358
I3257
ssg11
(tRp3359
S'LATENCY'
p3360
g11
(tRp3361
S'MEAN'
p3362
F1.1751280175566934
ssS'CACHE_HIT_RATIO'
p3363
g11
(tRp3364
S'MEAN_NETWORK_HITS'
p3365
F0.12887651320291668
sS'MEAN_USER_HITS'
p3366
F0.18090001651839441
sg3362
F0.30977652972131109
ssS'OVERHEAD'
p3367
g11
(tRp3368
g3362
F5.5848987613693497
ssS'ABS'
p3369
g11
(tRp3370
S'MEAN_ABS_TIME'
p3371
F-102598.88862659641
sS'NUM_ABS'
p3372
I8544
sstp3373
a(g11
(tRp3374
S'workload'
p3375
g11
(tRp3376
S'n_contents'
p3377
I10000
sS'disconnection_rate'
p3378
F0.0025000000000000001
sS'name'
p3379
S'STATIONARY_SIT'
p3380
sS'n_warmup'
p3381
I36000
sS'rate'
p3382
I100
sS'n_measured'
p3383
I108000
sS'alpha'
p3384
F0.69999999999999996
ssS'cache_policy'
p3385
g11
(tRp3386
g3379
S'LRU'
p3387
ssS'desc'
p3388
S'strategy: SIT_WITH_SCOPED_FLOODING network_cache: 1.5'
p3389
sS'strategy'
p3390
g11
(tRp3391
S'fan_out'
p3392
I1
sg3379
S'SIT_WITH_SCOPED_FLOODING'
p3393
sS'scope'
p3394
I1
ssS'content_placement'
p3395
g11
(tRp3396
g3379
S'UNIFORM'
p3397
ssS'joint_cache_rsn_placement'
p3398
g11
(tRp3399
S'network_cache'
p3400
F1.5
sS'network_rsn'
p3401
F96
sS'rsn_cache_ratio'
p3402
I64
sg3379
S'CACHE_ALL_RSN_ALL_SIT'
p3403
ssS'warmup_strategy'
p3404
g11
(tRp3405
S'p'
F0.10000000000000001
sg3379
S'NDN'
p3406
ssS'topology'
p3407
g11
(tRp3408
S'ext_delay'
p3409
I2
sS'source_ratio'
p3410
F1
sg3379
S'ROCKET_FUEL'
p3411
sS'asn'
p3412
I3257
ssg11
(tRp3413
S'LATENCY'
p3414
g11
(tRp3415
S'MEAN'
p3416
F0.53988527508547857
ssS'CACHE_HIT_RATIO'
p3417
g11
(tRp3418
S'MEAN_NETWORK_HITS'
p3419
F0.091068787853099367
sS'MEAN_USER_HITS'
p3420
F0.1049243173490821
sg3416
F0.19599310520218147
ssS'OVERHEAD'
p3421
g11
(tRp3422
g3416
F3.3204296424452133
ssS'ABS'
p3423
g11
(tRp3424
S'MEAN_ABS_TIME'
p3425
F-714371.46997166448
sS'NUM_ABS'
p3426
I9009
sstp3427
a(g11
(tRp3428
S'workload'
p3429
g11
(tRp3430
S'n_contents'
p3431
I10000
sS'disconnection_rate'
p3432
F0.0025000000000000001
sS'name'
p3433
S'STATIONARY_SIT'
p3434
sS'n_warmup'
p3435
I36000
sS'rate'
p3436
I100
sS'n_measured'
p3437
I108000
sS'alpha'
p3438
F0.69999999999999996
ssS'cache_policy'
p3439
g11
(tRp3440
g3433
S'LRU'
p3441
ssS'desc'
p3442
S'strategy: SCOPED_FLOODING network_cache: 0.125'
p3443
sS'strategy'
p3444
g11
(tRp3445
S'scope'
p3446
I1
sg3433
S'SCOPED_FLOODING'
p3447
ssS'content_placement'
p3448
g11
(tRp3449
g3433
S'UNIFORM'
p3450
ssS'joint_cache_rsn_placement'
p3451
g11
(tRp3452
S'network_cache'
p3453
F0.125
sS'network_rsn'
p3454
F8
sS'rsn_cache_ratio'
p3455
I64
sg3433
S'CACHE_ALL_RSN_ALL_SIT'
p3456
ssS'warmup_strategy'
p3457
g11
(tRp3458
S'p'
F0.10000000000000001
sg3433
S'NDN'
p3459
ssS'topology'
p3460
g11
(tRp3461
S'ext_delay'
p3462
I2
sS'source_ratio'
p3463
F1
sg3433
S'ROCKET_FUEL'
p3464
sS'asn'
p3465
I3257
ssg11
(tRp3466
S'LATENCY'
p3467
g11
(tRp3468
S'MEAN'
p3469
F0.11181828467979181
ssS'CACHE_HIT_RATIO'
p3470
g11
(tRp3471
S'MEAN_NETWORK_HITS'
p3472
F0.011517500188579619
sS'MEAN_USER_HITS'
p3473
F0.045867277664630009
sg3469
F0.057384777853209626
ssS'OVERHEAD'
p3474
g11
(tRp3475
g3469
F2.0101873151495235
ssS'ABS'
p3476
g11
(tRp3477
S'MEAN_ABS_TIME'
p3478
F9323.4851879329672
sS'NUM_ABS'
p3479
I8489
sstp3480
a(g11
(tRp3481
S'workload'
p3482
g11
(tRp3483
S'n_contents'
p3484
I10000
sS'disconnection_rate'
p3485
F0.0025000000000000001
sS'name'
p3486
S'STATIONARY_SIT'
p3487
sS'n_warmup'
p3488
I36000
sS'rate'
p3489
I100
sS'n_measured'
p3490
I108000
sS'alpha'
p3491
F0.69999999999999996
ssS'cache_policy'
p3492
g11
(tRp3493
g3486
S'LRU'
p3494
ssS'desc'
p3495
S'strategy: SIT_WITH_SCOPED_FLOODING network_cache: 1.5'
p3496
sS'strategy'
p3497
g11
(tRp3498
S'fan_out'
p3499
I100
sg3486
S'SIT_WITH_SCOPED_FLOODING'
p3500
sS'scope'
p3501
I1
ssS'content_placement'
p3502
g11
(tRp3503
g3486
S'UNIFORM'
p3504
ssS'joint_cache_rsn_placement'
p3505
g11
(tRp3506
S'network_cache'
p3507
F1.5
sS'network_rsn'
p3508
F96
sS'rsn_cache_ratio'
p3509
I64
sg3486
S'CACHE_ALL_RSN_ALL_SIT'
p3510
ssS'warmup_strategy'
p3511
g11
(tRp3512
S'p'
F0.10000000000000001
sg3486
S'NDN'
p3513
ssS'topology'
p3514
g11
(tRp3515
S'ext_delay'
p3516
I2
sS'source_ratio'
p3517
F1
sg3486
S'ROCKET_FUEL'
p3518
sS'asn'
p3519
I3257
ssg11
(tRp3520
S'LATENCY'
p3521
g11
(tRp3522
S'MEAN'
p3523
F0.59717566976772607
ssS'CACHE_HIT_RATIO'
p3524
g11
(tRp3525
S'MEAN_NETWORK_HITS'
p3526
F0.099975084969655376
sS'MEAN_USER_HITS'
p3527
F0.11540830093595897
sg3523
F0.21538338590561434
ssS'OVERHEAD'
p3528
g11
(tRp3529
g3523
F4.7670515310910799
ssS'ABS'
p3530
g11
(tRp3531
S'MEAN_ABS_TIME'
p3532
F-1913422.0776346268
sS'NUM_ABS'
p3533
I9823
sstp3534
a(g11
(tRp3535
S'workload'
p3536
g11
(tRp3537
S'n_contents'
p3538
I10000
sS'disconnection_rate'
p3539
F0.0025000000000000001
sS'name'
p3540
S'STATIONARY_SIT'
p3541
sS'n_warmup'
p3542
I36000
sS'rate'
p3543
I100
sS'n_measured'
p3544
I108000
sS'alpha'
p3545
F0.69999999999999996
ssS'cache_policy'
p3546
g11
(tRp3547
g3540
S'LRU'
p3548
ssS'desc'
p3549
S'strategy: SIT_WITH_SCOPED_FLOODING network_cache: 1.25'
p3550
sS'strategy'
p3551
g11
(tRp3552
S'fan_out'
p3553
I1
sg3540
S'SIT_WITH_SCOPED_FLOODING'
p3554
sS'scope'
p3555
I2
ssS'content_placement'
p3556
g11
(tRp3557
g3540
S'UNIFORM'
p3558
ssS'joint_cache_rsn_placement'
p3559
g11
(tRp3560
S'network_cache'
p3561
F1.25
sS'network_rsn'
p3562
F80
sS'rsn_cache_ratio'
p3563
I64
sg3540
S'CACHE_ALL_RSN_ALL_SIT'
p3564
ssS'warmup_strategy'
p3565
g11
(tRp3566
S'p'
F0.10000000000000001
sg3540
S'NDN'
p3567
ssS'topology'
p3568
g11
(tRp3569
S'ext_delay'
p3570
I2
sS'source_ratio'
p3571
F1
sg3540
S'ROCKET_FUEL'
p3572
sS'asn'
p3573
I3257
ssg11
(tRp3574
S'LATENCY'
p3575
g11
(tRp3576
S'MEAN'
p3577
F1.1789387316272688
ssS'CACHE_HIT_RATIO'
p3578
g11
(tRp3579
S'MEAN_NETWORK_HITS'
p3580
F0.14348767134914908
sS'MEAN_USER_HITS'
p3581
F0.17438828294831352
sg3577
F0.31787595429746257
ssS'OVERHEAD'
p3582
g11
(tRp3583
g3577
F5.5160582100844078
ssS'ABS'
p3584
g11
(tRp3585
S'MEAN_ABS_TIME'
p3586
F310732.65601187432
sS'NUM_ABS'
p3587
I8302
sstp3588
a(g11
(tRp3589
S'workload'
p3590
g11
(tRp3591
S'n_contents'
p3592
I10000
sS'disconnection_rate'
p3593
F0.0025000000000000001
sS'name'
p3594
S'STATIONARY_SIT'
p3595
sS'n_warmup'
p3596
I36000
sS'rate'
p3597
I100
sS'n_measured'
p3598
I108000
sS'alpha'
p3599
F0.69999999999999996
ssS'cache_policy'
p3600
g11
(tRp3601
g3594
S'LRU'
p3602
ssS'desc'
p3603
S'strategy: SIT_WITH_SCOPED_FLOODING network_cache: 1.0'
p3604
sS'strategy'
p3605
g11
(tRp3606
S'fan_out'
p3607
I100
sg3594
S'SIT_WITH_SCOPED_FLOODING'
p3608
sS'scope'
p3609
I2
ssS'content_placement'
p3610
g11
(tRp3611
g3594
S'UNIFORM'
p3612
ssS'joint_cache_rsn_placement'
p3613
g11
(tRp3614
S'network_cache'
p3615
F1
sS'network_rsn'
p3616
F64
sS'rsn_cache_ratio'
p3617
I64
sg3594
S'CACHE_ALL_RSN_ALL_SIT'
p3618
ssS'warmup_strategy'
p3619
g11
(tRp3620
S'p'
F0.10000000000000001
sg3594
S'NDN'
p3621
ssS'topology'
p3622
g11
(tRp3623
S'ext_delay'
p3624
I2
sS'source_ratio'
p3625
F1
sg3594
S'ROCKET_FUEL'
p3626
sS'asn'
p3627
I3257
ssg11
(tRp3628
S'LATENCY'
p3629
g11
(tRp3630
S'MEAN'
p3631
F1.1853739408080559
ssS'CACHE_HIT_RATIO'
p3632
g11
(tRp3633
S'MEAN_NETWORK_HITS'
p3634
F0.12848222635770223
sS'MEAN_USER_HITS'
p3635
F0.19699317016030757
sg3631
F0.32547539651800983
ssS'OVERHEAD'
p3636
g11
(tRp3637
g3631
F7.1539711793815028
ssS'ABS'
p3638
g11
(tRp3639
S'MEAN_ABS_TIME'
p3640
F-137028.44111003529
sS'NUM_ABS'
p3641
I8565
sstp3642
a(g11
(tRp3643
S'workload'
p3644
g11
(tRp3645
S'n_contents'
p3646
I10000
sS'disconnection_rate'
p3647
F0.0025000000000000001
sS'name'
p3648
S'STATIONARY_SIT'
p3649
sS'n_warmup'
p3650
I36000
sS'rate'
p3651
I100
sS'n_measured'
p3652
I108000
sS'alpha'
p3653
F0.69999999999999996
ssS'cache_policy'
p3654
g11
(tRp3655
g3648
S'LRU'
p3656
ssS'desc'
p3657
S'strategy: SCOPED_FLOODING network_cache: 0.125'
p3658
sS'strategy'
p3659
g11
(tRp3660
S'scope'
p3661
I2
sg3648
S'SCOPED_FLOODING'
p3662
ssS'content_placement'
p3663
g11
(tRp3664
g3648
S'UNIFORM'
p3665
ssS'joint_cache_rsn_placement'
p3666
g11
(tRp3667
S'network_cache'
p3668
F0.125
sS'network_rsn'
p3669
F8
sS'rsn_cache_ratio'
p3670
I64
sg3648
S'CACHE_ALL_RSN_ALL_SIT'
p3671
ssS'warmup_strategy'
p3672
g11
(tRp3673
S'p'
F0.10000000000000001
sg3648
S'NDN'
p3674
ssS'topology'
p3675
g11
(tRp3676
S'ext_delay'
p3677
I2
sS'source_ratio'
p3678
F1
sg3648
S'ROCKET_FUEL'
p3679
sS'asn'
p3680
I3257
ssg11
(tRp3681
S'LATENCY'
p3682
g11
(tRp3683
S'MEAN'
p3684
F0.29360879203811141
ssS'CACHE_HIT_RATIO'
p3685
g11
(tRp3686
S'MEAN_NETWORK_HITS'
p3687
F0.024857318051035329
sS'MEAN_USER_HITS'
p3688
F0.096910523088533554
sg3684
F0.12176784113956889
ssS'OVERHEAD'
p3689
g11
(tRp3690
g3684
F3.5607375271149673
ssS'ABS'
p3691
g11
(tRp3692
S'MEAN_ABS_TIME'
p3693
F-843669.42539338453
sS'NUM_ABS'
p3694
I9080
sstp3695
a(g11
(tRp3696
S'workload'
p3697
g11
(tRp3698
S'n_contents'
p3699
I10000
sS'disconnection_rate'
p3700
F0.0025000000000000001
sS'name'
p3701
S'STATIONARY_SIT'
p3702
sS'n_warmup'
p3703
I36000
sS'rate'
p3704
I100
sS'n_measured'
p3705
I108000
sS'alpha'
p3706
F0.69999999999999996
ssS'cache_policy'
p3707
g11
(tRp3708
g3701
S'LRU'
p3709
ssS'desc'
p3710
S'strategy: SCOPED_FLOODING network_cache: 0.25'
p3711
sS'strategy'
p3712
g11
(tRp3713
S'scope'
p3714
I1
sg3701
S'SCOPED_FLOODING'
p3715
ssS'content_placement'
p3716
g11
(tRp3717
g3701
S'UNIFORM'
p3718
ssS'joint_cache_rsn_placement'
p3719
g11
(tRp3720
S'network_cache'
p3721
F0.25
sS'network_rsn'
p3722
F16
sS'rsn_cache_ratio'
p3723
I64
sg3701
S'CACHE_ALL_RSN_ALL_SIT'
p3724
ssS'warmup_strategy'
p3725
g11
(tRp3726
S'p'
F0.10000000000000001
sg3701
S'NDN'
p3727
ssS'topology'
p3728
g11
(tRp3729
S'ext_delay'
p3730
I2
sS'source_ratio'
p3731
F1
sg3701
S'ROCKET_FUEL'
p3732
sS'asn'
p3733
I3257
ssg11
(tRp3734
S'LATENCY'
p3735
g11
(tRp3736
S'MEAN'
p3737
F0.12778803170272324
ssS'CACHE_HIT_RATIO'
p3738
g11
(tRp3739
S'MEAN_NETWORK_HITS'
p3740
F0.018622281595332392
sS'MEAN_USER_HITS'
p3741
F0.047676817265616518
sg3737
F0.06629909886094891
ssS'OVERHEAD'
p3742
g11
(tRp3743
g3737
F2.0351014595941614
ssS'ABS'
p3744
g11
(tRp3745
S'MEAN_ABS_TIME'
p3746
F-35174.09703360092
sS'NUM_ABS'
p3747
I8569
sstp3748
a(g11
(tRp3749
S'workload'
p3750
g11
(tRp3751
S'n_contents'
p3752
I10000
sS'disconnection_rate'
p3753
F0.0025000000000000001
sS'name'
p3754
S'STATIONARY_SIT'
p3755
sS'n_warmup'
p3756
I36000
sS'rate'
p3757
I100
sS'n_measured'
p3758
I108000
sS'alpha'
p3759
F0.69999999999999996
ssS'cache_policy'
p3760
g11
(tRp3761
g3754
S'LRU'
p3762
ssS'desc'
p3763
S'strategy: SCOPED_FLOODING network_cache: 0.375'
p3764
sS'strategy'
p3765
g11
(tRp3766
S'scope'
p3767
I1
sg3754
S'SCOPED_FLOODING'
p3768
ssS'content_placement'
p3769
g11
(tRp3770
g3754
S'UNIFORM'
p3771
ssS'joint_cache_rsn_placement'
p3772
g11
(tRp3773
S'network_cache'
p3774
F0.375
sS'network_rsn'
p3775
F24
sS'rsn_cache_ratio'
p3776
I64
sg3754
S'CACHE_ALL_RSN_ALL_SIT'
p3777
ssS'warmup_strategy'
p3778
g11
(tRp3779
S'p'
F0.10000000000000001
sg3754
S'NDN'
p3780
ssS'topology'
p3781
g11
(tRp3782
S'ext_delay'
p3783
I2
sS'source_ratio'
p3784
F1
sg3754
S'ROCKET_FUEL'
p3785
sS'asn'
p3786
I3257
ssg11
(tRp3787
S'LATENCY'
p3788
g11
(tRp3789
S'MEAN'
p3790
F0.14088553933113518
ssS'CACHE_HIT_RATIO'
p3791
g11
(tRp3792
S'MEAN_NETWORK_HITS'
p3793
F0.023330193122939238
sS'MEAN_USER_HITS'
p3794
F0.050183702308054641
sg3790
F0.073513895430993875
ssS'OVERHEAD'
p3795
g11
(tRp3796
g3790
F2.0237073108220671
ssS'ABS'
p3797
g11
(tRp3798
S'MEAN_ABS_TIME'
p3799
F-42449.26286086558
sS'NUM_ABS'
p3800
I8492
sstp3801
a(g11
(tRp3802
S'workload'
p3803
g11
(tRp3804
S'n_contents'
p3805
I10000
sS'disconnection_rate'
p3806
F0.0025000000000000001
sS'name'
p3807
S'STATIONARY_SIT'
p3808
sS'n_warmup'
p3809
I36000
sS'rate'
p3810
I100
sS'n_measured'
p3811
I108000
sS'alpha'
p3812
F0.69999999999999996
ssS'cache_policy'
p3813
g11
(tRp3814
g3807
S'LRU'
p3815
ssS'desc'
p3816
S'strategy: SCOPED_FLOODING network_cache: 0.25'
p3817
sS'strategy'
p3818
g11
(tRp3819
S'scope'
p3820
I2
sg3807
S'SCOPED_FLOODING'
p3821
ssS'content_placement'
p3822
g11
(tRp3823
g3807
S'UNIFORM'
p3824
ssS'joint_cache_rsn_placement'
p3825
g11
(tRp3826
S'network_cache'
p3827
F0.25
sS'network_rsn'
p3828
F16
sS'rsn_cache_ratio'
p3829
I64
sg3807
S'CACHE_ALL_RSN_ALL_SIT'
p3830
ssS'warmup_strategy'
p3831
g11
(tRp3832
S'p'
F0.10000000000000001
sg3807
S'NDN'
p3833
ssS'topology'
p3834
g11
(tRp3835
S'ext_delay'
p3836
I2
sS'source_ratio'
p3837
F1
sg3807
S'ROCKET_FUEL'
p3838
sS'asn'
p3839
I3257
ssg11
(tRp3840
S'LATENCY'
p3841
g11
(tRp3842
S'MEAN'
p3843
F0.31183596161004135
ssS'CACHE_HIT_RATIO'
p3844
g11
(tRp3845
S'MEAN_NETWORK_HITS'
p3846
F0.040274590917014928
sS'MEAN_USER_HITS'
p3847
F0.091536587779102258
sg3843
F0.13181117869611719
ssS'OVERHEAD'
p3848
g11
(tRp3849
g3843
F3.7640477552187588
ssS'ABS'
p3850
g11
(tRp3851
S'MEAN_ABS_TIME'
p3852
F-905771.59991557989
sS'NUM_ABS'
p3853
I9055
sstp3854
a(g11
(tRp3855
S'workload'
p3856
g11
(tRp3857
S'n_contents'
p3858
I10000
sS'disconnection_rate'
p3859
F0.0025000000000000001
sS'name'
p3860
S'STATIONARY_SIT'
p3861
sS'n_warmup'
p3862
I36000
sS'rate'
p3863
I100
sS'n_measured'
p3864
I108000
sS'alpha'
p3865
F0.69999999999999996
ssS'cache_policy'
p3866
g11
(tRp3867
g3860
S'LRU'
p3868
ssS'desc'
p3869
S'strategy: SIT_WITH_SCOPED_FLOODING network_cache: 1.25'
p3870
sS'strategy'
p3871
g11
(tRp3872
S'fan_out'
p3873
I100
sg3860
S'SIT_WITH_SCOPED_FLOODING'
p3874
sS'scope'
p3875
I2
ssS'content_placement'
p3876
g11
(tRp3877
g3860
S'UNIFORM'
p3878
ssS'joint_cache_rsn_placement'
p3879
g11
(tRp3880
S'network_cache'
p3881
F1.25
sS'network_rsn'
p3882
F80
sS'rsn_cache_ratio'
p3883
I64
sg3860
S'CACHE_ALL_RSN_ALL_SIT'
p3884
ssS'warmup_strategy'
p3885
g11
(tRp3886
S'p'
F0.10000000000000001
sg3860
S'NDN'
p3887
ssS'topology'
p3888
g11
(tRp3889
S'ext_delay'
p3890
I2
sS'source_ratio'
p3891
F1
sg3860
S'ROCKET_FUEL'
p3892
sS'asn'
p3893
I3257
ssg11
(tRp3894
S'LATENCY'
p3895
g11
(tRp3896
S'MEAN'
p3897
F1.1865945792803854
ssS'CACHE_HIT_RATIO'
p3898
g11
(tRp3899
S'MEAN_NETWORK_HITS'
p3900
F0.1442440268202852
sS'MEAN_USER_HITS'
p3901
F0.18886108225517045
sg3897
F0.33310510907545565
ssS'OVERHEAD'
p3902
g11
(tRp3903
g3897
F7.0998086327875827
ssS'ABS'
p3904
g11
(tRp3905
S'MEAN_ABS_TIME'
p3906
F412117.45381700556
sS'NUM_ABS'
p3907
I8208
sstp3908
a(g11
(tRp3909
S'workload'
p3910
g11
(tRp3911
S'n_contents'
p3912
I10000
sS'disconnection_rate'
p3913
F0.0025000000000000001
sS'name'
p3914
S'STATIONARY_SIT'
p3915
sS'n_warmup'
p3916
I36000
sS'rate'
p3917
I100
sS'n_measured'
p3918
I108000
sS'alpha'
p3919
F0.69999999999999996
ssS'cache_policy'
p3920
g11
(tRp3921
g3914
S'LRU'
p3922
ssS'desc'
p3923
S'strategy: SIT_WITH_SCOPED_FLOODING network_cache: 1.5'
p3924
sS'strategy'
p3925
g11
(tRp3926
S'fan_out'
p3927
I1
sg3914
S'SIT_WITH_SCOPED_FLOODING'
p3928
sS'scope'
p3929
I2
ssS'content_placement'
p3930
g11
(tRp3931
g3914
S'UNIFORM'
p3932
ssS'joint_cache_rsn_placement'
p3933
g11
(tRp3934
S'network_cache'
p3935
F1.5
sS'network_rsn'
p3936
F96
sS'rsn_cache_ratio'
p3937
I64
sg3914
S'CACHE_ALL_RSN_ALL_SIT'
p3938
ssS'warmup_strategy'
p3939
g11
(tRp3940
S'p'
F0.10000000000000001
sg3914
S'NDN'
p3941
ssS'topology'
p3942
g11
(tRp3943
S'ext_delay'
p3944
I2
sS'source_ratio'
p3945
F1
sg3914
S'ROCKET_FUEL'
p3946
sS'asn'
p3947
I3257
ssg11
(tRp3948
S'LATENCY'
p3949
g11
(tRp3950
S'MEAN'
p3951
F1.1588089446989838
ssS'CACHE_HIT_RATIO'
p3952
g11
(tRp3953
S'MEAN_NETWORK_HITS'
p3954
F0.15650395007259083
sS'MEAN_USER_HITS'
p3955
F0.16378188811584365
sg3951
F0.32028583818843448
ssS'OVERHEAD'
p3956
g11
(tRp3957
g3951
F5.4625007358568318
ssS'ABS'
p3958
g11
(tRp3959
S'MEAN_ABS_TIME'
p3960
F633685.17964222073
sS'NUM_ABS'
p3961
I8008
sstp3962
a(g11
(tRp3963
S'workload'
p3964
g11
(tRp3965
S'n_contents'
p3966
I10000
sS'disconnection_rate'
p3967
F0.0025000000000000001
sS'name'
p3968
S'STATIONARY_SIT'
p3969
sS'n_warmup'
p3970
I36000
sS'rate'
p3971
I100
sS'n_measured'
p3972
I108000
sS'alpha'
p3973
F0.69999999999999996
ssS'cache_policy'
p3974
g11
(tRp3975
g3968
S'LRU'
p3976
ssS'desc'
p3977
S'strategy: SCOPED_FLOODING network_cache: 0.5'
p3978
sS'strategy'
p3979
g11
(tRp3980
S'scope'
p3981
I1
sg3968
S'SCOPED_FLOODING'
p3982
ssS'content_placement'
p3983
g11
(tRp3984
g3968
S'UNIFORM'
p3985
ssS'joint_cache_rsn_placement'
p3986
g11
(tRp3987
S'network_cache'
p3988
F0.5
sS'network_rsn'
p3989
F32
sS'rsn_cache_ratio'
p3990
I64
sg3968
S'CACHE_ALL_RSN_ALL_SIT'
p3991
ssS'warmup_strategy'
p3992
g11
(tRp3993
S'p'
F0.10000000000000001
sg3968
S'NDN'
p3994
ssS'topology'
p3995
g11
(tRp3996
S'ext_delay'
p3997
I2
sS'source_ratio'
p3998
F1
sg3968
S'ROCKET_FUEL'
p3999
sS'asn'
p4000
I3257
ssg11
(tRp4001
S'LATENCY'
p4002
g11
(tRp4003
S'MEAN'
p4004
F0.1486751347480306
ssS'CACHE_HIT_RATIO'
p4005
g11
(tRp4006
S'MEAN_NETWORK_HITS'
p4007
F0.028085070295126455
sS'MEAN_USER_HITS'
p4008
F0.050144170969808902
sg4004
F0.078229241264935356
ssS'OVERHEAD'
p4009
g11
(tRp4010
g4004
F2.0314984341122622
ssS'ABS'
p4011
g11
(tRp4012
S'MEAN_ABS_TIME'
p4013
F-32427.731153549656
sS'NUM_ABS'
p4014
I8461
sstp4015
a(g11
(tRp4016
S'workload'
p4017
g11
(tRp4018
S'n_contents'
p4019
I10000
sS'disconnection_rate'
p4020
F0.0025000000000000001
sS'name'
p4021
S'STATIONARY_SIT'
p4022
sS'n_warmup'
p4023
I36000
sS'rate'
p4024
I100
sS'n_measured'
p4025
I108000
sS'alpha'
p4026
F0.69999999999999996
ssS'cache_policy'
p4027
g11
(tRp4028
g4021
S'LRU'
p4029
ssS'desc'
p4030
S'strategy: SCOPED_FLOODING network_cache: 0.375'
p4031
sS'strategy'
p4032
g11
(tRp4033
S'scope'
p4034
I2
sg4021
S'SCOPED_FLOODING'
p4035
ssS'content_placement'
p4036
g11
(tRp4037
g4021
S'UNIFORM'
p4038
ssS'joint_cache_rsn_placement'
p4039
g11
(tRp4040
S'network_cache'
p4041
F0.375
sS'network_rsn'
p4042
F24
sS'rsn_cache_ratio'
p4043
I64
sg4021
S'CACHE_ALL_RSN_ALL_SIT'
p4044
ssS'warmup_strategy'
p4045
g11
(tRp4046
S'p'
F0.10000000000000001
sg4021
S'NDN'
p4047
ssS'topology'
p4048
g11
(tRp4049
S'ext_delay'
p4050
I2
sS'source_ratio'
p4051
F1
sg4021
S'ROCKET_FUEL'
p4052
sS'asn'
p4053
I3257
ssg11
(tRp4054
S'LATENCY'
p4055
g11
(tRp4056
S'MEAN'
p4057
F0.31852535951900784
ssS'CACHE_HIT_RATIO'
p4058
g11
(tRp4059
S'MEAN_NETWORK_HITS'
p4060
F0.049715400418417925
sS'MEAN_USER_HITS'
p4061
F0.087156265902708405
sg4057
F0.13687166632112632
ssS'OVERHEAD'
p4062
g11
(tRp4063
g4057
F3.9173781327457999
ssS'ABS'
p4064
g11
(tRp4065
S'MEAN_ABS_TIME'
p4066
F-733650.08024063299
sS'NUM_ABS'
p4067
I8989
sstp4068
a(g11
(tRp4069
S'workload'
p4070
g11
(tRp4071
S'n_contents'
p4072
I10000
sS'disconnection_rate'
p4073
F0.0025000000000000001
sS'name'
p4074
S'STATIONARY_SIT'
p4075
sS'n_warmup'
p4076
I36000
sS'rate'
p4077
I100
sS'n_measured'
p4078
I108000
sS'alpha'
p4079
F0.69999999999999996
ssS'cache_policy'
p4080
g11
(tRp4081
g4074
S'LRU'
p4082
ssS'desc'
p4083
S'strategy: SIT_WITH_SCOPED_FLOODING network_cache: 1.5'
p4084
sS'strategy'
p4085
g11
(tRp4086
S'fan_out'
p4087
I100
sg4074
S'SIT_WITH_SCOPED_FLOODING'
p4088
sS'scope'
p4089
I2
ssS'content_placement'
p4090
g11
(tRp4091
g4074
S'UNIFORM'
p4092
ssS'joint_cache_rsn_placement'
p4093
g11
(tRp4094
S'network_cache'
p4095
F1.5
sS'network_rsn'
p4096
F96
sS'rsn_cache_ratio'
p4097
I64
sg4074
S'CACHE_ALL_RSN_ALL_SIT'
p4098
ssS'warmup_strategy'
p4099
g11
(tRp4100
S'p'
F0.10000000000000001
sg4074
S'NDN'
p4101
ssS'topology'
p4102
g11
(tRp4103
S'ext_delay'
p4104
I2
sS'source_ratio'
p4105
F1
sg4074
S'ROCKET_FUEL'
p4106
sS'asn'
p4107
I3257
ssg11
(tRp4108
S'LATENCY'
p4109
g11
(tRp4110
S'MEAN'
p4111
F1.1662144209841996
ssS'CACHE_HIT_RATIO'
p4112
g11
(tRp4113
S'MEAN_NETWORK_HITS'
p4114
F0.15621319615214299
sS'MEAN_USER_HITS'
p4115
F0.17762420268144002
sg4111
F0.33383739883358299
ssS'OVERHEAD'
p4116
g11
(tRp4117
g4111
F7.0506314823961054
ssS'ABS'
p4118
g11
(tRp4119
S'MEAN_ABS_TIME'
p4120
F497074.12756682484
sS'NUM_ABS'
p4121
I8120
sstp4122
a(g11
(tRp4123
S'workload'
p4124
g11
(tRp4125
S'n_contents'
p4126
I10000
sS'disconnection_rate'
p4127
F0.0025000000000000001
sS'name'
p4128
S'STATIONARY_SIT'
p4129
sS'n_warmup'
p4130
I36000
sS'rate'
p4131
I100
sS'n_measured'
p4132
I108000
sS'alpha'
p4133
F0.69999999999999996
ssS'cache_policy'
p4134
g11
(tRp4135
g4128
S'LRU'
p4136
ssS'desc'
p4137
S'strategy: SCOPED_FLOODING network_cache: 0.625'
p4138
sS'strategy'
p4139
g11
(tRp4140
S'scope'
p4141
I1
sg4128
S'SCOPED_FLOODING'
p4142
ssS'content_placement'
p4143
g11
(tRp4144
g4128
S'UNIFORM'
p4145
ssS'joint_cache_rsn_placement'
p4146
g11
(tRp4147
S'network_cache'
p4148
F0.625
sS'network_rsn'
p4149
F40
sS'rsn_cache_ratio'
p4150
I64
sg4128
S'CACHE_ALL_RSN_ALL_SIT'
p4151
ssS'warmup_strategy'
p4152
g11
(tRp4153
S'p'
F0.10000000000000001
sg4128
S'NDN'
p4154
ssS'topology'
p4155
g11
(tRp4156
S'ext_delay'
p4157
I2
sS'source_ratio'
p4158
F1
sg4128
S'ROCKET_FUEL'
p4159
sS'asn'
p4160
I3257
ssg11
(tRp4161
S'LATENCY'
p4162
g11
(tRp4163
S'MEAN'
p4164
F0.15856672546670567
ssS'CACHE_HIT_RATIO'
p4165
g11
(tRp4166
S'MEAN_NETWORK_HITS'
p4167
F0.033275476610476466
sS'MEAN_USER_HITS'
p4168
F0.050957937533605641
sg4164
F0.0842334141440821
ssS'OVERHEAD'
p4169
g11
(tRp4170
g4164
F2.0335965059633798
ssS'ABS'
p4171
g11
(tRp4172
S'MEAN_ABS_TIME'
p4173
F-35130.722494745147
sS'NUM_ABS'
p4174
I8524
sstp4175
a(g11
(tRp4176
S'workload'
p4177
g11
(tRp4178
S'n_contents'
p4179
I10000
sS'disconnection_rate'
p4180
F0.0025000000000000001
sS'name'
p4181
S'STATIONARY_SIT'
p4182
sS'n_warmup'
p4183
I36000
sS'rate'
p4184
I100
sS'n_measured'
p4185
I108000
sS'alpha'
p4186
F0.69999999999999996
ssS'cache_policy'
p4187
g11
(tRp4188
g4181
S'LRU'
p4189
ssS'desc'
p4190
S'strategy: SCOPED_FLOODING network_cache: 0.5'
p4191
sS'strategy'
p4192
g11
(tRp4193
S'scope'
p4194
I2
sg4181
S'SCOPED_FLOODING'
p4195
ssS'content_placement'
p4196
g11
(tRp4197
g4181
S'UNIFORM'
p4198
ssS'joint_cache_rsn_placement'
p4199
g11
(tRp4200
S'network_cache'
p4201
F0.5
sS'network_rsn'
p4202
F32
sS'rsn_cache_ratio'
p4203
I64
sg4181
S'CACHE_ALL_RSN_ALL_SIT'
p4204
ssS'warmup_strategy'
p4205
g11
(tRp4206
S'p'
F0.10000000000000001
sg4181
S'NDN'
p4207
ssS'topology'
p4208
g11
(tRp4209
S'ext_delay'
p4210
I2
sS'source_ratio'
p4211
F1
sg4181
S'ROCKET_FUEL'
p4212
sS'asn'
p4213
I3257
ssg11
(tRp4214
S'LATENCY'
p4215
g11
(tRp4216
S'MEAN'
p4217
F0.32688167991069117
ssS'CACHE_HIT_RATIO'
p4218
g11
(tRp4219
S'MEAN_NETWORK_HITS'
p4220
F0.058846804241228089
sS'MEAN_USER_HITS'
p4221
F0.083774146596513374
sg4217
F0.14262095083774146
ssS'OVERHEAD'
p4222
g11
(tRp4223
g4217
F3.9973908448378359
ssS'ABS'
p4224
g11
(tRp4225
S'MEAN_ABS_TIME'
p4226
F-672387.01104672614
sS'NUM_ABS'
p4227
I8954
sstp4228
a(g11
(tRp4229
S'workload'
p4230
g11
(tRp4231
S'n_contents'
p4232
I10000
sS'disconnection_rate'
p4233
F0.0025000000000000001
sS'name'
p4234
S'STATIONARY_SIT'
p4235
sS'n_warmup'
p4236
I36000
sS'rate'
p4237
I100
sS'n_measured'
p4238
I108000
sS'alpha'
p4239
F0.69999999999999996
ssS'cache_policy'
p4240
g11
(tRp4241
g4234
S'LRU'
p4242
ssS'desc'
p4243
S'strategy: SCOPED_FLOODING network_cache: 0.625'
p4244
sS'strategy'
p4245
g11
(tRp4246
S'scope'
p4247
I2
sg4234
S'SCOPED_FLOODING'
p4248
ssS'content_placement'
p4249
g11
(tRp4250
g4234
S'UNIFORM'
p4251
ssS'joint_cache_rsn_placement'
p4252
g11
(tRp4253
S'network_cache'
p4254
F0.625
sS'network_rsn'
p4255
F40
sS'rsn_cache_ratio'
p4256
I64
sg4234
S'CACHE_ALL_RSN_ALL_SIT'
p4257
ssS'warmup_strategy'
p4258
g11
(tRp4259
S'p'
F0.10000000000000001
sg4234
S'NDN'
p4260
ssS'topology'
p4261
g11
(tRp4262
S'ext_delay'
p4263
I2
sS'source_ratio'
p4264
F1
sg4234
S'ROCKET_FUEL'
p4265
sS'asn'
p4266
I3257
ssg11
(tRp4267
S'LATENCY'
p4268
g11
(tRp4269
S'MEAN'
p4270
F0.33776446711025093
ssS'CACHE_HIT_RATIO'
p4271
g11
(tRp4272
S'MEAN_NETWORK_HITS'
p4273
F0.068515405371042712
sS'MEAN_USER_HITS'
p4274
F0.080546804733449176
sg4270
F0.14906221010449189
ssS'OVERHEAD'
p4275
g11
(tRp4276
g4270
F4.0584109935239301
ssS'ABS'
p4277
g11
(tRp4278
S'MEAN_ABS_TIME'
p4279
F-603466.09857684874
sS'NUM_ABS'
p4280
I8869
sstp4281
a(g11
(tRp4282
S'workload'
p4283
g11
(tRp4284
S'n_contents'
p4285
I10000
sS'disconnection_rate'
p4286
F0.0025000000000000001
sS'name'
p4287
S'STATIONARY_SIT'
p4288
sS'n_warmup'
p4289
I36000
sS'rate'
p4290
I100
sS'n_measured'
p4291
I108000
sS'alpha'
p4292
F0.69999999999999996
ssS'cache_policy'
p4293
g11
(tRp4294
g4287
S'LRU'
p4295
ssS'desc'
p4296
S'strategy: SCOPED_FLOODING network_cache: 0.75'
p4297
sS'strategy'
p4298
g11
(tRp4299
S'scope'
p4300
I1
sg4287
S'SCOPED_FLOODING'
p4301
ssS'content_placement'
p4302
g11
(tRp4303
g4287
S'UNIFORM'
p4304
ssS'joint_cache_rsn_placement'
p4305
g11
(tRp4306
S'network_cache'
p4307
F0.75
sS'network_rsn'
p4308
F48
sS'rsn_cache_ratio'
p4309
I64
sg4287
S'CACHE_ALL_RSN_ALL_SIT'
p4310
ssS'warmup_strategy'
p4311
g11
(tRp4312
S'p'
F0.10000000000000001
sg4287
S'NDN'
p4313
ssS'topology'
p4314
g11
(tRp4315
S'ext_delay'
p4316
I2
sS'source_ratio'
p4317
F1
sg4287
S'ROCKET_FUEL'
p4318
sS'asn'
p4319
I3257
ssg11
(tRp4320
S'LATENCY'
p4321
g11
(tRp4322
S'MEAN'
p4323
F0.16519250413063638
ssS'CACHE_HIT_RATIO'
p4324
g11
(tRp4325
S'MEAN_NETWORK_HITS'
p4326
F0.037229861088228511
sS'MEAN_USER_HITS'
p4327
F0.050843308839797208
sg4323
F0.088073169928025719
ssS'OVERHEAD'
p4328
g11
(tRp4329
g4323
F2.0343666488508818
ssS'ABS'
p4330
g11
(tRp4331
S'MEAN_ABS_TIME'
p4332
F-78602.080178327524
sS'NUM_ABS'
p4333
I8562
sstp4334
a(g11
(tRp4335
S'workload'
p4336
g11
(tRp4337
S'n_contents'
p4338
I10000
sS'disconnection_rate'
p4339
F0.0025000000000000001
sS'name'
p4340
S'STATIONARY_SIT'
p4341
sS'n_warmup'
p4342
I36000
sS'rate'
p4343
I100
sS'n_measured'
p4344
I108000
sS'alpha'
p4345
F0.69999999999999996
ssS'cache_policy'
p4346
g11
(tRp4347
g4340
S'LRU'
p4348
ssS'desc'
p4349
S'strategy: SCOPED_FLOODING network_cache: 0.875'
p4350
sS'strategy'
p4351
g11
(tRp4352
S'scope'
p4353
I1
sg4340
S'SCOPED_FLOODING'
p4354
ssS'content_placement'
p4355
g11
(tRp4356
g4340
S'UNIFORM'
p4357
ssS'joint_cache_rsn_placement'
p4358
g11
(tRp4359
S'network_cache'
p4360
F0.875
sS'network_rsn'
p4361
F56
sS'rsn_cache_ratio'
p4362
I64
sg4340
S'CACHE_ALL_RSN_ALL_SIT'
p4363
ssS'warmup_strategy'
p4364
g11
(tRp4365
S'p'
F0.10000000000000001
sg4340
S'NDN'
p4366
ssS'topology'
p4367
g11
(tRp4368
S'ext_delay'
p4369
I2
sS'source_ratio'
p4370
F1
sg4340
S'ROCKET_FUEL'
p4371
sS'asn'
p4372
I3257
ssg11
(tRp4373
S'LATENCY'
p4374
g11
(tRp4375
S'MEAN'
p4376
F0.17270248762778345
ssS'CACHE_HIT_RATIO'
p4377
g11
(tRp4378
S'MEAN_NETWORK_HITS'
p4379
F0.039873617395972144
sS'MEAN_USER_HITS'
p4380
F0.052116343568566328
sg4376
F0.091989960964538472
ssS'OVERHEAD'
p4381
g11
(tRp4382
g4376
F2.0435094185094185
ssS'ABS'
p4383
g11
(tRp4384
S'MEAN_ABS_TIME'
p4385
F-95646.227238547406
sS'NUM_ABS'
p4386
I8550
sstp4387
a(g11
(tRp4388
S'workload'
p4389
g11
(tRp4390
S'n_contents'
p4391
I10000
sS'disconnection_rate'
p4392
F0.0025000000000000001
sS'name'
p4393
S'STATIONARY_SIT'
p4394
sS'n_warmup'
p4395
I36000
sS'rate'
p4396
I100
sS'n_measured'
p4397
I108000
sS'alpha'
p4398
F0.69999999999999996
ssS'cache_policy'
p4399
g11
(tRp4400
g4393
S'LRU'
p4401
ssS'desc'
p4402
S'strategy: SCOPED_FLOODING network_cache: 0.75'
p4403
sS'strategy'
p4404
g11
(tRp4405
S'scope'
p4406
I2
sg4393
S'SCOPED_FLOODING'
p4407
ssS'content_placement'
p4408
g11
(tRp4409
g4393
S'UNIFORM'
p4410
ssS'joint_cache_rsn_placement'
p4411
g11
(tRp4412
S'network_cache'
p4413
F0.75
sS'network_rsn'
p4414
F48
sS'rsn_cache_ratio'
p4415
I64
sg4393
S'CACHE_ALL_RSN_ALL_SIT'
p4416
ssS'warmup_strategy'
p4417
g11
(tRp4418
S'p'
F0.10000000000000001
sg4393
S'NDN'
p4419
ssS'topology'
p4420
g11
(tRp4421
S'ext_delay'
p4422
I2
sS'source_ratio'
p4423
F1
sg4393
S'ROCKET_FUEL'
p4424
sS'asn'
p4425
I3257
ssg11
(tRp4426
S'LATENCY'
p4427
g11
(tRp4428
S'MEAN'
p4429
F0.3459923547472506
ssS'CACHE_HIT_RATIO'
p4430
g11
(tRp4431
S'MEAN_NETWORK_HITS'
p4432
F0.075582680164189564
sS'MEAN_USER_HITS'
p4433
F0.079193722053215843
sg4429
F0.15477640221740541
ssS'OVERHEAD'
p4434
g11
(tRp4435
g4429
F4.0922899325596935
ssS'ABS'
p4436
g11
(tRp4437
S'MEAN_ABS_TIME'
p4438
F-614156.9772495823
sS'NUM_ABS'
p4439
I8928
sstp4440
a(g11
(tRp4441
S'workload'
p4442
g11
(tRp4443
S'n_contents'
p4444
I10000
sS'disconnection_rate'
p4445
F0.0025000000000000001
sS'name'
p4446
S'STATIONARY_SIT'
p4447
sS'n_warmup'
p4448
I36000
sS'rate'
p4449
I100
sS'n_measured'
p4450
I108000
sS'alpha'
p4451
F0.69999999999999996
ssS'cache_policy'
p4452
g11
(tRp4453
g4446
S'LRU'
p4454
ssS'desc'
p4455
S'strategy: SCOPED_FLOODING network_cache: 0.875'
p4456
sS'strategy'
p4457
g11
(tRp4458
S'scope'
p4459
I2
sg4446
S'SCOPED_FLOODING'
p4460
ssS'content_placement'
p4461
g11
(tRp4462
g4446
S'UNIFORM'
p4463
ssS'joint_cache_rsn_placement'
p4464
g11
(tRp4465
S'network_cache'
p4466
F0.875
sS'network_rsn'
p4467
F56
sS'rsn_cache_ratio'
p4468
I64
sg4446
S'CACHE_ALL_RSN_ALL_SIT'
p4469
ssS'warmup_strategy'
p4470
g11
(tRp4471
S'p'
F0.10000000000000001
sg4446
S'NDN'
p4472
ssS'topology'
p4473
g11
(tRp4474
S'ext_delay'
p4475
I2
sS'source_ratio'
p4476
F1
sg4446
S'ROCKET_FUEL'
p4477
sS'asn'
p4478
I3257
ssg11
(tRp4479
S'LATENCY'
p4480
g11
(tRp4481
S'MEAN'
p4482
F0.3553852454771847
ssS'CACHE_HIT_RATIO'
p4483
g11
(tRp4484
S'MEAN_NETWORK_HITS'
p4485
F0.082086214769587093
sS'MEAN_USER_HITS'
p4486
F0.0771479547883233
sg4482
F0.15923416955791039
ssS'OVERHEAD'
p4487
g11
(tRp4488
g4482
F4.0849371766444937
ssS'ABS'
p4489
g11
(tRp4490
S'MEAN_ABS_TIME'
p4491
F-603606.90305909445
sS'NUM_ABS'
p4492
I8879
sstp4493
a(g11
(tRp4494
S'workload'
p4495
g11
(tRp4496
S'n_contents'
p4497
I10000
sS'disconnection_rate'
p4498
F0.0025000000000000001
sS'name'
p4499
S'STATIONARY_SIT'
p4500
sS'n_warmup'
p4501
I36000
sS'rate'
p4502
I100
sS'n_measured'
p4503
I108000
sS'alpha'
p4504
F0.69999999999999996
ssS'cache_policy'
p4505
g11
(tRp4506
g4499
S'LRU'
p4507
ssS'desc'
p4508
S'strategy: SCOPED_FLOODING network_cache: 1.0'
p4509
sS'strategy'
p4510
g11
(tRp4511
S'scope'
p4512
I1
sg4499
S'SCOPED_FLOODING'
p4513
ssS'content_placement'
p4514
g11
(tRp4515
g4499
S'UNIFORM'
p4516
ssS'joint_cache_rsn_placement'
p4517
g11
(tRp4518
S'network_cache'
p4519
F1
sS'network_rsn'
p4520
F64
sS'rsn_cache_ratio'
p4521
I64
sg4499
S'CACHE_ALL_RSN_ALL_SIT'
p4522
ssS'warmup_strategy'
p4523
g11
(tRp4524
S'p'
F0.10000000000000001
sg4499
S'NDN'
p4525
ssS'topology'
p4526
g11
(tRp4527
S'ext_delay'
p4528
I2
sS'source_ratio'
p4529
F1
sg4499
S'ROCKET_FUEL'
p4530
sS'asn'
p4531
I3257
ssg11
(tRp4532
S'LATENCY'
p4533
g11
(tRp4534
S'MEAN'
p4535
F0.17875953333836744
ssS'CACHE_HIT_RATIO'
p4536
g11
(tRp4537
S'MEAN_NETWORK_HITS'
p4538
F0.043631541191572906
sS'MEAN_USER_HITS'
p4539
F0.052277618364418937
sg4535
F0.095909159555991844
ssS'OVERHEAD'
p4540
g11
(tRp4541
g4535
F2.0314929632910146
ssS'ABS'
p4542
g11
(tRp4543
S'MEAN_ABS_TIME'
p4544
F-30881.539410489651
sS'NUM_ABS'
p4545
I8539
sstp4546
a(g11
(tRp4547
S'workload'
p4548
g11
(tRp4549
S'n_contents'
p4550
I10000
sS'disconnection_rate'
p4551
F0.0025000000000000001
sS'name'
p4552
S'STATIONARY_SIT'
p4553
sS'n_warmup'
p4554
I36000
sS'rate'
p4555
I100
sS'n_measured'
p4556
I108000
sS'alpha'
p4557
F0.69999999999999996
ssS'cache_policy'
p4558
g11
(tRp4559
g4552
S'LRU'
p4560
ssS'desc'
p4561
S'strategy: SCOPED_FLOODING network_cache: 1.0'
p4562
sS'strategy'
p4563
g11
(tRp4564
S'scope'
p4565
I2
sg4552
S'SCOPED_FLOODING'
p4566
ssS'content_placement'
p4567
g11
(tRp4568
g4552
S'UNIFORM'
p4569
ssS'joint_cache_rsn_placement'
p4570
g11
(tRp4571
S'network_cache'
p4572
F1
sS'network_rsn'
p4573
F64
sS'rsn_cache_ratio'
p4574
I64
sg4552
S'CACHE_ALL_RSN_ALL_SIT'
p4575
ssS'warmup_strategy'
p4576
g11
(tRp4577
S'p'
F0.10000000000000001
sg4552
S'NDN'
p4578
ssS'topology'
p4579
g11
(tRp4580
S'ext_delay'
p4581
I2
sS'source_ratio'
p4582
F1
sg4552
S'ROCKET_FUEL'
p4583
sS'asn'
p4584
I3257
ssg11
(tRp4585
S'LATENCY'
p4586
g11
(tRp4587
S'MEAN'
p4588
F0.36185322803200481
ssS'CACHE_HIT_RATIO'
p4589
g11
(tRp4590
S'MEAN_NETWORK_HITS'
p4591
F0.086953655171114655
sS'MEAN_USER_HITS'
p4592
F0.07707812360190823
sg4588
F0.16403177877302288
ssS'OVERHEAD'
p4593
g11
(tRp4594
g4588
F4.1226206540151011
ssS'ABS'
p4595
g11
(tRp4596
S'MEAN_ABS_TIME'
p4597
F-438244.43027621595
sS'NUM_ABS'
p4598
I8786
sstp4599
a(g11
(tRp4600
S'workload'
p4601
g11
(tRp4602
S'n_contents'
p4603
I10000
sS'disconnection_rate'
p4604
F0.0025000000000000001
sS'name'
p4605
S'STATIONARY_SIT'
p4606
sS'n_warmup'
p4607
I36000
sS'rate'
p4608
I100
sS'n_measured'
p4609
I108000
sS'alpha'
p4610
F0.69999999999999996
ssS'cache_policy'
p4611
g11
(tRp4612
g4605
S'LRU'
p4613
ssS'desc'
p4614
S'strategy: SCOPED_FLOODING network_cache: 1.25'
p4615
sS'strategy'
p4616
g11
(tRp4617
S'scope'
p4618
I1
sg4605
S'SCOPED_FLOODING'
p4619
ssS'content_placement'
p4620
g11
(tRp4621
g4605
S'UNIFORM'
p4622
ssS'joint_cache_rsn_placement'
p4623
g11
(tRp4624
S'network_cache'
p4625
F1.25
sS'network_rsn'
p4626
F80
sS'rsn_cache_ratio'
p4627
I64
sg4605
S'CACHE_ALL_RSN_ALL_SIT'
p4628
ssS'warmup_strategy'
p4629
g11
(tRp4630
S'p'
F0.10000000000000001
sg4605
S'NDN'
p4631
ssS'topology'
p4632
g11
(tRp4633
S'ext_delay'
p4634
I2
sS'source_ratio'
p4635
F1
sg4605
S'ROCKET_FUEL'
p4636
sS'asn'
p4637
I3257
ssg11
(tRp4638
S'LATENCY'
p4639
g11
(tRp4640
S'MEAN'
p4641
F0.18936110196981806
ssS'CACHE_HIT_RATIO'
p4642
g11
(tRp4643
S'MEAN_NETWORK_HITS'
p4644
F0.0507921583376428
sS'MEAN_USER_HITS'
p4645
F0.051544356165671573
sg4641
F0.10233651450331437
ssS'OVERHEAD'
p4646
g11
(tRp4647
g4641
F2.0418963616317529
ssS'ABS'
p4648
g11
(tRp4649
S'MEAN_ABS_TIME'
p4650
F-42620.904572126121
sS'NUM_ABS'
p4651
I8513
sstp4652
a(g11
(tRp4653
S'workload'
p4654
g11
(tRp4655
S'n_contents'
p4656
I10000
sS'disconnection_rate'
p4657
F0.0025000000000000001
sS'name'
p4658
S'STATIONARY_SIT'
p4659
sS'n_warmup'
p4660
I36000
sS'rate'
p4661
I100
sS'n_measured'
p4662
I108000
sS'alpha'
p4663
F0.69999999999999996
ssS'cache_policy'
p4664
g11
(tRp4665
g4658
S'LRU'
p4666
ssS'desc'
p4667
S'strategy: SCOPED_FLOODING network_cache: 1.25'
p4668
sS'strategy'
p4669
g11
(tRp4670
S'scope'
p4671
I2
sg4658
S'SCOPED_FLOODING'
p4672
ssS'content_placement'
p4673
g11
(tRp4674
g4658
S'UNIFORM'
p4675
ssS'joint_cache_rsn_placement'
p4676
g11
(tRp4677
S'network_cache'
p4678
F1.25
sS'network_rsn'
p4679
F80
sS'rsn_cache_ratio'
p4680
I64
sg4658
S'CACHE_ALL_RSN_ALL_SIT'
p4681
ssS'warmup_strategy'
p4682
g11
(tRp4683
S'p'
F0.10000000000000001
sg4658
S'NDN'
p4684
ssS'topology'
p4685
g11
(tRp4686
S'ext_delay'
p4687
I2
sS'source_ratio'
p4688
F1
sg4658
S'ROCKET_FUEL'
p4689
sS'asn'
p4690
I3257
ssg11
(tRp4691
S'LATENCY'
p4692
g11
(tRp4693
S'MEAN'
p4694
F0.37614186932593252
ssS'CACHE_HIT_RATIO'
p4695
g11
(tRp4696
S'MEAN_NETWORK_HITS'
p4697
F0.097746836633896231
sS'MEAN_USER_HITS'
p4698
F0.074199162707559149
sg4694
F0.17194599934145538
ssS'OVERHEAD'
p4699
g11
(tRp4700
g4694
F4.1321606390545496
ssS'ABS'
p4701
g11
(tRp4702
S'MEAN_ABS_TIME'
p4703
F-418904.22225627268
sS'NUM_ABS'
p4704
I8759
sstp4705
a(g11
(tRp4706
S'workload'
p4707
g11
(tRp4708
S'n_contents'
p4709
I10000
sS'disconnection_rate'
p4710
F0.0025000000000000001
sS'name'
p4711
S'STATIONARY_SIT'
p4712
sS'n_warmup'
p4713
I36000
sS'rate'
p4714
I100
sS'n_measured'
p4715
I108000
sS'alpha'
p4716
F0.69999999999999996
ssS'cache_policy'
p4717
g11
(tRp4718
g4711
S'LRU'
p4719
ssS'desc'
p4720
S'strategy: SCOPED_FLOODING network_cache: 1.5'
p4721
sS'strategy'
p4722
g11
(tRp4723
S'scope'
p4724
I1
sg4711
S'SCOPED_FLOODING'
p4725
ssS'content_placement'
p4726
g11
(tRp4727
g4711
S'UNIFORM'
p4728
ssS'joint_cache_rsn_placement'
p4729
g11
(tRp4730
S'network_cache'
p4731
F1.5
sS'network_rsn'
p4732
F96
sS'rsn_cache_ratio'
p4733
I64
sg4711
S'CACHE_ALL_RSN_ALL_SIT'
p4734
ssS'warmup_strategy'
p4735
g11
(tRp4736
S'p'
F0.10000000000000001
sg4711
S'NDN'
p4737
ssS'topology'
p4738
g11
(tRp4739
S'ext_delay'
p4740
I2
sS'source_ratio'
p4741
F1
sg4711
S'ROCKET_FUEL'
p4742
sS'asn'
p4743
I3257
ssg11
(tRp4744
S'LATENCY'
p4745
g11
(tRp4746
S'MEAN'
p4747
F0.1970637045977445
ssS'CACHE_HIT_RATIO'
p4748
g11
(tRp4749
S'MEAN_NETWORK_HITS'
p4750
F0.053247463508467548
sS'MEAN_USER_HITS'
p4751
F0.053176743484328444
sg4747
F0.10642420699279599
ssS'OVERHEAD'
p4752
g11
(tRp4753
g4747
F2.0393833340716787
ssS'ABS'
p4754
g11
(tRp4755
S'MEAN_ABS_TIME'
p4756
F5127.2207702719925
sS'NUM_ABS'
p4757
I8429
sstp4758
a(g11
(tRp4759
S'workload'
p4760
g11
(tRp4761
S'n_contents'
p4762
I10000
sS'disconnection_rate'
p4763
F0.0025000000000000001
sS'name'
p4764
S'STATIONARY_SIT'
p4765
sS'n_warmup'
p4766
I36000
sS'rate'
p4767
I100
sS'n_measured'
p4768
I108000
sS'alpha'
p4769
F0.69999999999999996
ssS'cache_policy'
p4770
g11
(tRp4771
g4764
S'LRU'
p4772
ssS'desc'
p4773
S'strategy: SCOPED_FLOODING network_cache: 1.5'
p4774
sS'strategy'
p4775
g11
(tRp4776
S'scope'
p4777
I2
sg4764
S'SCOPED_FLOODING'
p4778
ssS'content_placement'
p4779
g11
(tRp4780
g4764
S'UNIFORM'
p4781
ssS'joint_cache_rsn_placement'
p4782
g11
(tRp4783
S'network_cache'
p4784
F1.5
sS'network_rsn'
p4785
F96
sS'rsn_cache_ratio'
p4786
I64
sg4764
S'CACHE_ALL_RSN_ALL_SIT'
p4787
ssS'warmup_strategy'
p4788
g11
(tRp4789
S'p'
F0.10000000000000001
sg4764
S'NDN'
p4790
ssS'topology'
p4791
g11
(tRp4792
S'ext_delay'
p4793
I2
sS'source_ratio'
p4794
F1
sg4764
S'ROCKET_FUEL'
p4795
sS'asn'
p4796
I3257
ssg11
(tRp4797
S'LATENCY'
p4798
g11
(tRp4799
S'MEAN'
p4800
F0.39152876020758964
ssS'CACHE_HIT_RATIO'
p4801
g11
(tRp4802
S'MEAN_NETWORK_HITS'
p4803
F0.10724209058970906
sS'MEAN_USER_HITS'
p4804
F0.073259176234564988
sg4800
F0.18050126682427406
ssS'OVERHEAD'
p4805
g11
(tRp4806
g4800
F4.081559173450219
ssS'ABS'
p4807
g11
(tRp4808
S'MEAN_ABS_TIME'
p4809
F-196567.27824447723
sS'NUM_ABS'
p4810
I8582
sstp4811
a(g11
(tRp4812
S'workload'
p4813
g11
(tRp4814
S'n_contents'
p4815
I10000
sS'disconnection_rate'
p4816
F0.0025000000000000001
sS'name'
p4817
S'STATIONARY_SIT'
p4818
sS'n_warmup'
p4819
I36000
sS'rate'
p4820
I100
sS'n_measured'
p4821
I108000
sS'alpha'
p4822
F0.69999999999999996
ssS'cache_policy'
p4823
g11
(tRp4824
g4817
S'LRU'
p4825
ssS'desc'
p4826
S'strategy: SCOPED_FLOODING network_cache: 0.125'
p4827
sS'strategy'
p4828
g11
(tRp4829
S'scope'
p4830
I100
sg4817
S'SCOPED_FLOODING'
p4831
ssS'content_placement'
p4832
g11
(tRp4833
g4817
S'UNIFORM'
p4834
ssS'joint_cache_rsn_placement'
p4835
g11
(tRp4836
S'network_cache'
p4837
F0.125
sS'network_rsn'
p4838
F8
sS'rsn_cache_ratio'
p4839
I64
sg4817
S'CACHE_ALL_RSN_ALL_SIT'
p4840
ssS'warmup_strategy'
p4841
g11
(tRp4842
S'p'
F0.10000000000000001
sg4817
S'NDN'
p4843
ssS'topology'
p4844
g11
(tRp4845
S'ext_delay'
p4846
I2
sS'source_ratio'
p4847
F1
sg4817
S'ROCKET_FUEL'
p4848
sS'asn'
p4849
I3257
ssg11
(tRp4850
S'LATENCY'
p4851
g11
(tRp4852
S'MEAN'
p4853
F1.7251836068973969
ssS'CACHE_HIT_RATIO'
p4854
g11
(tRp4855
S'MEAN_NETWORK_HITS'
p4856
F0.013095249318839623
sS'MEAN_USER_HITS'
p4857
F0.40403416643882756
sg4853
F0.41712941575766715
ssS'OVERHEAD'
p4858
g11
(tRp4859
g4853
F32.160551028941448
ssS'ABS'
p4860
g11
(tRp4861
S'MEAN_ABS_TIME'
p4862
F6495673.2717362167
sS'NUM_ABS'
p4863
I3987
sstp4864
a(g11
(tRp4865
S'workload'
p4866
g11
(tRp4867
S'n_contents'
p4868
I10000
sS'disconnection_rate'
p4869
F0.0025000000000000001
sS'name'
p4870
S'STATIONARY_SIT'
p4871
sS'n_warmup'
p4872
I36000
sS'rate'
p4873
I100
sS'n_measured'
p4874
I108000
sS'alpha'
p4875
F0.69999999999999996
ssS'cache_policy'
p4876
g11
(tRp4877
g4870
S'LRU'
p4878
ssS'desc'
p4879
S'strategy: SCOPED_FLOODING network_cache: 0.625'
p4880
sS'strategy'
p4881
g11
(tRp4882
S'scope'
p4883
I100
sg4870
S'SCOPED_FLOODING'
p4884
ssS'content_placement'
p4885
g11
(tRp4886
g4870
S'UNIFORM'
p4887
ssS'joint_cache_rsn_placement'
p4888
g11
(tRp4889
S'network_cache'
p4890
F0.625
sS'network_rsn'
p4891
F40
sS'rsn_cache_ratio'
p4892
I64
sg4870
S'CACHE_ALL_RSN_ALL_SIT'
p4893
ssS'warmup_strategy'
p4894
g11
(tRp4895
S'p'
F0.10000000000000001
sg4870
S'NDN'
p4896
ssS'topology'
p4897
g11
(tRp4898
S'ext_delay'
p4899
I2
sS'source_ratio'
p4900
F1
sg4870
S'ROCKET_FUEL'
p4901
sS'asn'
p4902
I3257
ssg11
(tRp4903
S'LATENCY'
p4904
g11
(tRp4905
S'MEAN'
p4906
F1.681610970877444
ssS'CACHE_HIT_RATIO'
p4907
g11
(tRp4908
S'MEAN_NETWORK_HITS'
p4909
F0.059978148664431304
sS'MEAN_USER_HITS'
p4910
F0.35851731153223071
sg4906
F0.41849546019666201
ssS'OVERHEAD'
p4911
g11
(tRp4912
g4906
F28.438924210881673
ssS'ABS'
p4913
g11
(tRp4914
S'MEAN_ABS_TIME'
p4915
F6574239.9383426839
sS'NUM_ABS'
p4916
I3941
sstp4917
a(g11
(tRp4918
S'workload'
p4919
g11
(tRp4920
S'n_contents'
p4921
I10000
sS'disconnection_rate'
p4922
F0.0025000000000000001
sS'name'
p4923
S'STATIONARY_SIT'
p4924
sS'n_warmup'
p4925
I36000
sS'rate'
p4926
I100
sS'n_measured'
p4927
I108000
sS'alpha'
p4928
F0.69999999999999996
ssS'cache_policy'
p4929
g11
(tRp4930
g4923
S'LRU'
p4931
ssS'desc'
p4932
S'strategy: SCOPED_FLOODING network_cache: 0.375'
p4933
sS'strategy'
p4934
g11
(tRp4935
S'scope'
p4936
I100
sg4923
S'SCOPED_FLOODING'
p4937
ssS'content_placement'
p4938
g11
(tRp4939
g4923
S'UNIFORM'
p4940
ssS'joint_cache_rsn_placement'
p4941
g11
(tRp4942
S'network_cache'
p4943
F0.375
sS'network_rsn'
p4944
F24
sS'rsn_cache_ratio'
p4945
I64
sg4923
S'CACHE_ALL_RSN_ALL_SIT'
p4946
ssS'warmup_strategy'
p4947
g11
(tRp4948
S'p'
F0.10000000000000001
sg4923
S'NDN'
p4949
ssS'topology'
p4950
g11
(tRp4951
S'ext_delay'
p4952
I2
sS'source_ratio'
p4953
F1
sg4923
S'ROCKET_FUEL'
p4954
sS'asn'
p4955
I3257
ssg11
(tRp4956
S'LATENCY'
p4957
g11
(tRp4958
S'MEAN'
p4959
F1.693907504716027
ssS'CACHE_HIT_RATIO'
p4960
g11
(tRp4961
S'MEAN_NETWORK_HITS'
p4962
F0.035710085476518653
sS'MEAN_USER_HITS'
p4963
F0.37979893965837619
sg4959
F0.41550902513489485
ssS'OVERHEAD'
p4964
g11
(tRp4965
g4959
F29.974707334193781
ssS'ABS'
p4966
g11
(tRp4967
S'MEAN_ABS_TIME'
p4968
F6536857.31114625
sS'NUM_ABS'
p4969
I3958
sstp4970
a(g11
(tRp4971
S'workload'
p4972
g11
(tRp4973
S'n_contents'
p4974
I10000
sS'disconnection_rate'
p4975
F0.0025000000000000001
sS'name'
p4976
S'STATIONARY_SIT'
p4977
sS'n_warmup'
p4978
I36000
sS'rate'
p4979
I100
sS'n_measured'
p4980
I108000
sS'alpha'
p4981
F0.69999999999999996
ssS'cache_policy'
p4982
g11
(tRp4983
g4976
S'LRU'
p4984
ssS'desc'
p4985
S'strategy: SCOPED_FLOODING network_cache: 0.25'
p4986
sS'strategy'
p4987
g11
(tRp4988
S'scope'
p4989
I100
sg4976
S'SCOPED_FLOODING'
p4990
ssS'content_placement'
p4991
g11
(tRp4992
g4976
S'UNIFORM'
p4993
ssS'joint_cache_rsn_placement'
p4994
g11
(tRp4995
S'network_cache'
p4996
F0.25
sS'network_rsn'
p4997
F16
sS'rsn_cache_ratio'
p4998
I64
sg4976
S'CACHE_ALL_RSN_ALL_SIT'
p4999
ssS'warmup_strategy'
p5000
g11
(tRp5001
S'p'
F0.10000000000000001
sg4976
S'NDN'
p5002
ssS'topology'
p5003
g11
(tRp5004
S'ext_delay'
p5005
I2
sS'source_ratio'
p5006
F1
sg4976
S'ROCKET_FUEL'
p5007
sS'asn'
p5008
I3257
ssg11
(tRp5009
S'LATENCY'
p5010
g11
(tRp5011
S'MEAN'
p5012
F1.713830243148927
ssS'CACHE_HIT_RATIO'
p5013
g11
(tRp5014
S'MEAN_NETWORK_HITS'
p5015
F0.025967909804604901
sS'MEAN_USER_HITS'
p5016
F0.39067717188081325
sg5012
F0.41664508168541814
ssS'OVERHEAD'
p5017
g11
(tRp5018
g5012
F30.989148864021701
ssS'ABS'
p5019
g11
(tRp5020
S'MEAN_ABS_TIME'
p5021
F6485037.025350037
sS'NUM_ABS'
p5022
I4009
sstp5023
a(g11
(tRp5024
S'workload'
p5025
g11
(tRp5026
S'n_contents'
p5027
I10000
sS'disconnection_rate'
p5028
F0.0025000000000000001
sS'name'
p5029
S'STATIONARY_SIT'
p5030
sS'n_warmup'
p5031
I36000
sS'rate'
p5032
I100
sS'n_measured'
p5033
I108000
sS'alpha'
p5034
F0.69999999999999996
ssS'cache_policy'
p5035
g11
(tRp5036
g5029
S'LRU'
p5037
ssS'desc'
p5038
S'strategy: SCOPED_FLOODING network_cache: 0.5'
p5039
sS'strategy'
p5040
g11
(tRp5041
S'scope'
p5042
I100
sg5029
S'SCOPED_FLOODING'
p5043
ssS'content_placement'
p5044
g11
(tRp5045
g5029
S'UNIFORM'
p5046
ssS'joint_cache_rsn_placement'
p5047
g11
(tRp5048
S'network_cache'
p5049
F0.5
sS'network_rsn'
p5050
F32
sS'rsn_cache_ratio'
p5051
I64
sg5029
S'CACHE_ALL_RSN_ALL_SIT'
p5052
ssS'warmup_strategy'
p5053
g11
(tRp5054
S'p'
F0.10000000000000001
sg5029
S'NDN'
p5055
ssS'topology'
p5056
g11
(tRp5057
S'ext_delay'
p5058
I2
sS'source_ratio'
p5059
F1
sg5029
S'ROCKET_FUEL'
p5060
sS'asn'
p5061
I3257
ssg11
(tRp5062
S'LATENCY'
p5063
g11
(tRp5064
S'MEAN'
p5065
F1.6889925768822907
ssS'CACHE_HIT_RATIO'
p5066
g11
(tRp5067
S'MEAN_NETWORK_HITS'
p5068
F0.047644632968068812
sS'MEAN_USER_HITS'
p5069
F0.3694308943089431
sg5065
F0.41707552727701191
ssS'OVERHEAD'
p5070
g11
(tRp5071
g5065
F29.206264902308657
ssS'ABS'
p5072
g11
(tRp5073
S'MEAN_ABS_TIME'
p5074
F6517378.1246092496
sS'NUM_ABS'
p5075
I3977
sstp5076
a(g11
(tRp5077
S'workload'
p5078
g11
(tRp5079
S'n_contents'
p5080
I10000
sS'disconnection_rate'
p5081
F0.0025000000000000001
sS'name'
p5082
S'STATIONARY_SIT'
p5083
sS'n_warmup'
p5084
I36000
sS'rate'
p5085
I100
sS'n_measured'
p5086
I108000
sS'alpha'
p5087
F0.69999999999999996
ssS'cache_policy'
p5088
g11
(tRp5089
g5082
S'LRU'
p5090
ssS'desc'
p5091
S'strategy: SCOPED_FLOODING network_cache: 0.75'
p5092
sS'strategy'
p5093
g11
(tRp5094
S'scope'
p5095
I100
sg5082
S'SCOPED_FLOODING'
p5096
ssS'content_placement'
p5097
g11
(tRp5098
g5082
S'UNIFORM'
p5099
ssS'joint_cache_rsn_placement'
p5100
g11
(tRp5101
S'network_cache'
p5102
F0.75
sS'network_rsn'
p5103
F48
sS'rsn_cache_ratio'
p5104
I64
sg5082
S'CACHE_ALL_RSN_ALL_SIT'
p5105
ssS'warmup_strategy'
p5106
g11
(tRp5107
S'p'
F0.10000000000000001
sg5082
S'NDN'
p5108
ssS'topology'
p5109
g11
(tRp5110
S'ext_delay'
p5111
I2
sS'source_ratio'
p5112
F1
sg5082
S'ROCKET_FUEL'
p5113
sS'asn'
p5114
I3257
ssg11
(tRp5115
S'LATENCY'
p5116
g11
(tRp5117
S'MEAN'
p5118
F1.6477411333656713
ssS'CACHE_HIT_RATIO'
p5119
g11
(tRp5120
S'MEAN_NETWORK_HITS'
p5121
F0.07038207411663315
sS'MEAN_USER_HITS'
p5122
F0.34501580005745475
sg5118
F0.41539787417408791
ssS'OVERHEAD'
p5123
g11
(tRp5124
g5118
F27.292973267124687
ssS'ABS'
p5125
g11
(tRp5126
S'MEAN_ABS_TIME'
p5127
F6387324.9382239468
sS'NUM_ABS'
p5128
I4046
sstp5129
a(g11
(tRp5130
S'workload'
p5131
g11
(tRp5132
S'n_contents'
p5133
I10000
sS'disconnection_rate'
p5134
F0.0025000000000000001
sS'name'
p5135
S'STATIONARY_SIT'
p5136
sS'n_warmup'
p5137
I36000
sS'rate'
p5138
I100
sS'n_measured'
p5139
I108000
sS'alpha'
p5140
F0.69999999999999996
ssS'cache_policy'
p5141
g11
(tRp5142
g5135
S'LRU'
p5143
ssS'desc'
p5144
S'strategy: SCOPED_FLOODING network_cache: 0.875'
p5145
sS'strategy'
p5146
g11
(tRp5147
S'scope'
p5148
I100
sg5135
S'SCOPED_FLOODING'
p5149
ssS'content_placement'
p5150
g11
(tRp5151
g5135
S'UNIFORM'
p5152
ssS'joint_cache_rsn_placement'
p5153
g11
(tRp5154
S'network_cache'
p5155
F0.875
sS'network_rsn'
p5156
F56
sS'rsn_cache_ratio'
p5157
I64
sg5135
S'CACHE_ALL_RSN_ALL_SIT'
p5158
ssS'warmup_strategy'
p5159
g11
(tRp5160
S'p'
F0.10000000000000001
sg5135
S'NDN'
p5161
ssS'topology'
p5162
g11
(tRp5163
S'ext_delay'
p5164
I2
sS'source_ratio'
p5165
F1
sg5135
S'ROCKET_FUEL'
p5166
sS'asn'
p5167
I3257
ssg11
(tRp5168
S'LATENCY'
p5169
g11
(tRp5170
S'MEAN'
p5171
F1.6510172808072234
ssS'CACHE_HIT_RATIO'
p5172
g11
(tRp5173
S'MEAN_NETWORK_HITS'
p5174
F0.079883065751939084
sS'MEAN_USER_HITS'
p5175
F0.3366197515147229
sg5171
F0.41650281726666194
ssS'OVERHEAD'
p5176
g11
(tRp5177
g5171
F26.889215930445808
ssS'ABS'
p5178
g11
(tRp5179
S'MEAN_ABS_TIME'
p5180
F6447281.0544599304
sS'NUM_ABS'
p5181
I3985
sstp5182
a(g11
(tRp5183
S'workload'
p5184
g11
(tRp5185
S'n_contents'
p5186
I10000
sS'disconnection_rate'
p5187
F0.0025000000000000001
sS'name'
p5188
S'STATIONARY_SIT'
p5189
sS'n_warmup'
p5190
I36000
sS'rate'
p5191
I100
sS'n_measured'
p5192
I108000
sS'alpha'
p5193
F0.69999999999999996
ssS'cache_policy'
p5194
g11
(tRp5195
g5188
S'LRU'
p5196
ssS'desc'
p5197
S'strategy: SCOPED_FLOODING network_cache: 1.0'
p5198
sS'strategy'
p5199
g11
(tRp5200
S'scope'
p5201
I100
sg5188
S'SCOPED_FLOODING'
p5202
ssS'content_placement'
p5203
g11
(tRp5204
g5188
S'UNIFORM'
p5205
ssS'joint_cache_rsn_placement'
p5206
g11
(tRp5207
S'network_cache'
p5208
F1
sS'network_rsn'
p5209
F64
sS'rsn_cache_ratio'
p5210
I64
sg5188
S'CACHE_ALL_RSN_ALL_SIT'
p5211
ssS'warmup_strategy'
p5212
g11
(tRp5213
S'p'
F0.10000000000000001
sg5188
S'NDN'
p5214
ssS'topology'
p5215
g11
(tRp5216
S'ext_delay'
p5217
I2
sS'source_ratio'
p5218
F1
sg5188
S'ROCKET_FUEL'
p5219
sS'asn'
p5220
I3257
ssg11
(tRp5221
S'LATENCY'
p5222
g11
(tRp5223
S'MEAN'
p5224
F1.6414508406846113
ssS'CACHE_HIT_RATIO'
p5225
g11
(tRp5226
S'MEAN_NETWORK_HITS'
p5227
F0.091466862700746443
sS'MEAN_USER_HITS'
p5228
F0.32662764834502001
sg5224
F0.41809451104576639
ssS'OVERHEAD'
p5229
g11
(tRp5230
g5224
F26.167295966096727
ssS'ABS'
p5231
g11
(tRp5232
S'MEAN_ABS_TIME'
p5233
F6439052.18870926
sS'NUM_ABS'
p5234
I3979
sstp5235
a(g11
(tRp5236
S'workload'
p5237
g11
(tRp5238
S'n_contents'
p5239
I10000
sS'disconnection_rate'
p5240
F0.0025000000000000001
sS'name'
p5241
S'STATIONARY_SIT'
p5242
sS'n_warmup'
p5243
I36000
sS'rate'
p5244
I100
sS'n_measured'
p5245
I108000
sS'alpha'
p5246
F0.69999999999999996
ssS'cache_policy'
p5247
g11
(tRp5248
g5241
S'LRU'
p5249
ssS'desc'
p5250
S'strategy: SCOPED_FLOODING network_cache: 1.25'
p5251
sS'strategy'
p5252
g11
(tRp5253
S'scope'
p5254
I100
sg5241
S'SCOPED_FLOODING'
p5255
ssS'content_placement'
p5256
g11
(tRp5257
g5241
S'UNIFORM'
p5258
ssS'joint_cache_rsn_placement'
p5259
g11
(tRp5260
S'network_cache'
p5261
F1.25
sS'network_rsn'
p5262
F80
sS'rsn_cache_ratio'
p5263
I64
sg5241
S'CACHE_ALL_RSN_ALL_SIT'
p5264
ssS'warmup_strategy'
p5265
g11
(tRp5266
S'p'
F0.10000000000000001
sg5241
S'NDN'
p5267
ssS'topology'
p5268
g11
(tRp5269
S'ext_delay'
p5270
I2
sS'source_ratio'
p5271
F1
sg5241
S'ROCKET_FUEL'
p5272
sS'asn'
p5273
I3257
ssg11
(tRp5274
S'LATENCY'
p5275
g11
(tRp5276
S'MEAN'
p5277
F1.6130595977821014
ssS'CACHE_HIT_RATIO'
p5278
g11
(tRp5279
S'MEAN_NETWORK_HITS'
p5280
F0.11141784400277002
sS'MEAN_USER_HITS'
p5281
F0.30505057166950106
sg5277
F0.41646841567227111
ssS'OVERHEAD'
p5282
g11
(tRp5283
g5277
F24.724597025055143
ssS'ABS'
p5284
g11
(tRp5285
S'MEAN_ABS_TIME'
p5286
F6530843.753965931
sS'NUM_ABS'
p5287
I3981
sstp5288
a(g11
(tRp5289
S'workload'
p5290
g11
(tRp5291
S'n_contents'
p5292
I10000
sS'disconnection_rate'
p5293
F0.0025000000000000001
sS'name'
p5294
S'STATIONARY_SIT'
p5295
sS'n_warmup'
p5296
I36000
sS'rate'
p5297
I100
sS'n_measured'
p5298
I108000
sS'alpha'
p5299
F0.69999999999999996
ssS'cache_policy'
p5300
g11
(tRp5301
g5294
S'LRU'
p5302
ssS'desc'
p5303
S'strategy: SCOPED_FLOODING network_cache: 1.5'
p5304
sS'strategy'
p5305
g11
(tRp5306
S'scope'
p5307
I100
sg5294
S'SCOPED_FLOODING'
p5308
ssS'content_placement'
p5309
g11
(tRp5310
g5294
S'UNIFORM'
p5311
ssS'joint_cache_rsn_placement'
p5312
g11
(tRp5313
S'network_cache'
p5314
F1.5
sS'network_rsn'
p5315
F96
sS'rsn_cache_ratio'
p5316
I64
sg5294
S'CACHE_ALL_RSN_ALL_SIT'
p5317
ssS'warmup_strategy'
p5318
g11
(tRp5319
S'p'
F0.10000000000000001
sg5294
S'NDN'
p5320
ssS'topology'
p5321
g11
(tRp5322
S'ext_delay'
p5323
I2
sS'source_ratio'
p5324
F1
sg5294
S'ROCKET_FUEL'
p5325
sS'asn'
p5326
I3257
ssg11
(tRp5327
S'LATENCY'
p5328
g11
(tRp5329
S'MEAN'
p5330
F1.591950528603008
ssS'CACHE_HIT_RATIO'
p5331
g11
(tRp5332
S'MEAN_NETWORK_HITS'
p5333
F0.12800064101657688
sS'MEAN_USER_HITS'
p5334
F0.28929643717330544
sg5330
F0.41729707818988232
ssS'OVERHEAD'
p5335
g11
(tRp5336
g5330
F23.847495340825663
ssS'ABS'
p5337
g11
(tRp5338
S'MEAN_ABS_TIME'
p5339
F6532344.414992461
sS'NUM_ABS'
p5340
I3953
sstp5341
atRp5342
sb.