ccopy_reg
_reconstructor
p1
(cicarus.results.readwrite
ResultSet
p2
c__builtin__
object
p3
NtRp4
(dp5
S'attr'
p6
(dp7
sS'_results'
p8
ccollections
deque
p9
((lp10
(cicarus.util
Tree
p11
(tRp12
S'workload'
p13
g11
(tRp14
S'n_contents'
p15
I10000
sS'disconnection_rate'
p16
F0.0001
sS'name'
p17
S'STATIONARY_SIT'
p18
sS'n_warmup'
p19
I120000
sS'rate'
p20
I100
sS'n_measured'
p21
I360000
sS'alpha'
p22
F0.69999999999999996
ssS'cache_policy'
p23
g11
(tRp24
g17
S'LRU'
p25
ssS'desc'
p26
S'strategy: SIT_ONLY disconnection rate: 0.0001 fan_out: 1'
p27
sS'strategy'
p28
g11
(tRp29
S'fan_out'
p30
I1
sg17
S'SIT_ONLY'
p31
ssS'content_placement'
p32
g11
(tRp33
g17
S'UNIFORM'
p34
ssS'joint_cache_rsn_placement'
p35
g11
(tRp36
S'network_cache'
p37
F1
sS'network_rsn'
p38
F64
sS'rsn_cache_ratio'
p39
I64
sg17
S'CACHE_ALL_RSN_ALL_SIT'
p40
ssS'warmup_strategy'
p41
g11
(tRp42
S'p'
F0.5
sg17
S'NDN'
p43
ssS'topology'
p44
g11
(tRp45
S'ext_delay'
p46
I2
sS'source_ratio'
p47
F1
sg17
S'ROCKET_FUEL'
p48
sS'asn'
p49
I3257
ssg11
(tRp50
S'LATENCY'
p51
g11
(tRp52
S'MEAN'
p53
F2.1707299905858752
ssS'CACHE_HIT_RATIO'
p54
g11
(tRp55
S'MEAN_NETWORK_HITS'
p56
F0.034974281671889672
sS'MEAN_USER_HITS'
p57
F0.21550724829315809
sg53
F0.25048152996504774
ssS'OVERHEAD'
p58
g11
(tRp59
g53
F2.1707299905858752
ssS'ABS'
p60
g11
(tRp61
S'NUM_UNIQUE'
p62
I9409
sS'MEAN_ABS_TIME'
p63
F3572.2131384146428
sS'NUM_ABS'
p64
I199
sstp65
a(g11
(tRp66
S'workload'
p67
g11
(tRp68
S'n_contents'
p69
I10000
sS'disconnection_rate'
p70
F0.0001
sS'name'
p71
S'STATIONARY_SIT'
p72
sS'n_warmup'
p73
I120000
sS'rate'
p74
I100
sS'n_measured'
p75
I360000
sS'alpha'
p76
F0.69999999999999996
ssS'cache_policy'
p77
g11
(tRp78
g71
S'LRU'
p79
ssS'desc'
p80
S'strategy: SIT_ONLY disconnection rate: 0.0001 fan_out: 100'
p81
sS'strategy'
p82
g11
(tRp83
S'fan_out'
p84
I100
sg71
S'SIT_ONLY'
p85
ssS'content_placement'
p86
g11
(tRp87
g71
S'UNIFORM'
p88
ssS'joint_cache_rsn_placement'
p89
g11
(tRp90
S'network_cache'
p91
F1
sS'network_rsn'
p92
F64
sS'rsn_cache_ratio'
p93
I64
sg71
S'CACHE_ALL_RSN_ALL_SIT'
p94
ssS'warmup_strategy'
p95
g11
(tRp96
S'p'
F0.5
sg71
S'NDN'
p97
ssS'topology'
p98
g11
(tRp99
S'ext_delay'
p100
I2
sS'source_ratio'
p101
F1
sg71
S'ROCKET_FUEL'
p102
sS'asn'
p103
I3257
ssg11
(tRp104
S'LATENCY'
p105
g11
(tRp106
S'MEAN'
p107
F2.1463351058283808
ssS'CACHE_HIT_RATIO'
p108
g11
(tRp109
S'MEAN_NETWORK_HITS'
p110
F0.03466881612445713
sS'MEAN_USER_HITS'
p111
F0.21879982733863651
sg107
F0.25346864346309361
ssS'OVERHEAD'
p112
g11
(tRp113
g107
F2.6635039794251556
ssS'ABS'
p114
g11
(tRp115
S'NUM_UNIQUE'
p116
I9457
sS'MEAN_ABS_TIME'
p117
F3566.31820254389
sS'NUM_ABS'
p118
I186
sstp119
a(g11
(tRp120
S'workload'
p121
g11
(tRp122
S'n_contents'
p123
I10000
sS'disconnection_rate'
p124
F0.050000000000000003
sS'name'
p125
S'STATIONARY_SIT'
p126
sS'n_warmup'
p127
I120000
sS'rate'
p128
I100
sS'n_measured'
p129
I360000
sS'alpha'
p130
F0.69999999999999996
ssS'cache_policy'
p131
g11
(tRp132
g125
S'LRU'
p133
ssS'desc'
p134
S'strategy: SIT_ONLY disconnection rate: 0.05 fan_out: 1'
p135
sS'strategy'
p136
g11
(tRp137
S'fan_out'
p138
I1
sg125
S'SIT_ONLY'
p139
ssS'content_placement'
p140
g11
(tRp141
g125
S'UNIFORM'
p142
ssS'joint_cache_rsn_placement'
p143
g11
(tRp144
S'network_cache'
p145
F1
sS'network_rsn'
p146
F64
sS'rsn_cache_ratio'
p147
I64
sg125
S'CACHE_ALL_RSN_ALL_SIT'
p148
ssS'warmup_strategy'
p149
g11
(tRp150
S'p'
F0.5
sg125
S'NDN'
p151
ssS'topology'
p152
g11
(tRp153
S'ext_delay'
p154
I2
sS'source_ratio'
p155
F1
sg125
S'ROCKET_FUEL'
p156
sS'asn'
p157
I3257
ssg11
(tRp158
S'LATENCY'
p159
g11
(tRp160
S'MEAN'
p161
F1.3319746862597877
ssS'CACHE_HIT_RATIO'
p162
g11
(tRp163
S'MEAN_NETWORK_HITS'
p164
F0.03095786794094375
sS'MEAN_USER_HITS'
p165
F0.0024214924461131407
sg161
F0.03337936038705689
ssS'OVERHEAD'
p166
g11
(tRp167
g161
F1.3319746862597877
ssS'ABS'
p168
g11
(tRp169
S'NUM_UNIQUE'
p170
I9956
sS'MEAN_ABS_TIME'
p171
F1383.6776429065153
sS'NUM_ABS'
p172
I6319
sstp173
a(g11
(tRp174
S'workload'
p175
g11
(tRp176
S'n_contents'
p177
I10000
sS'disconnection_rate'
p178
F0.050000000000000003
sS'name'
p179
S'STATIONARY_SIT'
p180
sS'n_warmup'
p181
I120000
sS'rate'
p182
I100
sS'n_measured'
p183
I360000
sS'alpha'
p184
F0.69999999999999996
ssS'cache_policy'
p185
g11
(tRp186
g179
S'LRU'
p187
ssS'desc'
p188
S'strategy: SIT_ONLY disconnection rate: 0.05 fan_out: 100'
p189
sS'strategy'
p190
g11
(tRp191
S'fan_out'
p192
I100
sg179
S'SIT_ONLY'
p193
ssS'content_placement'
p194
g11
(tRp195
g179
S'UNIFORM'
p196
ssS'joint_cache_rsn_placement'
p197
g11
(tRp198
S'network_cache'
p199
F1
sS'network_rsn'
p200
F64
sS'rsn_cache_ratio'
p201
I64
sg179
S'CACHE_ALL_RSN_ALL_SIT'
p202
ssS'warmup_strategy'
p203
g11
(tRp204
S'p'
F0.5
sg179
S'NDN'
p205
ssS'topology'
p206
g11
(tRp207
S'ext_delay'
p208
I2
sS'source_ratio'
p209
F1
sg179
S'ROCKET_FUEL'
p210
sS'asn'
p211
I3257
ssg11
(tRp212
S'LATENCY'
p213
g11
(tRp214
S'MEAN'
p215
F1.2957244655581948
ssS'CACHE_HIT_RATIO'
p216
g11
(tRp217
S'MEAN_NETWORK_HITS'
p218
F0.033311058340592593
sS'MEAN_USER_HITS'
p219
F0.001855586448849059
sg215
F0.035166644789441655
ssS'OVERHEAD'
p220
g11
(tRp221
g215
F1.480488632507635
ssS'ABS'
p222
g11
(tRp223
S'NUM_UNIQUE'
p224
I9950
sS'MEAN_ABS_TIME'
p225
F1351.2955196015257
sS'NUM_ABS'
p226
I6397
sstp227
a(g11
(tRp228
S'workload'
p229
g11
(tRp230
S'n_contents'
p231
I10000
sS'disconnection_rate'
p232
F0.01
sS'name'
p233
S'STATIONARY_SIT'
p234
sS'n_warmup'
p235
I120000
sS'rate'
p236
I100
sS'n_measured'
p237
I360000
sS'alpha'
p238
F0.69999999999999996
ssS'cache_policy'
p239
g11
(tRp240
g233
S'LRU'
p241
ssS'desc'
p242
S'strategy: SIT_ONLY disconnection rate: 0.01 fan_out: 100'
p243
sS'strategy'
p244
g11
(tRp245
S'fan_out'
p246
I100
sg233
S'SIT_ONLY'
p247
ssS'content_placement'
p248
g11
(tRp249
g233
S'UNIFORM'
p250
ssS'joint_cache_rsn_placement'
p251
g11
(tRp252
S'network_cache'
p253
F1
sS'network_rsn'
p254
F64
sS'rsn_cache_ratio'
p255
I64
sg233
S'CACHE_ALL_RSN_ALL_SIT'
p256
ssS'warmup_strategy'
p257
g11
(tRp258
S'p'
F0.5
sg233
S'NDN'
p259
ssS'topology'
p260
g11
(tRp261
S'ext_delay'
p262
I2
sS'source_ratio'
p263
F1
sg233
S'ROCKET_FUEL'
p264
sS'asn'
p265
I3257
ssg11
(tRp266
S'LATENCY'
p267
g11
(tRp268
S'MEAN'
p269
F1.4157757496740548
ssS'CACHE_HIT_RATIO'
p270
g11
(tRp271
S'MEAN_NETWORK_HITS'
p272
F0.036848445424210667
sS'MEAN_USER_HITS'
p273
F0.0093491380868056806
sg269
F0.046197583511016348
ssS'OVERHEAD'
p274
g11
(tRp275
g269
F1.6463363754889178
ssS'ABS'
p276
g11
(tRp277
S'NUM_UNIQUE'
p278
I9951
sS'MEAN_ABS_TIME'
p279
F1289.2429301926252
sS'NUM_ABS'
p280
I6838
sstp281
a(g11
(tRp282
S'workload'
p283
g11
(tRp284
S'n_contents'
p285
I10000
sS'disconnection_rate'
p286
F0.00050000000000000001
sS'name'
p287
S'STATIONARY_SIT'
p288
sS'n_warmup'
p289
I120000
sS'rate'
p290
I100
sS'n_measured'
p291
I360000
sS'alpha'
p292
F0.69999999999999996
ssS'cache_policy'
p293
g11
(tRp294
g287
S'LRU'
p295
ssS'desc'
p296
S'strategy: SIT_ONLY disconnection rate: 0.0005 fan_out: 1'
p297
sS'strategy'
p298
g11
(tRp299
S'fan_out'
p300
I1
sg287
S'SIT_ONLY'
p301
ssS'content_placement'
p302
g11
(tRp303
g287
S'UNIFORM'
p304
ssS'joint_cache_rsn_placement'
p305
g11
(tRp306
S'network_cache'
p307
F1
sS'network_rsn'
p308
F64
sS'rsn_cache_ratio'
p309
I64
sg287
S'CACHE_ALL_RSN_ALL_SIT'
p310
ssS'warmup_strategy'
p311
g11
(tRp312
S'p'
F0.5
sg287
S'NDN'
p313
ssS'topology'
p314
g11
(tRp315
S'ext_delay'
p316
I2
sS'source_ratio'
p317
F1
sg287
S'ROCKET_FUEL'
p318
sS'asn'
p319
I3257
ssg11
(tRp320
S'LATENCY'
p321
g11
(tRp322
S'MEAN'
p323
F2.0533649172597963
ssS'CACHE_HIT_RATIO'
p324
g11
(tRp325
S'MEAN_NETWORK_HITS'
p326
F0.030000168282432998
sS'MEAN_USER_HITS'
p327
F0.10691594904407929
sg323
F0.13691611732651229
ssS'OVERHEAD'
p328
g11
(tRp329
g323
F2.0533649172597963
ssS'ABS'
p330
g11
(tRp331
S'NUM_UNIQUE'
p332
I9927
sS'MEAN_ABS_TIME'
p333
F3053.1542017881761
sS'NUM_ABS'
p334
I4096
sstp335
a(g11
(tRp336
S'workload'
p337
g11
(tRp338
S'n_contents'
p339
I10000
sS'disconnection_rate'
p340
F0.01
sS'name'
p341
S'STATIONARY_SIT'
p342
sS'n_warmup'
p343
I120000
sS'rate'
p344
I100
sS'n_measured'
p345
I360000
sS'alpha'
p346
F0.69999999999999996
ssS'cache_policy'
p347
g11
(tRp348
g341
S'LRU'
p349
ssS'desc'
p350
S'strategy: SIT_ONLY disconnection rate: 0.01 fan_out: 1'
p351
sS'strategy'
p352
g11
(tRp353
S'fan_out'
p354
I1
sg341
S'SIT_ONLY'
p355
ssS'content_placement'
p356
g11
(tRp357
g341
S'UNIFORM'
p358
ssS'joint_cache_rsn_placement'
p359
g11
(tRp360
S'network_cache'
p361
F1
sS'network_rsn'
p362
F64
sS'rsn_cache_ratio'
p363
I64
sg341
S'CACHE_ALL_RSN_ALL_SIT'
p364
ssS'warmup_strategy'
p365
g11
(tRp366
S'p'
F0.5
sg341
S'NDN'
p367
ssS'topology'
p368
g11
(tRp369
S'ext_delay'
p370
I2
sS'source_ratio'
p371
F1
sg341
S'ROCKET_FUEL'
p372
sS'asn'
p373
I3257
ssg11
(tRp374
S'LATENCY'
p375
g11
(tRp376
S'MEAN'
p377
F1.4359239177209742
ssS'CACHE_HIT_RATIO'
p378
g11
(tRp379
S'MEAN_NETWORK_HITS'
p380
F0.033200124815216857
sS'MEAN_USER_HITS'
p381
F0.0087948946239098241
sg377
F0.041995019439126681
ssS'OVERHEAD'
p382
g11
(tRp383
g377
F1.4359239177209742
ssS'ABS'
p384
g11
(tRp385
S'NUM_UNIQUE'
p386
I9935
sS'MEAN_ABS_TIME'
p387
F1403.8241356092819
sS'NUM_ABS'
p388
I6492
sstp389
a(g11
(tRp390
S'workload'
p391
g11
(tRp392
S'n_contents'
p393
I10000
sS'disconnection_rate'
p394
F0.001
sS'name'
p395
S'STATIONARY_SIT'
p396
sS'n_warmup'
p397
I120000
sS'rate'
p398
I100
sS'n_measured'
p399
I360000
sS'alpha'
p400
F0.69999999999999996
ssS'cache_policy'
p401
g11
(tRp402
g395
S'LRU'
p403
ssS'desc'
p404
S'strategy: SIT_ONLY disconnection rate: 0.001 fan_out: 1'
p405
sS'strategy'
p406
g11
(tRp407
S'fan_out'
p408
I1
sg395
S'SIT_ONLY'
p409
ssS'content_placement'
p410
g11
(tRp411
g395
S'UNIFORM'
p412
ssS'joint_cache_rsn_placement'
p413
g11
(tRp414
S'network_cache'
p415
F1
sS'network_rsn'
p416
F64
sS'rsn_cache_ratio'
p417
I64
sg395
S'CACHE_ALL_RSN_ALL_SIT'
p418
ssS'warmup_strategy'
p419
g11
(tRp420
S'p'
F0.5
sg395
S'NDN'
p421
ssS'topology'
p422
g11
(tRp423
S'ext_delay'
p424
I2
sS'source_ratio'
p425
F1
sg395
S'ROCKET_FUEL'
p426
sS'asn'
p427
I3257
ssg11
(tRp428
S'LATENCY'
p429
g11
(tRp430
S'MEAN'
p431
F1.9434439913517063
ssS'CACHE_HIT_RATIO'
p432
g11
(tRp433
S'MEAN_NETWORK_HITS'
p434
F0.028933375885067045
sS'MEAN_USER_HITS'
p435
F0.069888518063751875
sg431
F0.09882189394881892
ssS'OVERHEAD'
p436
g11
(tRp437
g431
F1.9434439913517063
ssS'ABS'
p438
g11
(tRp439
S'NUM_UNIQUE'
p440
I9952
sS'MEAN_ABS_TIME'
p441
F2302.3130241321364
sS'NUM_ABS'
p442
I6912
sstp443
a(g11
(tRp444
S'workload'
p445
g11
(tRp446
S'n_contents'
p447
I10000
sS'disconnection_rate'
p448
F0.0050000000000000001
sS'name'
p449
S'STATIONARY_SIT'
p450
sS'n_warmup'
p451
I120000
sS'rate'
p452
I100
sS'n_measured'
p453
I360000
sS'alpha'
p454
F0.69999999999999996
ssS'cache_policy'
p455
g11
(tRp456
g449
S'LRU'
p457
ssS'desc'
p458
S'strategy: SIT_ONLY disconnection rate: 0.005 fan_out: 1'
p459
sS'strategy'
p460
g11
(tRp461
S'fan_out'
p462
I1
sg449
S'SIT_ONLY'
p463
ssS'content_placement'
p464
g11
(tRp465
g449
S'UNIFORM'
p466
ssS'joint_cache_rsn_placement'
p467
g11
(tRp468
S'network_cache'
p469
F1
sS'network_rsn'
p470
F64
sS'rsn_cache_ratio'
p471
I64
sg449
S'CACHE_ALL_RSN_ALL_SIT'
p472
ssS'warmup_strategy'
p473
g11
(tRp474
S'p'
F0.5
sg449
S'NDN'
p475
ssS'topology'
p476
g11
(tRp477
S'ext_delay'
p478
I2
sS'source_ratio'
p479
F1
sg449
S'ROCKET_FUEL'
p480
sS'asn'
p481
I3257
ssg11
(tRp482
S'LATENCY'
p483
g11
(tRp484
S'MEAN'
p485
F1.5809117943194324
ssS'CACHE_HIT_RATIO'
p486
g11
(tRp487
S'MEAN_NETWORK_HITS'
p488
F0.033144851845256534
sS'MEAN_USER_HITS'
p489
F0.018944097106183055
sg485
F0.05208894895143959
ssS'OVERHEAD'
p490
g11
(tRp491
g485
F1.5809117943194324
ssS'ABS'
p492
g11
(tRp493
S'NUM_UNIQUE'
p494
I9938
sS'MEAN_ABS_TIME'
p495
F1474.5890572872859
sS'NUM_ABS'
p496
I6633
sstp497
a(g11
(tRp498
S'workload'
p499
g11
(tRp500
S'n_contents'
p501
I10000
sS'disconnection_rate'
p502
F0.0025000000000000001
sS'name'
p503
S'STATIONARY_SIT'
p504
sS'n_warmup'
p505
I120000
sS'rate'
p506
I100
sS'n_measured'
p507
I360000
sS'alpha'
p508
F0.69999999999999996
ssS'cache_policy'
p509
g11
(tRp510
g503
S'LRU'
p511
ssS'desc'
p512
S'strategy: SIT_ONLY disconnection rate: 0.0025 fan_out: 1'
p513
sS'strategy'
p514
g11
(tRp515
S'fan_out'
p516
I1
sg503
S'SIT_ONLY'
p517
ssS'content_placement'
p518
g11
(tRp519
g503
S'UNIFORM'
p520
ssS'joint_cache_rsn_placement'
p521
g11
(tRp522
S'network_cache'
p523
F1
sS'network_rsn'
p524
F64
sS'rsn_cache_ratio'
p525
I64
sg503
S'CACHE_ALL_RSN_ALL_SIT'
p526
ssS'warmup_strategy'
p527
g11
(tRp528
S'p'
F0.5
sg503
S'NDN'
p529
ssS'topology'
p530
g11
(tRp531
S'ext_delay'
p532
I2
sS'source_ratio'
p533
F1
sg503
S'ROCKET_FUEL'
p534
sS'asn'
p535
I3257
ssg11
(tRp536
S'LATENCY'
p537
g11
(tRp538
S'MEAN'
p539
F1.7450301232566281
ssS'CACHE_HIT_RATIO'
p540
g11
(tRp541
S'MEAN_NETWORK_HITS'
p542
F0.032065972287338519
sS'MEAN_USER_HITS'
p543
F0.035792916430685218
sg539
F0.06785888871802373
ssS'OVERHEAD'
p544
g11
(tRp545
g539
F1.7450301232566281
ssS'ABS'
p546
g11
(tRp547
S'NUM_UNIQUE'
p548
I9951
sS'MEAN_ABS_TIME'
p549
F1629.7364018229696
sS'NUM_ABS'
p550
I6957
sstp551
a(g11
(tRp552
S'workload'
p553
g11
(tRp554
S'n_contents'
p555
I10000
sS'disconnection_rate'
p556
F0.00050000000000000001
sS'name'
p557
S'STATIONARY_SIT'
p558
sS'n_warmup'
p559
I120000
sS'rate'
p560
I100
sS'n_measured'
p561
I360000
sS'alpha'
p562
F0.69999999999999996
ssS'cache_policy'
p563
g11
(tRp564
g557
S'LRU'
p565
ssS'desc'
p566
S'strategy: SIT_ONLY disconnection rate: 0.0005 fan_out: 100'
p567
sS'strategy'
p568
g11
(tRp569
S'fan_out'
p570
I100
sg557
S'SIT_ONLY'
p571
ssS'content_placement'
p572
g11
(tRp573
g557
S'UNIFORM'
p574
ssS'joint_cache_rsn_placement'
p575
g11
(tRp576
S'network_cache'
p577
F1
sS'network_rsn'
p578
F64
sS'rsn_cache_ratio'
p579
I64
sg557
S'CACHE_ALL_RSN_ALL_SIT'
p580
ssS'warmup_strategy'
p581
g11
(tRp582
S'p'
F0.5
sg557
S'NDN'
p583
ssS'topology'
p584
g11
(tRp585
S'ext_delay'
p586
I2
sS'source_ratio'
p587
F1
sg557
S'ROCKET_FUEL'
p588
sS'asn'
p589
I3257
ssg11
(tRp590
S'LATENCY'
p591
g11
(tRp592
S'MEAN'
p593
F2.0487451582098521
ssS'CACHE_HIT_RATIO'
p594
g11
(tRp595
S'MEAN_NETWORK_HITS'
p596
F0.032737402447839459
sS'MEAN_USER_HITS'
p597
F0.10999044386998763
sg593
F0.14272784631782709
ssS'OVERHEAD'
p598
g11
(tRp599
g593
F2.4497795040719321
ssS'ABS'
p600
g11
(tRp601
S'NUM_UNIQUE'
p602
I9925
sS'MEAN_ABS_TIME'
p603
F3034.3507392631914
sS'NUM_ABS'
p604
I4334
sstp605
a(g11
(tRp606
S'workload'
p607
g11
(tRp608
S'n_contents'
p609
I10000
sS'disconnection_rate'
p610
F0.0025000000000000001
sS'name'
p611
S'STATIONARY_SIT'
p612
sS'n_warmup'
p613
I120000
sS'rate'
p614
I100
sS'n_measured'
p615
I360000
sS'alpha'
p616
F0.69999999999999996
ssS'cache_policy'
p617
g11
(tRp618
g611
S'LRU'
p619
ssS'desc'
p620
S'strategy: SIT_ONLY disconnection rate: 0.0025 fan_out: 100'
p621
sS'strategy'
p622
g11
(tRp623
S'fan_out'
p624
I100
sg611
S'SIT_ONLY'
p625
ssS'content_placement'
p626
g11
(tRp627
g611
S'UNIFORM'
p628
ssS'joint_cache_rsn_placement'
p629
g11
(tRp630
S'network_cache'
p631
F1
sS'network_rsn'
p632
F64
sS'rsn_cache_ratio'
p633
I64
sg611
S'CACHE_ALL_RSN_ALL_SIT'
p634
ssS'warmup_strategy'
p635
g11
(tRp636
S'p'
F0.5
sg611
S'NDN'
p637
ssS'topology'
p638
g11
(tRp639
S'ext_delay'
p640
I2
sS'source_ratio'
p641
F1
sg611
S'ROCKET_FUEL'
p642
sS'asn'
p643
I3257
ssg11
(tRp644
S'LATENCY'
p645
g11
(tRp646
S'MEAN'
p647
F1.6818824515160509
ssS'CACHE_HIT_RATIO'
p648
g11
(tRp649
S'MEAN_NETWORK_HITS'
p650
F0.037546404720433829
sS'MEAN_USER_HITS'
p651
F0.034084103046300315
sg647
F0.071630507766734144
ssS'OVERHEAD'
p652
g11
(tRp653
g647
F1.9659608637212631
ssS'ABS'
p654
g11
(tRp655
S'NUM_UNIQUE'
p656
I9940
sS'MEAN_ABS_TIME'
p657
F1402.7793967757607
sS'NUM_ABS'
p658
I7773
sstp659
a(g11
(tRp660
S'workload'
p661
g11
(tRp662
S'n_contents'
p663
I10000
sS'disconnection_rate'
p664
F0.0050000000000000001
sS'name'
p665
S'STATIONARY_SIT'
p666
sS'n_warmup'
p667
I120000
sS'rate'
p668
I100
sS'n_measured'
p669
I360000
sS'alpha'
p670
F0.69999999999999996
ssS'cache_policy'
p671
g11
(tRp672
g665
S'LRU'
p673
ssS'desc'
p674
S'strategy: SIT_ONLY disconnection rate: 0.005 fan_out: 100'
p675
sS'strategy'
p676
g11
(tRp677
S'fan_out'
p678
I100
sg665
S'SIT_ONLY'
p679
ssS'content_placement'
p680
g11
(tRp681
g665
S'UNIFORM'
p682
ssS'joint_cache_rsn_placement'
p683
g11
(tRp684
S'network_cache'
p685
F1
sS'network_rsn'
p686
F64
sS'rsn_cache_ratio'
p687
I64
sg665
S'CACHE_ALL_RSN_ALL_SIT'
p688
ssS'warmup_strategy'
p689
g11
(tRp690
S'p'
F0.5
sg665
S'NDN'
p691
ssS'topology'
p692
g11
(tRp693
S'ext_delay'
p694
I2
sS'source_ratio'
p695
F1
sg665
S'ROCKET_FUEL'
p696
sS'asn'
p697
I3257
ssg11
(tRp698
S'LATENCY'
p699
g11
(tRp700
S'MEAN'
p701
F1.526232459279502
ssS'CACHE_HIT_RATIO'
p702
g11
(tRp703
S'MEAN_NETWORK_HITS'
p704
F0.038369983024721471
sS'MEAN_USER_HITS'
p705
F0.017856968644514252
sg701
F0.05622695166923572
ssS'OVERHEAD'
p706
g11
(tRp707
g701
F1.7952805430845642
ssS'ABS'
p708
g11
(tRp709
S'NUM_UNIQUE'
p710
I9955
sS'MEAN_ABS_TIME'
p711
F1265.676016833844
sS'NUM_ABS'
p712
I7297
sstp713
a(g11
(tRp714
S'workload'
p715
g11
(tRp716
S'n_contents'
p717
I10000
sS'disconnection_rate'
p718
F0.001
sS'name'
p719
S'STATIONARY_SIT'
p720
sS'n_warmup'
p721
I120000
sS'rate'
p722
I100
sS'n_measured'
p723
I360000
sS'alpha'
p724
F0.69999999999999996
ssS'cache_policy'
p725
g11
(tRp726
g719
S'LRU'
p727
ssS'desc'
p728
S'strategy: SIT_ONLY disconnection rate: 0.001 fan_out: 100'
p729
sS'strategy'
p730
g11
(tRp731
S'fan_out'
p732
I100
sg719
S'SIT_ONLY'
p733
ssS'content_placement'
p734
g11
(tRp735
g719
S'UNIFORM'
p736
ssS'joint_cache_rsn_placement'
p737
g11
(tRp738
S'network_cache'
p739
F1
sS'network_rsn'
p740
F64
sS'rsn_cache_ratio'
p741
I64
sg719
S'CACHE_ALL_RSN_ALL_SIT'
p742
ssS'warmup_strategy'
p743
g11
(tRp744
S'p'
F0.5
sg719
S'NDN'
p745
ssS'topology'
p746
g11
(tRp747
S'ext_delay'
p748
I2
sS'source_ratio'
p749
F1
sg719
S'ROCKET_FUEL'
p750
sS'asn'
p751
I3257
ssg11
(tRp752
S'LATENCY'
p753
g11
(tRp754
S'MEAN'
p755
F1.9137951219512195
ssS'CACHE_HIT_RATIO'
p756
g11
(tRp757
S'MEAN_NETWORK_HITS'
p758
F0.034486349632266426
sS'MEAN_USER_HITS'
p759
F0.069483928730825512
sg755
F0.10397027836309193
ssS'OVERHEAD'
p760
g11
(tRp761
g755
F2.2519674796747968
ssS'ABS'
p762
g11
(tRp763
S'NUM_UNIQUE'
p764
I9950
sS'MEAN_ABS_TIME'
p765
F2138.9729616190098
sS'NUM_ABS'
p766
I7808
sstp767
a(g11
(tRp768
S'workload'
p769
g11
(tRp770
S'n_contents'
p771
I10000
sS'disconnection_rate'
p772
F0.050000000000000003
sS'name'
p773
S'STATIONARY_SIT'
p774
sS'n_warmup'
p775
I120000
sS'rate'
p776
I100
sS'n_measured'
p777
I360000
sS'alpha'
p778
F0.69999999999999996
ssS'cache_policy'
p779
g11
(tRp780
g773
S'LRU'
p781
ssS'desc'
p782
S'strategy: SIT_WITH_SCOPED_FLOODING disconnection rate: 0.05 fan_out: 1, scope: 1'
p783
sS'strategy'
p784
g11
(tRp785
S'fan_out'
p786
I1
sg773
S'SIT_WITH_SCOPED_FLOODING'
p787
sS'scope'
p788
I1
ssS'content_placement'
p789
g11
(tRp790
g773
S'UNIFORM'
p791
ssS'joint_cache_rsn_placement'
p792
g11
(tRp793
S'network_cache'
p794
F1
sS'network_rsn'
p795
F64
sS'rsn_cache_ratio'
p796
I64
sg773
S'CACHE_ALL_RSN_ALL_SIT'
p797
ssS'warmup_strategy'
p798
g11
(tRp799
S'p'
F0.5
sg773
S'NDN'
p800
ssS'topology'
p801
g11
(tRp802
S'ext_delay'
p803
I2
sS'source_ratio'
p804
F1
sg773
S'ROCKET_FUEL'
p805
sS'asn'
p806
I3257
ssg11
(tRp807
S'LATENCY'
p808
g11
(tRp809
S'MEAN'
p810
F1.7297626853481496
ssS'CACHE_HIT_RATIO'
p811
g11
(tRp812
S'MEAN_NETWORK_HITS'
p813
F0.099768128187044058
sS'MEAN_USER_HITS'
p814
F0.0039727291061777189
sg810
F0.10374085729322177
ssS'OVERHEAD'
p815
g11
(tRp816
g810
F2.4826011434355983
ssS'ABS'
p817
g11
(tRp818
S'NUM_UNIQUE'
p819
I9944
sS'MEAN_ABS_TIME'
p820
F351.71393270930673
sS'NUM_ABS'
p821
I9639
sstp822
a(g11
(tRp823
S'workload'
p824
g11
(tRp825
S'n_contents'
p826
I10000
sS'disconnection_rate'
p827
F0.01
sS'name'
p828
S'STATIONARY_SIT'
p829
sS'n_warmup'
p830
I120000
sS'rate'
p831
I100
sS'n_measured'
p832
I360000
sS'alpha'
p833
F0.69999999999999996
ssS'cache_policy'
p834
g11
(tRp835
g828
S'LRU'
p836
ssS'desc'
p837
S'strategy: SIT_WITH_SCOPED_FLOODING disconnection rate: 0.01 fan_out: 1, scope: 1'
p838
sS'strategy'
p839
g11
(tRp840
S'fan_out'
p841
I1
sg828
S'SIT_WITH_SCOPED_FLOODING'
p842
sS'scope'
p843
I1
ssS'content_placement'
p844
g11
(tRp845
g828
S'UNIFORM'
p846
ssS'joint_cache_rsn_placement'
p847
g11
(tRp848
S'network_cache'
p849
F1
sS'network_rsn'
p850
F64
sS'rsn_cache_ratio'
p851
I64
sg828
S'CACHE_ALL_RSN_ALL_SIT'
p852
ssS'warmup_strategy'
p853
g11
(tRp854
S'p'
F0.5
sg828
S'NDN'
p855
ssS'topology'
p856
g11
(tRp857
S'ext_delay'
p858
I2
sS'source_ratio'
p859
F1
sg828
S'ROCKET_FUEL'
p860
sS'asn'
p861
I3257
ssg11
(tRp862
S'LATENCY'
p863
g11
(tRp864
S'MEAN'
p865
F1.9316875491047429
ssS'CACHE_HIT_RATIO'
p866
g11
(tRp867
S'MEAN_NETWORK_HITS'
p868
F0.099740369265985965
sS'MEAN_USER_HITS'
p869
F0.016800698774133309
sg865
F0.11654106804011927
ssS'OVERHEAD'
p870
g11
(tRp871
g865
F2.7685874374560644
ssS'ABS'
p872
g11
(tRp873
S'NUM_UNIQUE'
p874
I9943
sS'MEAN_ABS_TIME'
p875
F414.86796879962742
sS'NUM_ABS'
p876
I9653
sstp877
a(g11
(tRp878
S'workload'
p879
g11
(tRp880
S'n_contents'
p881
I10000
sS'disconnection_rate'
p882
F0.01
sS'name'
p883
S'STATIONARY_SIT'
p884
sS'n_warmup'
p885
I120000
sS'rate'
p886
I100
sS'n_measured'
p887
I360000
sS'alpha'
p888
F0.69999999999999996
ssS'cache_policy'
p889
g11
(tRp890
g883
S'LRU'
p891
ssS'desc'
p892
S'strategy: SIT_WITH_SCOPED_FLOODING disconnection rate: 0.01 fan_out: 100, scope: 1'
p893
sS'strategy'
p894
g11
(tRp895
S'fan_out'
p896
I100
sg883
S'SIT_WITH_SCOPED_FLOODING'
p897
sS'scope'
p898
I1
ssS'content_placement'
p899
g11
(tRp900
g883
S'UNIFORM'
p901
ssS'joint_cache_rsn_placement'
p902
g11
(tRp903
S'network_cache'
p904
F1
sS'network_rsn'
p905
F64
sS'rsn_cache_ratio'
p906
I64
sg883
S'CACHE_ALL_RSN_ALL_SIT'
p907
ssS'warmup_strategy'
p908
g11
(tRp909
S'p'
F0.5
sg883
S'NDN'
p910
ssS'topology'
p911
g11
(tRp912
S'ext_delay'
p913
I2
sS'source_ratio'
p914
F1
sg883
S'ROCKET_FUEL'
p915
sS'asn'
p916
I3257
ssg11
(tRp917
S'LATENCY'
p918
g11
(tRp919
S'MEAN'
p920
F1.9045788942238342
ssS'CACHE_HIT_RATIO'
p921
g11
(tRp922
S'MEAN_NETWORK_HITS'
p923
F0.10061798829087501
sS'MEAN_USER_HITS'
p924
F0.016321445482926099
sg920
F0.1169394337738011
ssS'OVERHEAD'
p925
g11
(tRp926
g920
F5.50766583551425
ssS'ABS'
p927
g11
(tRp928
S'NUM_UNIQUE'
p929
I9929
sS'MEAN_ABS_TIME'
p930
F362.98263737955881
sS'NUM_ABS'
p931
I9681
sstp932
a(g11
(tRp933
S'workload'
p934
g11
(tRp935
S'n_contents'
p936
I10000
sS'disconnection_rate'
p937
F0.0050000000000000001
sS'name'
p938
S'STATIONARY_SIT'
p939
sS'n_warmup'
p940
I120000
sS'rate'
p941
I100
sS'n_measured'
p942
I360000
sS'alpha'
p943
F0.69999999999999996
ssS'cache_policy'
p944
g11
(tRp945
g938
S'LRU'
p946
ssS'desc'
p947
S'strategy: SIT_WITH_SCOPED_FLOODING disconnection rate: 0.005 fan_out: 1, scope: 1'
p948
sS'strategy'
p949
g11
(tRp950
S'fan_out'
p951
I1
sg938
S'SIT_WITH_SCOPED_FLOODING'
p952
sS'scope'
p953
I1
ssS'content_placement'
p954
g11
(tRp955
g938
S'UNIFORM'
p956
ssS'joint_cache_rsn_placement'
p957
g11
(tRp958
S'network_cache'
p959
F1
sS'network_rsn'
p960
F64
sS'rsn_cache_ratio'
p961
I64
sg938
S'CACHE_ALL_RSN_ALL_SIT'
p962
ssS'warmup_strategy'
p963
g11
(tRp964
S'p'
F0.5
sg938
S'NDN'
p965
ssS'topology'
p966
g11
(tRp967
S'ext_delay'
p968
I2
sS'source_ratio'
p969
F1
sg938
S'ROCKET_FUEL'
p970
sS'asn'
p971
I3257
ssg11
(tRp972
S'LATENCY'
p973
g11
(tRp974
S'MEAN'
p975
F2.1546607537107305
ssS'CACHE_HIT_RATIO'
p976
g11
(tRp977
S'MEAN_NETWORK_HITS'
p978
F0.092731716478890072
sS'MEAN_USER_HITS'
p979
F0.03487302822380986
sg975
F0.12760474470269995
ssS'OVERHEAD'
p980
g11
(tRp981
g975
F3.0547458161695134
ssS'ABS'
p982
g11
(tRp983
S'NUM_UNIQUE'
p984
I9944
sS'MEAN_ABS_TIME'
p985
F596.92324353497156
sS'NUM_ABS'
p986
I9616
sstp987
a(g11
(tRp988
S'workload'
p989
g11
(tRp990
S'n_contents'
p991
I10000
sS'disconnection_rate'
p992
F0.0025000000000000001
sS'name'
p993
S'STATIONARY_SIT'
p994
sS'n_warmup'
p995
I120000
sS'rate'
p996
I100
sS'n_measured'
p997
I360000
sS'alpha'
p998
F0.69999999999999996
ssS'cache_policy'
p999
g11
(tRp1000
g993
S'LRU'
p1001
ssS'desc'
p1002
S'strategy: SIT_WITH_SCOPED_FLOODING disconnection rate: 0.0025 fan_out: 1, scope: 1'
p1003
sS'strategy'
p1004
g11
(tRp1005
S'fan_out'
p1006
I1
sg993
S'SIT_WITH_SCOPED_FLOODING'
p1007
sS'scope'
p1008
I1
ssS'content_placement'
p1009
g11
(tRp1010
g993
S'UNIFORM'
p1011
ssS'joint_cache_rsn_placement'
p1012
g11
(tRp1013
S'network_cache'
p1014
F1
sS'network_rsn'
p1015
F64
sS'rsn_cache_ratio'
p1016
I64
sg993
S'CACHE_ALL_RSN_ALL_SIT'
p1017
ssS'warmup_strategy'
p1018
g11
(tRp1019
S'p'
F0.5
sg993
S'NDN'
p1020
ssS'topology'
p1021
g11
(tRp1022
S'ext_delay'
p1023
I2
sS'source_ratio'
p1024
F1
sg993
S'ROCKET_FUEL'
p1025
sS'asn'
p1026
I3257
ssg11
(tRp1027
S'LATENCY'
p1028
g11
(tRp1029
S'MEAN'
p1030
F2.4794304181955145
ssS'CACHE_HIT_RATIO'
p1031
g11
(tRp1032
S'MEAN_NETWORK_HITS'
p1033
F0.083606989770853624
sS'MEAN_USER_HITS'
p1034
F0.07072274050619462
sg1030
F0.15432973027704824
ssS'OVERHEAD'
p1035
g11
(tRp1036
g1030
F3.4860318000307795
ssS'ABS'
p1037
g11
(tRp1038
S'NUM_UNIQUE'
p1039
I9945
sS'MEAN_ABS_TIME'
p1040
F1040.8792631769786
sS'NUM_ABS'
p1041
I9526
sstp1042
a(g11
(tRp1043
S'workload'
p1044
g11
(tRp1045
S'n_contents'
p1046
I10000
sS'disconnection_rate'
p1047
F0.0050000000000000001
sS'name'
p1048
S'STATIONARY_SIT'
p1049
sS'n_warmup'
p1050
I120000
sS'rate'
p1051
I100
sS'n_measured'
p1052
I360000
sS'alpha'
p1053
F0.69999999999999996
ssS'cache_policy'
p1054
g11
(tRp1055
g1048
S'LRU'
p1056
ssS'desc'
p1057
S'strategy: SIT_WITH_SCOPED_FLOODING disconnection rate: 0.005 fan_out: 100, scope: 1'
p1058
sS'strategy'
p1059
g11
(tRp1060
S'fan_out'
p1061
I100
sg1048
S'SIT_WITH_SCOPED_FLOODING'
p1062
sS'scope'
p1063
I1
ssS'content_placement'
p1064
g11
(tRp1065
g1048
S'UNIFORM'
p1066
ssS'joint_cache_rsn_placement'
p1067
g11
(tRp1068
S'network_cache'
p1069
F1
sS'network_rsn'
p1070
F64
sS'rsn_cache_ratio'
p1071
I64
sg1048
S'CACHE_ALL_RSN_ALL_SIT'
p1072
ssS'warmup_strategy'
p1073
g11
(tRp1074
S'p'
F0.5
sg1048
S'NDN'
p1075
ssS'topology'
p1076
g11
(tRp1077
S'ext_delay'
p1078
I2
sS'source_ratio'
p1079
F1
sg1048
S'ROCKET_FUEL'
p1080
sS'asn'
p1081
I3257
ssg11
(tRp1082
S'LATENCY'
p1083
g11
(tRp1084
S'MEAN'
p1085
F2.1626097127437167
ssS'CACHE_HIT_RATIO'
p1086
g11
(tRp1087
S'MEAN_NETWORK_HITS'
p1088
F0.096191798131880737
sS'MEAN_USER_HITS'
p1089
F0.036243904461970428
sg1085
F0.13243570259385115
ssS'OVERHEAD'
p1090
g11
(tRp1091
g1085
F6.0647178552022032
ssS'ABS'
p1092
g11
(tRp1093
S'NUM_UNIQUE'
p1094
I9953
sS'MEAN_ABS_TIME'
p1095
F562.3489041339401
sS'NUM_ABS'
p1096
I9693
sstp1097
a(g11
(tRp1098
S'workload'
p1099
g11
(tRp1100
S'n_contents'
p1101
I10000
sS'disconnection_rate'
p1102
F0.0001
sS'name'
p1103
S'STATIONARY_SIT'
p1104
sS'n_warmup'
p1105
I120000
sS'rate'
p1106
I100
sS'n_measured'
p1107
I360000
sS'alpha'
p1108
F0.69999999999999996
ssS'cache_policy'
p1109
g11
(tRp1110
g1103
S'LRU'
p1111
ssS'desc'
p1112
S'strategy: SCOPED_FLOODING disconnection rate: 0.0001 scope: 1'
p1113
sS'strategy'
p1114
g11
(tRp1115
S'scope'
p1116
I1
sg1103
S'SCOPED_FLOODING'
p1117
ssS'content_placement'
p1118
g11
(tRp1119
g1103
S'UNIFORM'
p1120
ssS'joint_cache_rsn_placement'
p1121
g11
(tRp1122
S'network_cache'
p1123
F1
sS'network_rsn'
p1124
F64
sS'rsn_cache_ratio'
p1125
I64
sg1103
S'CACHE_ALL_RSN_ALL_SIT'
p1126
ssS'warmup_strategy'
p1127
g11
(tRp1128
S'p'
F0.5
sg1103
S'NDN'
p1129
ssS'topology'
p1130
g11
(tRp1131
S'ext_delay'
p1132
I2
sS'source_ratio'
p1133
F1
sg1103
S'ROCKET_FUEL'
p1134
sS'asn'
p1135
I3257
ssg11
(tRp1136
S'LATENCY'
p1137
g11
(tRp1138
S'MEAN'
p1139
F1.8144303993196489
ssS'CACHE_HIT_RATIO'
p1140
g11
(tRp1141
S'MEAN_NETWORK_HITS'
p1142
F0.063707129740061333
sS'MEAN_USER_HITS'
p1143
F0.16441104303945928
sg1139
F0.22811817277952059
ssS'OVERHEAD'
p1144
g11
(tRp1145
g1139
F1.87061734121922
ssS'ABS'
p1146
g11
(tRp1147
S'NUM_UNIQUE'
p1148
I9089
sS'MEAN_ABS_TIME'
p1149
F3557.289564946037
sS'NUM_ABS'
p1150
I264
sstp1151
a(g11
(tRp1152
S'workload'
p1153
g11
(tRp1154
S'n_contents'
p1155
I10000
sS'disconnection_rate'
p1156
F0.001
sS'name'
p1157
S'STATIONARY_SIT'
p1158
sS'n_warmup'
p1159
I120000
sS'rate'
p1160
I100
sS'n_measured'
p1161
I360000
sS'alpha'
p1162
F0.69999999999999996
ssS'cache_policy'
p1163
g11
(tRp1164
g1157
S'LRU'
p1165
ssS'desc'
p1166
S'strategy: SIT_WITH_SCOPED_FLOODING disconnection rate: 0.001 fan_out: 1, scope: 1'
p1167
sS'strategy'
p1168
g11
(tRp1169
S'fan_out'
p1170
I1
sg1157
S'SIT_WITH_SCOPED_FLOODING'
p1171
sS'scope'
p1172
I1
ssS'content_placement'
p1173
g11
(tRp1174
g1157
S'UNIFORM'
p1175
ssS'joint_cache_rsn_placement'
p1176
g11
(tRp1177
S'network_cache'
p1178
F1
sS'network_rsn'
p1179
F64
sS'rsn_cache_ratio'
p1180
I64
sg1157
S'CACHE_ALL_RSN_ALL_SIT'
p1181
ssS'warmup_strategy'
p1182
g11
(tRp1183
S'p'
F0.5
sg1157
S'NDN'
p1184
ssS'topology'
p1185
g11
(tRp1186
S'ext_delay'
p1187
I2
sS'source_ratio'
p1188
F1
sg1157
S'ROCKET_FUEL'
p1189
sS'asn'
p1190
I3257
ssg11
(tRp1191
S'LATENCY'
p1192
g11
(tRp1193
S'MEAN'
p1194
F2.9766266471449487
ssS'CACHE_HIT_RATIO'
p1195
g11
(tRp1196
S'MEAN_NETWORK_HITS'
p1197
F0.070801391466179045
sS'MEAN_USER_HITS'
p1198
F0.16014033683003229
sg1194
F0.23094172829621135
ssS'OVERHEAD'
p1199
g11
(tRp1200
g1194
F4.2305534407027823
ssS'ABS'
p1201
g11
(tRp1202
S'NUM_UNIQUE'
p1203
I9943
sS'MEAN_ABS_TIME'
p1204
F2297.756218023384
sS'NUM_ABS'
p1205
I7589
sstp1206
a(g11
(tRp1207
S'workload'
p1208
g11
(tRp1209
S'n_contents'
p1210
I10000
sS'disconnection_rate'
p1211
F0.0001
sS'name'
p1212
S'STATIONARY_SIT'
p1213
sS'n_warmup'
p1214
I120000
sS'rate'
p1215
I100
sS'n_measured'
p1216
I360000
sS'alpha'
p1217
F0.69999999999999996
ssS'cache_policy'
p1218
g11
(tRp1219
g1212
S'LRU'
p1220
ssS'desc'
p1221
S'strategy: SIT_WITH_SCOPED_FLOODING disconnection rate: 0.0001 fan_out: 1, scope: 1'
p1222
sS'strategy'
p1223
g11
(tRp1224
S'fan_out'
p1225
I1
sg1212
S'SIT_WITH_SCOPED_FLOODING'
p1226
sS'scope'
p1227
I1
ssS'content_placement'
p1228
g11
(tRp1229
g1212
S'UNIFORM'
p1230
ssS'joint_cache_rsn_placement'
p1231
g11
(tRp1232
S'network_cache'
p1233
F1
sS'network_rsn'
p1234
F64
sS'rsn_cache_ratio'
p1235
I64
sg1212
S'CACHE_ALL_RSN_ALL_SIT'
p1236
ssS'warmup_strategy'
p1237
g11
(tRp1238
S'p'
F0.5
sg1212
S'NDN'
p1239
ssS'topology'
p1240
g11
(tRp1241
S'ext_delay'
p1242
I2
sS'source_ratio'
p1243
F1
sg1212
S'ROCKET_FUEL'
p1244
sS'asn'
p1245
I3257
ssg11
(tRp1246
S'LATENCY'
p1247
g11
(tRp1248
S'MEAN'
p1249
F3.2386629266012155
ssS'CACHE_HIT_RATIO'
p1250
g11
(tRp1251
S'MEAN_NETWORK_HITS'
p1252
F0.071624427467455468
sS'MEAN_USER_HITS'
p1253
F0.47528246408308833
sg1249
F0.54690689155054373
ssS'OVERHEAD'
p1254
g11
(tRp1255
g1249
F4.8685818381132018
ssS'ABS'
p1256
g11
(tRp1257
S'NUM_UNIQUE'
p1258
I9837
sS'MEAN_ABS_TIME'
p1259
F3576.7733381946036
sS'NUM_ABS'
p1260
I130
sstp1261
a(g11
(tRp1262
S'workload'
p1263
g11
(tRp1264
S'n_contents'
p1265
I10000
sS'disconnection_rate'
p1266
F0.0025000000000000001
sS'name'
p1267
S'STATIONARY_SIT'
p1268
sS'n_warmup'
p1269
I120000
sS'rate'
p1270
I100
sS'n_measured'
p1271
I360000
sS'alpha'
p1272
F0.69999999999999996
ssS'cache_policy'
p1273
g11
(tRp1274
g1267
S'LRU'
p1275
ssS'desc'
p1276
S'strategy: SIT_WITH_SCOPED_FLOODING disconnection rate: 0.0025 fan_out: 100, scope: 1'
p1277
sS'strategy'
p1278
g11
(tRp1279
S'fan_out'
p1280
I100
sg1267
S'SIT_WITH_SCOPED_FLOODING'
p1281
sS'scope'
p1282
I1
ssS'content_placement'
p1283
g11
(tRp1284
g1267
S'UNIFORM'
p1285
ssS'joint_cache_rsn_placement'
p1286
g11
(tRp1287
S'network_cache'
p1288
F1
sS'network_rsn'
p1289
F64
sS'rsn_cache_ratio'
p1290
I64
sg1267
S'CACHE_ALL_RSN_ALL_SIT'
p1291
ssS'warmup_strategy'
p1292
g11
(tRp1293
S'p'
F0.5
sg1267
S'NDN'
p1294
ssS'topology'
p1295
g11
(tRp1296
S'ext_delay'
p1297
I2
sS'source_ratio'
p1298
F1
sg1267
S'ROCKET_FUEL'
p1299
sS'asn'
p1300
I3257
ssg11
(tRp1301
S'LATENCY'
p1302
g11
(tRp1303
S'MEAN'
p1304
F2.5606736493105267
ssS'CACHE_HIT_RATIO'
p1305
g11
(tRp1306
S'MEAN_NETWORK_HITS'
p1307
F0.087984150470470368
sS'MEAN_USER_HITS'
p1308
F0.07800314939357289
sg1304
F0.16598729986404326
ssS'OVERHEAD'
p1309
g11
(tRp1310
g1304
F7.1161705975435163
ssS'ABS'
p1311
g11
(tRp1312
S'NUM_UNIQUE'
p1313
I9941
sS'MEAN_ABS_TIME'
p1314
F1042.407713521133
sS'NUM_ABS'
p1315
I9539
sstp1316
a(g11
(tRp1317
S'workload'
p1318
g11
(tRp1319
S'n_contents'
p1320
I10000
sS'disconnection_rate'
p1321
F0.00050000000000000001
sS'name'
p1322
S'STATIONARY_SIT'
p1323
sS'n_warmup'
p1324
I120000
sS'rate'
p1325
I100
sS'n_measured'
p1326
I360000
sS'alpha'
p1327
F0.69999999999999996
ssS'cache_policy'
p1328
g11
(tRp1329
g1322
S'LRU'
p1330
ssS'desc'
p1331
S'strategy: SCOPED_FLOODING disconnection rate: 0.0005 scope: 1'
p1332
sS'strategy'
p1333
g11
(tRp1334
S'scope'
p1335
I1
sg1322
S'SCOPED_FLOODING'
p1336
ssS'content_placement'
p1337
g11
(tRp1338
g1322
S'UNIFORM'
p1339
ssS'joint_cache_rsn_placement'
p1340
g11
(tRp1341
S'network_cache'
p1342
F1
sS'network_rsn'
p1343
F64
sS'rsn_cache_ratio'
p1344
I64
sg1322
S'CACHE_ALL_RSN_ALL_SIT'
p1345
ssS'warmup_strategy'
p1346
g11
(tRp1347
S'p'
F0.5
sg1322
S'NDN'
p1348
ssS'topology'
p1349
g11
(tRp1350
S'ext_delay'
p1351
I2
sS'source_ratio'
p1352
F1
sg1322
S'ROCKET_FUEL'
p1353
sS'asn'
p1354
I3257
ssg11
(tRp1355
S'LATENCY'
p1356
g11
(tRp1357
S'MEAN'
p1358
F1.7667108274117789
ssS'CACHE_HIT_RATIO'
p1359
g11
(tRp1360
S'MEAN_NETWORK_HITS'
p1361
F0.052190065495997806
sS'MEAN_USER_HITS'
p1362
F0.087673062110174768
sg1358
F0.13986312760617259
ssS'OVERHEAD'
p1363
g11
(tRp1364
g1358
F1.8836017649699452
ssS'ABS'
p1365
g11
(tRp1366
S'NUM_UNIQUE'
p1367
I9917
sS'MEAN_ABS_TIME'
p1368
F3024.9435864726333
sS'NUM_ABS'
p1369
I4541
sstp1370
a(g11
(tRp1371
S'workload'
p1372
g11
(tRp1373
S'n_contents'
p1374
I10000
sS'disconnection_rate'
p1375
F0.00050000000000000001
sS'name'
p1376
S'STATIONARY_SIT'
p1377
sS'n_warmup'
p1378
I120000
sS'rate'
p1379
I100
sS'n_measured'
p1380
I360000
sS'alpha'
p1381
F0.69999999999999996
ssS'cache_policy'
p1382
g11
(tRp1383
g1376
S'LRU'
p1384
ssS'desc'
p1385
S'strategy: SIT_WITH_SCOPED_FLOODING disconnection rate: 0.0005 fan_out: 1, scope: 1'
p1386
sS'strategy'
p1387
g11
(tRp1388
S'fan_out'
p1389
I1
sg1376
S'SIT_WITH_SCOPED_FLOODING'
p1390
sS'scope'
p1391
I1
ssS'content_placement'
p1392
g11
(tRp1393
g1376
S'UNIFORM'
p1394
ssS'joint_cache_rsn_placement'
p1395
g11
(tRp1396
S'network_cache'
p1397
F1
sS'network_rsn'
p1398
F64
sS'rsn_cache_ratio'
p1399
I64
sg1376
S'CACHE_ALL_RSN_ALL_SIT'
p1400
ssS'warmup_strategy'
p1401
g11
(tRp1402
S'p'
F0.5
sg1376
S'NDN'
p1403
ssS'topology'
p1404
g11
(tRp1405
S'ext_delay'
p1406
I2
sS'source_ratio'
p1407
F1
sg1376
S'ROCKET_FUEL'
p1408
sS'asn'
p1409
I3257
ssg11
(tRp1410
S'LATENCY'
p1411
g11
(tRp1412
S'MEAN'
p1413
F3.183971573311565
ssS'CACHE_HIT_RATIO'
p1414
g11
(tRp1415
S'MEAN_NETWORK_HITS'
p1416
F0.064390559010774881
sS'MEAN_USER_HITS'
p1417
F0.25439360518247178
sg1413
F0.31878416419324668
ssS'OVERHEAD'
p1418
g11
(tRp1419
g1413
F4.5956303570142376
ssS'ABS'
p1420
g11
(tRp1421
S'NUM_UNIQUE'
p1422
I9916
sS'MEAN_ABS_TIME'
p1423
F3215.3136935152947
sS'NUM_ABS'
p1424
I2919
sstp1425
a(g11
(tRp1426
S'workload'
p1427
g11
(tRp1428
S'n_contents'
p1429
I10000
sS'disconnection_rate'
p1430
F0.001
sS'name'
p1431
S'STATIONARY_SIT'
p1432
sS'n_warmup'
p1433
I120000
sS'rate'
p1434
I100
sS'n_measured'
p1435
I360000
sS'alpha'
p1436
F0.69999999999999996
ssS'cache_policy'
p1437
g11
(tRp1438
g1431
S'LRU'
p1439
ssS'desc'
p1440
S'strategy: SCOPED_FLOODING disconnection rate: 0.001 scope: 1'
p1441
sS'strategy'
p1442
g11
(tRp1443
S'scope'
p1444
I1
sg1431
S'SCOPED_FLOODING'
p1445
ssS'content_placement'
p1446
g11
(tRp1447
g1431
S'UNIFORM'
p1448
ssS'joint_cache_rsn_placement'
p1449
g11
(tRp1450
S'network_cache'
p1451
F1
sS'network_rsn'
p1452
F64
sS'rsn_cache_ratio'
p1453
I64
sg1431
S'CACHE_ALL_RSN_ALL_SIT'
p1454
ssS'warmup_strategy'
p1455
g11
(tRp1456
S'p'
F0.5
sg1431
S'NDN'
p1457
ssS'topology'
p1458
g11
(tRp1459
S'ext_delay'
p1460
I2
sS'source_ratio'
p1461
F1
sg1431
S'ROCKET_FUEL'
p1462
sS'asn'
p1463
I3257
ssg11
(tRp1464
S'LATENCY'
p1465
g11
(tRp1466
S'MEAN'
p1467
F1.714132076611685
ssS'CACHE_HIT_RATIO'
p1468
g11
(tRp1469
S'MEAN_NETWORK_HITS'
p1470
F0.052577464636297713
sS'MEAN_USER_HITS'
p1471
F0.059378280680108662
sg1467
F0.11195574531640638
ssS'OVERHEAD'
p1472
g11
(tRp1473
g1467
F1.9191468793426378
ssS'ABS'
p1474
g11
(tRp1475
S'NUM_UNIQUE'
p1476
I9940
sS'MEAN_ABS_TIME'
p1477
F2161.7513284030229
sS'NUM_ABS'
p1478
I8267
sstp1479
a(g11
(tRp1480
S'workload'
p1481
g11
(tRp1482
S'n_contents'
p1483
I10000
sS'disconnection_rate'
p1484
F0.050000000000000003
sS'name'
p1485
S'STATIONARY_SIT'
p1486
sS'n_warmup'
p1487
I120000
sS'rate'
p1488
I100
sS'n_measured'
p1489
I360000
sS'alpha'
p1490
F0.69999999999999996
ssS'cache_policy'
p1491
g11
(tRp1492
g1485
S'LRU'
p1493
ssS'desc'
p1494
S'strategy: SIT_WITH_SCOPED_FLOODING disconnection rate: 0.05 fan_out: 100, scope: 1'
p1495
sS'strategy'
p1496
g11
(tRp1497
S'fan_out'
p1498
I100
sg1485
S'SIT_WITH_SCOPED_FLOODING'
p1499
sS'scope'
p1500
I1
ssS'content_placement'
p1501
g11
(tRp1502
g1485
S'UNIFORM'
p1503
ssS'joint_cache_rsn_placement'
p1504
g11
(tRp1505
S'network_cache'
p1506
F1
sS'network_rsn'
p1507
F64
sS'rsn_cache_ratio'
p1508
I64
sg1485
S'CACHE_ALL_RSN_ALL_SIT'
p1509
ssS'warmup_strategy'
p1510
g11
(tRp1511
S'p'
F0.5
sg1485
S'NDN'
p1512
ssS'topology'
p1513
g11
(tRp1514
S'ext_delay'
p1515
I2
sS'source_ratio'
p1516
F1
sg1485
S'ROCKET_FUEL'
p1517
sS'asn'
p1518
I3257
ssg11
(tRp1519
S'LATENCY'
p1520
g11
(tRp1521
S'MEAN'
p1522
F1.7083352254666
ssS'CACHE_HIT_RATIO'
p1523
g11
(tRp1524
S'MEAN_NETWORK_HITS'
p1525
F0.10066468573610664
sS'MEAN_USER_HITS'
p1526
F0.0044487404384300532
sg1522
F0.10511342617453669
ssS'OVERHEAD'
p1527
g11
(tRp1528
g1522
F5.0539371509014126
ssS'ABS'
p1529
g11
(tRp1530
S'NUM_UNIQUE'
p1531
I9941
sS'MEAN_ABS_TIME'
p1532
F284.25924581673968
sS'NUM_ABS'
p1533
I9668
sstp1534
a(g11
(tRp1535
S'workload'
p1536
g11
(tRp1537
S'n_contents'
p1538
I10000
sS'disconnection_rate'
p1539
F0.0025000000000000001
sS'name'
p1540
S'STATIONARY_SIT'
p1541
sS'n_warmup'
p1542
I120000
sS'rate'
p1543
I100
sS'n_measured'
p1544
I360000
sS'alpha'
p1545
F0.69999999999999996
ssS'cache_policy'
p1546
g11
(tRp1547
g1540
S'LRU'
p1548
ssS'desc'
p1549
S'strategy: SCOPED_FLOODING disconnection rate: 0.0025 scope: 1'
p1550
sS'strategy'
p1551
g11
(tRp1552
S'scope'
p1553
I1
sg1540
S'SCOPED_FLOODING'
p1554
ssS'content_placement'
p1555
g11
(tRp1556
g1540
S'UNIFORM'
p1557
ssS'joint_cache_rsn_placement'
p1558
g11
(tRp1559
S'network_cache'
p1560
F1
sS'network_rsn'
p1561
F64
sS'rsn_cache_ratio'
p1562
I64
sg1540
S'CACHE_ALL_RSN_ALL_SIT'
p1563
ssS'warmup_strategy'
p1564
g11
(tRp1565
S'p'
F0.5
sg1540
S'NDN'
p1566
ssS'topology'
p1567
g11
(tRp1568
S'ext_delay'
p1569
I2
sS'source_ratio'
p1570
F1
sg1540
S'ROCKET_FUEL'
p1571
sS'asn'
p1572
I3257
ssg11
(tRp1573
S'LATENCY'
p1574
g11
(tRp1575
S'MEAN'
p1576
F1.592787589819354
ssS'CACHE_HIT_RATIO'
p1577
g11
(tRp1578
S'MEAN_NETWORK_HITS'
p1579
F0.061444996635994606
sS'MEAN_USER_HITS'
p1580
F0.031665420275573321
sg1576
F0.09311041691156792
ssS'OVERHEAD'
p1581
g11
(tRp1582
g1576
F2.0204553085756496
ssS'ABS'
p1583
g11
(tRp1584
S'NUM_UNIQUE'
p1585
I9947
sS'MEAN_ABS_TIME'
p1586
F1225.7224922232692
sS'NUM_ABS'
p1587
I9446
sstp1588
a(g11
(tRp1589
S'workload'
p1590
g11
(tRp1591
S'n_contents'
p1592
I10000
sS'disconnection_rate'
p1593
F0.050000000000000003
sS'name'
p1594
S'STATIONARY_SIT'
p1595
sS'n_warmup'
p1596
I120000
sS'rate'
p1597
I100
sS'n_measured'
p1598
I360000
sS'alpha'
p1599
F0.69999999999999996
ssS'cache_policy'
p1600
g11
(tRp1601
g1594
S'LRU'
p1602
ssS'desc'
p1603
S'strategy: SIT_WITH_SCOPED_FLOODING disconnection rate: 0.05 fan_out: 1, scope: 2'
p1604
sS'strategy'
p1605
g11
(tRp1606
S'fan_out'
p1607
I1
sg1594
S'SIT_WITH_SCOPED_FLOODING'
p1608
sS'scope'
p1609
I2
ssS'content_placement'
p1610
g11
(tRp1611
g1594
S'UNIFORM'
p1612
ssS'joint_cache_rsn_placement'
p1613
g11
(tRp1614
S'network_cache'
p1615
F1
sS'network_rsn'
p1616
F64
sS'rsn_cache_ratio'
p1617
I64
sg1594
S'CACHE_ALL_RSN_ALL_SIT'
p1618
ssS'warmup_strategy'
p1619
g11
(tRp1620
S'p'
F0.5
sg1594
S'NDN'
p1621
ssS'topology'
p1622
g11
(tRp1623
S'ext_delay'
p1624
I2
sS'source_ratio'
p1625
F1
sg1594
S'ROCKET_FUEL'
p1626
sS'asn'
p1627
I3257
ssg11
(tRp1628
S'LATENCY'
p1629
g11
(tRp1630
S'MEAN'
p1631
F2.4944909840774434
ssS'CACHE_HIT_RATIO'
p1632
g11
(tRp1633
S'MEAN_NETWORK_HITS'
p1634
F0.13008811119384461
sS'MEAN_USER_HITS'
p1635
F0.0090796055520552914
sg1631
F0.13916771674589992
ssS'OVERHEAD'
p1636
g11
(tRp1637
g1631
F6.4936678470680027
ssS'ABS'
p1638
g11
(tRp1639
S'NUM_UNIQUE'
p1640
I9941
sS'MEAN_ABS_TIME'
p1641
F226.57591052965267
sS'NUM_ABS'
p1642
I9614
sstp1643
a(g11
(tRp1644
S'workload'
p1645
g11
(tRp1646
S'n_contents'
p1647
I10000
sS'disconnection_rate'
p1648
F0.0001
sS'name'
p1649
S'STATIONARY_SIT'
p1650
sS'n_warmup'
p1651
I120000
sS'rate'
p1652
I100
sS'n_measured'
p1653
I360000
sS'alpha'
p1654
F0.69999999999999996
ssS'cache_policy'
p1655
g11
(tRp1656
g1649
S'LRU'
p1657
ssS'desc'
p1658
S'strategy: SCOPED_FLOODING disconnection rate: 0.0001 scope: 2'
p1659
sS'strategy'
p1660
g11
(tRp1661
S'scope'
p1662
I2
sg1649
S'SCOPED_FLOODING'
p1663
ssS'content_placement'
p1664
g11
(tRp1665
g1649
S'UNIFORM'
p1666
ssS'joint_cache_rsn_placement'
p1667
g11
(tRp1668
S'network_cache'
p1669
F1
sS'network_rsn'
p1670
F64
sS'rsn_cache_ratio'
p1671
I64
sg1649
S'CACHE_ALL_RSN_ALL_SIT'
p1672
ssS'warmup_strategy'
p1673
g11
(tRp1674
S'p'
F0.5
sg1649
S'NDN'
p1675
ssS'topology'
p1676
g11
(tRp1677
S'ext_delay'
p1678
I2
sS'source_ratio'
p1679
F1
sg1649
S'ROCKET_FUEL'
p1680
sS'asn'
p1681
I3257
ssg11
(tRp1682
S'LATENCY'
p1683
g11
(tRp1684
S'MEAN'
p1685
F2.3230670337902133
ssS'CACHE_HIT_RATIO'
p1686
g11
(tRp1687
S'MEAN_NETWORK_HITS'
p1688
F0.078645291076249804
sS'MEAN_USER_HITS'
p1689
F0.35715735234431523
sg1685
F0.43580264342056502
ssS'OVERHEAD'
p1690
g11
(tRp1691
g1685
F4.0199977729637801
ssS'ABS'
p1692
g11
(tRp1693
S'NUM_UNIQUE'
p1694
I9583
sS'MEAN_ABS_TIME'
p1695
F3569.7264579811103
sS'NUM_ABS'
p1696
I214
sstp1697
a(g11
(tRp1698
S'workload'
p1699
g11
(tRp1700
S'n_contents'
p1701
I10000
sS'disconnection_rate'
p1702
F0.0050000000000000001
sS'name'
p1703
S'STATIONARY_SIT'
p1704
sS'n_warmup'
p1705
I120000
sS'rate'
p1706
I100
sS'n_measured'
p1707
I360000
sS'alpha'
p1708
F0.69999999999999996
ssS'cache_policy'
p1709
g11
(tRp1710
g1703
S'LRU'
p1711
ssS'desc'
p1712
S'strategy: SCOPED_FLOODING disconnection rate: 0.005 scope: 1'
p1713
sS'strategy'
p1714
g11
(tRp1715
S'scope'
p1716
I1
sg1703
S'SCOPED_FLOODING'
p1717
ssS'content_placement'
p1718
g11
(tRp1719
g1703
S'UNIFORM'
p1720
ssS'joint_cache_rsn_placement'
p1721
g11
(tRp1722
S'network_cache'
p1723
F1
sS'network_rsn'
p1724
F64
sS'rsn_cache_ratio'
p1725
I64
sg1703
S'CACHE_ALL_RSN_ALL_SIT'
p1726
ssS'warmup_strategy'
p1727
g11
(tRp1728
S'p'
F0.5
sg1703
S'NDN'
p1729
ssS'topology'
p1730
g11
(tRp1731
S'ext_delay'
p1732
I2
sS'source_ratio'
p1733
F1
sg1703
S'ROCKET_FUEL'
p1734
sS'asn'
p1735
I3257
ssg11
(tRp1736
S'LATENCY'
p1737
g11
(tRp1738
S'MEAN'
p1739
F1.4793427689212413
ssS'CACHE_HIT_RATIO'
p1740
g11
(tRp1741
S'MEAN_NETWORK_HITS'
p1742
F0.069651322720355846
sS'MEAN_USER_HITS'
p1743
F0.01761920090522455
sg1739
F0.087270523625580396
ssS'OVERHEAD'
p1744
g11
(tRp1745
g1739
F2.0647311136881226
ssS'ABS'
p1746
g11
(tRp1747
S'NUM_UNIQUE'
p1748
I9937
sS'MEAN_ABS_TIME'
p1749
F860.86838016263084
sS'NUM_ABS'
p1750
I9565
sstp1751
a(g11
(tRp1752
S'workload'
p1753
g11
(tRp1754
S'n_contents'
p1755
I10000
sS'disconnection_rate'
p1756
F0.01
sS'name'
p1757
S'STATIONARY_SIT'
p1758
sS'n_warmup'
p1759
I120000
sS'rate'
p1760
I100
sS'n_measured'
p1761
I360000
sS'alpha'
p1762
F0.69999999999999996
ssS'cache_policy'
p1763
g11
(tRp1764
g1757
S'LRU'
p1765
ssS'desc'
p1766
S'strategy: SIT_WITH_SCOPED_FLOODING disconnection rate: 0.01 fan_out: 1, scope: 2'
p1767
sS'strategy'
p1768
g11
(tRp1769
S'fan_out'
p1770
I1
sg1757
S'SIT_WITH_SCOPED_FLOODING'
p1771
sS'scope'
p1772
I2
ssS'content_placement'
p1773
g11
(tRp1774
g1757
S'UNIFORM'
p1775
ssS'joint_cache_rsn_placement'
p1776
g11
(tRp1777
S'network_cache'
p1778
F1
sS'network_rsn'
p1779
F64
sS'rsn_cache_ratio'
p1780
I64
sg1757
S'CACHE_ALL_RSN_ALL_SIT'
p1781
ssS'warmup_strategy'
p1782
g11
(tRp1783
S'p'
F0.5
sg1757
S'NDN'
p1784
ssS'topology'
p1785
g11
(tRp1786
S'ext_delay'
p1787
I2
sS'source_ratio'
p1788
F1
sg1757
S'ROCKET_FUEL'
p1789
sS'asn'
p1790
I3257
ssg11
(tRp1791
S'LATENCY'
p1792
g11
(tRp1793
S'MEAN'
p1794
F2.8010714993369814
ssS'CACHE_HIT_RATIO'
p1795
g11
(tRp1796
S'MEAN_NETWORK_HITS'
p1797
F0.12857583654145163
sS'MEAN_USER_HITS'
p1798
F0.029581783512883496
sg1794
F0.15815762005433512
ssS'OVERHEAD'
p1799
g11
(tRp1800
g1794
F7.2550336081939975
ssS'ABS'
p1801
g11
(tRp1802
S'NUM_UNIQUE'
p1803
I9954
sS'MEAN_ABS_TIME'
p1804
F394.51634266305786
sS'NUM_ABS'
p1805
I9587
sstp1806
a(g11
(tRp1807
S'workload'
p1808
g11
(tRp1809
S'n_contents'
p1810
I10000
sS'disconnection_rate'
p1811
F0.01
sS'name'
p1812
S'STATIONARY_SIT'
p1813
sS'n_warmup'
p1814
I120000
sS'rate'
p1815
I100
sS'n_measured'
p1816
I360000
sS'alpha'
p1817
F0.69999999999999996
ssS'cache_policy'
p1818
g11
(tRp1819
g1812
S'LRU'
p1820
ssS'desc'
p1821
S'strategy: SCOPED_FLOODING disconnection rate: 0.01 scope: 1'
p1822
sS'strategy'
p1823
g11
(tRp1824
S'scope'
p1825
I1
sg1812
S'SCOPED_FLOODING'
p1826
ssS'content_placement'
p1827
g11
(tRp1828
g1812
S'UNIFORM'
p1829
ssS'joint_cache_rsn_placement'
p1830
g11
(tRp1831
S'network_cache'
p1832
F1
sS'network_rsn'
p1833
F64
sS'rsn_cache_ratio'
p1834
I64
sg1812
S'CACHE_ALL_RSN_ALL_SIT'
p1835
ssS'warmup_strategy'
p1836
g11
(tRp1837
S'p'
F0.5
sg1812
S'NDN'
p1838
ssS'topology'
p1839
g11
(tRp1840
S'ext_delay'
p1841
I2
sS'source_ratio'
p1842
F1
sg1812
S'ROCKET_FUEL'
p1843
sS'asn'
p1844
I3257
ssg11
(tRp1845
S'LATENCY'
p1846
g11
(tRp1847
S'MEAN'
p1848
F1.3858394898733111
ssS'CACHE_HIT_RATIO'
p1849
g11
(tRp1850
S'MEAN_NETWORK_HITS'
p1851
F0.077166130213553313
sS'MEAN_USER_HITS'
p1852
F0.0085997128209081806
sg1848
F0.085765843034461497
ssS'OVERHEAD'
p1853
g11
(tRp1854
g1848
F2.0531896963397847
ssS'ABS'
p1855
g11
(tRp1856
S'NUM_UNIQUE'
p1857
I9952
sS'MEAN_ABS_TIME'
p1858
F686.03273554663042
sS'NUM_ABS'
p1859
I9624
sstp1860
a(g11
(tRp1861
S'workload'
p1862
g11
(tRp1863
S'n_contents'
p1864
I10000
sS'disconnection_rate'
p1865
F0.001
sS'name'
p1866
S'STATIONARY_SIT'
p1867
sS'n_warmup'
p1868
I120000
sS'rate'
p1869
I100
sS'n_measured'
p1870
I360000
sS'alpha'
p1871
F0.69999999999999996
ssS'cache_policy'
p1872
g11
(tRp1873
g1866
S'LRU'
p1874
ssS'desc'
p1875
S'strategy: SIT_WITH_SCOPED_FLOODING disconnection rate: 0.001 fan_out: 100, scope: 1'
p1876
sS'strategy'
p1877
g11
(tRp1878
S'fan_out'
p1879
I100
sg1866
S'SIT_WITH_SCOPED_FLOODING'
p1880
sS'scope'
p1881
I1
ssS'content_placement'
p1882
g11
(tRp1883
g1866
S'UNIFORM'
p1884
ssS'joint_cache_rsn_placement'
p1885
g11
(tRp1886
S'network_cache'
p1887
F1
sS'network_rsn'
p1888
F64
sS'rsn_cache_ratio'
p1889
I64
sg1866
S'CACHE_ALL_RSN_ALL_SIT'
p1890
ssS'warmup_strategy'
p1891
g11
(tRp1892
S'p'
F0.5
sg1866
S'NDN'
p1893
ssS'topology'
p1894
g11
(tRp1895
S'ext_delay'
p1896
I2
sS'source_ratio'
p1897
F1
sg1866
S'ROCKET_FUEL'
p1898
sS'asn'
p1899
I3257
ssg11
(tRp1900
S'LATENCY'
p1901
g11
(tRp1902
S'MEAN'
p1903
F2.9839280077470853
ssS'CACHE_HIT_RATIO'
p1904
g11
(tRp1905
S'MEAN_NETWORK_HITS'
p1906
F0.076333245897028876
sS'MEAN_USER_HITS'
p1907
F0.17638787105218326
sg1903
F0.25272111694921212
ssS'OVERHEAD'
p1908
g11
(tRp1909
g1903
F8.9020325398990945
ssS'ABS'
p1910
g11
(tRp1911
S'NUM_UNIQUE'
p1912
I9934
sS'MEAN_ABS_TIME'
p1913
F2365.7573178109978
sS'NUM_ABS'
p1914
I7284
sstp1915
a(g11
(tRp1916
S'workload'
p1917
g11
(tRp1918
S'n_contents'
p1919
I10000
sS'disconnection_rate'
p1920
F0.01
sS'name'
p1921
S'STATIONARY_SIT'
p1922
sS'n_warmup'
p1923
I120000
sS'rate'
p1924
I100
sS'n_measured'
p1925
I360000
sS'alpha'
p1926
F0.69999999999999996
ssS'cache_policy'
p1927
g11
(tRp1928
g1921
S'LRU'
p1929
ssS'desc'
p1930
S'strategy: SIT_WITH_SCOPED_FLOODING disconnection rate: 0.01 fan_out: 100, scope: 2'
p1931
sS'strategy'
p1932
g11
(tRp1933
S'fan_out'
p1934
I100
sg1921
S'SIT_WITH_SCOPED_FLOODING'
p1935
sS'scope'
p1936
I2
ssS'content_placement'
p1937
g11
(tRp1938
g1921
S'UNIFORM'
p1939
ssS'joint_cache_rsn_placement'
p1940
g11
(tRp1941
S'network_cache'
p1942
F1
sS'network_rsn'
p1943
F64
sS'rsn_cache_ratio'
p1944
I64
sg1921
S'CACHE_ALL_RSN_ALL_SIT'
p1945
ssS'warmup_strategy'
p1946
g11
(tRp1947
S'p'
F0.5
sg1921
S'NDN'
p1948
ssS'topology'
p1949
g11
(tRp1950
S'ext_delay'
p1951
I2
sS'source_ratio'
p1952
F1
sg1921
S'ROCKET_FUEL'
p1953
sS'asn'
p1954
I3257
ssg11
(tRp1955
S'LATENCY'
p1956
g11
(tRp1957
S'MEAN'
p1958
F2.6573340838467412
ssS'CACHE_HIT_RATIO'
p1959
g11
(tRp1960
S'MEAN_NETWORK_HITS'
p1961
F0.12557121647417233
sS'MEAN_USER_HITS'
p1962
F0.030716744114301139
sg1958
F0.15628796058847347
ssS'OVERHEAD'
p1963
g11
(tRp1964
g1958
F12.480696126888171
ssS'ABS'
p1965
g11
(tRp1966
S'NUM_UNIQUE'
p1967
I9951
sS'MEAN_ABS_TIME'
p1968
F376.77544490804894
sS'NUM_ABS'
p1969
I9608
sstp1970
a(g11
(tRp1971
S'workload'
p1972
g11
(tRp1973
S'n_contents'
p1974
I10000
sS'disconnection_rate'
p1975
F0.0025000000000000001
sS'name'
p1976
S'STATIONARY_SIT'
p1977
sS'n_warmup'
p1978
I120000
sS'rate'
p1979
I100
sS'n_measured'
p1980
I360000
sS'alpha'
p1981
F0.69999999999999996
ssS'cache_policy'
p1982
g11
(tRp1983
g1976
S'LRU'
p1984
ssS'desc'
p1985
S'strategy: SCOPED_FLOODING disconnection rate: 0.0025 scope: 2'
p1986
sS'strategy'
p1987
g11
(tRp1988
S'scope'
p1989
I2
sg1976
S'SCOPED_FLOODING'
p1990
ssS'content_placement'
p1991
g11
(tRp1992
g1976
S'UNIFORM'
p1993
ssS'joint_cache_rsn_placement'
p1994
g11
(tRp1995
S'network_cache'
p1996
F1
sS'network_rsn'
p1997
F64
sS'rsn_cache_ratio'
p1998
I64
sg1976
S'CACHE_ALL_RSN_ALL_SIT'
p1999
ssS'warmup_strategy'
p2000
g11
(tRp2001
S'p'
F0.5
sg1976
S'NDN'
p2002
ssS'topology'
p2003
g11
(tRp2004
S'ext_delay'
p2005
I2
sS'source_ratio'
p2006
F1
sg1976
S'ROCKET_FUEL'
p2007
sS'asn'
p2008
I3257
ssg11
(tRp2009
S'LATENCY'
p2010
g11
(tRp2011
S'MEAN'
p2012
F1.9762607272007628
ssS'CACHE_HIT_RATIO'
p2013
g11
(tRp2014
S'MEAN_NETWORK_HITS'
p2015
F0.090751603311239243
sS'MEAN_USER_HITS'
p2016
F0.048194954647321521
sg2012
F0.13894655795856076
ssS'OVERHEAD'
p2017
g11
(tRp2018
g2012
F6.2692549880359101
ssS'ABS'
p2019
g11
(tRp2020
S'NUM_UNIQUE'
p2021
I9936
sS'MEAN_ABS_TIME'
p2022
F927.90677349099644
sS'NUM_ABS'
p2023
I9668
sstp2024
a(g11
(tRp2025
S'workload'
p2026
g11
(tRp2027
S'n_contents'
p2028
I10000
sS'disconnection_rate'
p2029
F0.00050000000000000001
sS'name'
p2030
S'STATIONARY_SIT'
p2031
sS'n_warmup'
p2032
I120000
sS'rate'
p2033
I100
sS'n_measured'
p2034
I360000
sS'alpha'
p2035
F0.69999999999999996
ssS'cache_policy'
p2036
g11
(tRp2037
g2030
S'LRU'
p2038
ssS'desc'
p2039
S'strategy: SIT_WITH_SCOPED_FLOODING disconnection rate: 0.0005 fan_out: 100, scope: 1'
p2040
sS'strategy'
p2041
g11
(tRp2042
S'fan_out'
p2043
I100
sg2030
S'SIT_WITH_SCOPED_FLOODING'
p2044
sS'scope'
p2045
I1
ssS'content_placement'
p2046
g11
(tRp2047
g2030
S'UNIFORM'
p2048
ssS'joint_cache_rsn_placement'
p2049
g11
(tRp2050
S'network_cache'
p2051
F1
sS'network_rsn'
p2052
F64
sS'rsn_cache_ratio'
p2053
I64
sg2030
S'CACHE_ALL_RSN_ALL_SIT'
p2054
ssS'warmup_strategy'
p2055
g11
(tRp2056
S'p'
F0.5
sg2030
S'NDN'
p2057
ssS'topology'
p2058
g11
(tRp2059
S'ext_delay'
p2060
I2
sS'source_ratio'
p2061
F1
sg2030
S'ROCKET_FUEL'
p2062
sS'asn'
p2063
I3257
ssg11
(tRp2064
S'LATENCY'
p2065
g11
(tRp2066
S'MEAN'
p2067
F3.0370460287915981
ssS'CACHE_HIT_RATIO'
p2068
g11
(tRp2069
S'MEAN_NETWORK_HITS'
p2070
F0.069361472209339525
sS'MEAN_USER_HITS'
p2071
F0.27108770286424494
sg2067
F0.34044917507358446
ssS'OVERHEAD'
p2072
g11
(tRp2073
g2067
F9.7804078659868896
ssS'ABS'
p2074
g11
(tRp2075
S'NUM_UNIQUE'
p2076
I9933
sS'MEAN_ABS_TIME'
p2077
F3239.1930831255786
sS'NUM_ABS'
p2078
I2681
sstp2079
a(g11
(tRp2080
S'workload'
p2081
g11
(tRp2082
S'n_contents'
p2083
I10000
sS'disconnection_rate'
p2084
F0.0050000000000000001
sS'name'
p2085
S'STATIONARY_SIT'
p2086
sS'n_warmup'
p2087
I120000
sS'rate'
p2088
I100
sS'n_measured'
p2089
I360000
sS'alpha'
p2090
F0.69999999999999996
ssS'cache_policy'
p2091
g11
(tRp2092
g2085
S'LRU'
p2093
ssS'desc'
p2094
S'strategy: SIT_WITH_SCOPED_FLOODING disconnection rate: 0.005 fan_out: 1, scope: 2'
p2095
sS'strategy'
p2096
g11
(tRp2097
S'fan_out'
p2098
I1
sg2085
S'SIT_WITH_SCOPED_FLOODING'
p2099
sS'scope'
p2100
I2
ssS'content_placement'
p2101
g11
(tRp2102
g2085
S'UNIFORM'
p2103
ssS'joint_cache_rsn_placement'
p2104
g11
(tRp2105
S'network_cache'
p2106
F1
sS'network_rsn'
p2107
F64
sS'rsn_cache_ratio'
p2108
I64
sg2085
S'CACHE_ALL_RSN_ALL_SIT'
p2109
ssS'warmup_strategy'
p2110
g11
(tRp2111
S'p'
F0.5
sg2085
S'NDN'
p2112
ssS'topology'
p2113
g11
(tRp2114
S'ext_delay'
p2115
I2
sS'source_ratio'
p2116
F1
sg2085
S'ROCKET_FUEL'
p2117
sS'asn'
p2118
I3257
ssg11
(tRp2119
S'LATENCY'
p2120
g11
(tRp2121
S'MEAN'
p2122
F3.1363126327460225
ssS'CACHE_HIT_RATIO'
p2123
g11
(tRp2124
S'MEAN_NETWORK_HITS'
p2125
F0.12247167581844721
sS'MEAN_USER_HITS'
p2126
F0.060102992589557577
sg2122
F0.18257466840800479
ssS'OVERHEAD'
p2127
g11
(tRp2128
g2122
F7.9272318029414519
ssS'ABS'
p2129
g11
(tRp2130
S'NUM_UNIQUE'
p2131
I9940
sS'MEAN_ABS_TIME'
p2132
F639.11534663486884
sS'NUM_ABS'
p2133
I9494
sstp2134
a(g11
(tRp2135
S'workload'
p2136
g11
(tRp2137
S'n_contents'
p2138
I10000
sS'disconnection_rate'
p2139
F0.0050000000000000001
sS'name'
p2140
S'STATIONARY_SIT'
p2141
sS'n_warmup'
p2142
I120000
sS'rate'
p2143
I100
sS'n_measured'
p2144
I360000
sS'alpha'
p2145
F0.69999999999999996
ssS'cache_policy'
p2146
g11
(tRp2147
g2140
S'LRU'
p2148
ssS'desc'
p2149
S'strategy: SIT_WITH_SCOPED_FLOODING disconnection rate: 0.005 fan_out: 100, scope: 2'
p2150
sS'strategy'
p2151
g11
(tRp2152
S'fan_out'
p2153
I100
sg2140
S'SIT_WITH_SCOPED_FLOODING'
p2154
sS'scope'
p2155
I2
ssS'content_placement'
p2156
g11
(tRp2157
g2140
S'UNIFORM'
p2158
ssS'joint_cache_rsn_placement'
p2159
g11
(tRp2160
S'network_cache'
p2161
F1
sS'network_rsn'
p2162
F64
sS'rsn_cache_ratio'
p2163
I64
sg2140
S'CACHE_ALL_RSN_ALL_SIT'
p2164
ssS'warmup_strategy'
p2165
g11
(tRp2166
S'p'
F0.5
sg2140
S'NDN'
p2167
ssS'topology'
p2168
g11
(tRp2169
S'ext_delay'
p2170
I2
sS'source_ratio'
p2171
F1
sg2140
S'ROCKET_FUEL'
p2172
sS'asn'
p2173
I3257
ssg11
(tRp2174
S'LATENCY'
p2175
g11
(tRp2176
S'MEAN'
p2177
F2.9601710808586423
ssS'CACHE_HIT_RATIO'
p2178
g11
(tRp2179
S'MEAN_NETWORK_HITS'
p2180
F0.11962493750990696
sS'MEAN_USER_HITS'
p2181
F0.061119578603392143
sg2177
F0.18074451611329911
ssS'OVERHEAD'
p2182
g11
(tRp2183
g2177
F13.510024690691743
ssS'ABS'
p2184
g11
(tRp2185
S'NUM_UNIQUE'
p2186
I9949
sS'MEAN_ABS_TIME'
p2187
F622.78226870143101
sS'NUM_ABS'
p2188
I9550
sstp2189
a(g11
(tRp2190
S'workload'
p2191
g11
(tRp2192
S'n_contents'
p2193
I10000
sS'disconnection_rate'
p2194
F0.0001
sS'name'
p2195
S'STATIONARY_SIT'
p2196
sS'n_warmup'
p2197
I120000
sS'rate'
p2198
I100
sS'n_measured'
p2199
I360000
sS'alpha'
p2200
F0.69999999999999996
ssS'cache_policy'
p2201
g11
(tRp2202
g2195
S'LRU'
p2203
ssS'desc'
p2204
S'strategy: SIT_WITH_SCOPED_FLOODING disconnection rate: 0.0001 fan_out: 100, scope: 1'
p2205
sS'strategy'
p2206
g11
(tRp2207
S'fan_out'
p2208
I100
sg2195
S'SIT_WITH_SCOPED_FLOODING'
p2209
sS'scope'
p2210
I1
ssS'content_placement'
p2211
g11
(tRp2212
g2195
S'UNIFORM'
p2213
ssS'joint_cache_rsn_placement'
p2214
g11
(tRp2215
S'network_cache'
p2216
F1
sS'network_rsn'
p2217
F64
sS'rsn_cache_ratio'
p2218
I64
sg2195
S'CACHE_ALL_RSN_ALL_SIT'
p2219
ssS'warmup_strategy'
p2220
g11
(tRp2221
S'p'
F0.5
sg2195
S'NDN'
p2222
ssS'topology'
p2223
g11
(tRp2224
S'ext_delay'
p2225
I2
sS'source_ratio'
p2226
F1
sg2195
S'ROCKET_FUEL'
p2227
sS'asn'
p2228
I3257
ssg11
(tRp2229
S'LATENCY'
p2230
g11
(tRp2231
S'MEAN'
p2232
F2.8503209191759113
ssS'CACHE_HIT_RATIO'
p2233
g11
(tRp2234
S'MEAN_NETWORK_HITS'
p2235
F0.072931019658592611
sS'MEAN_USER_HITS'
p2236
F0.48351495724140364
sg2232
F0.5564459768999962
ssS'OVERHEAD'
p2237
g11
(tRp2238
g2232
F10.902210776545166
ssS'ABS'
p2239
g11
(tRp2240
S'NUM_UNIQUE'
p2241
I9833
sS'MEAN_ABS_TIME'
p2242
F3578.0618842274366
sS'NUM_ABS'
p2243
I129
sstp2244
a(g11
(tRp2245
S'workload'
p2246
g11
(tRp2247
S'n_contents'
p2248
I10000
sS'disconnection_rate'
p2249
F0.0050000000000000001
sS'name'
p2250
S'STATIONARY_SIT'
p2251
sS'n_warmup'
p2252
I120000
sS'rate'
p2253
I100
sS'n_measured'
p2254
I360000
sS'alpha'
p2255
F0.69999999999999996
ssS'cache_policy'
p2256
g11
(tRp2257
g2250
S'LRU'
p2258
ssS'desc'
p2259
S'strategy: SCOPED_FLOODING disconnection rate: 0.005 scope: 2'
p2260
sS'strategy'
p2261
g11
(tRp2262
S'scope'
p2263
I2
sg2250
S'SCOPED_FLOODING'
p2264
ssS'content_placement'
p2265
g11
(tRp2266
g2250
S'UNIFORM'
p2267
ssS'joint_cache_rsn_placement'
p2268
g11
(tRp2269
S'network_cache'
p2270
F1
sS'network_rsn'
p2271
F64
sS'rsn_cache_ratio'
p2272
I64
sg2250
S'CACHE_ALL_RSN_ALL_SIT'
p2273
ssS'warmup_strategy'
p2274
g11
(tRp2275
S'p'
F0.5
sg2250
S'NDN'
p2276
ssS'topology'
p2277
g11
(tRp2278
S'ext_delay'
p2279
I2
sS'source_ratio'
p2280
F1
sg2250
S'ROCKET_FUEL'
p2281
sS'asn'
p2282
I3257
ssg11
(tRp2283
S'LATENCY'
p2284
g11
(tRp2285
S'MEAN'
p2286
F1.8198746571091045
ssS'CACHE_HIT_RATIO'
p2287
g11
(tRp2288
S'MEAN_NETWORK_HITS'
p2289
F0.09757031454823703
sS'MEAN_USER_HITS'
p2290
F0.024232225494320574
sg2286
F0.1218025400425576
ssS'OVERHEAD'
p2291
g11
(tRp2292
g2286
F6.8007628696714253
ssS'ABS'
p2293
g11
(tRp2294
S'NUM_UNIQUE'
p2295
I9948
sS'MEAN_ABS_TIME'
p2296
F517.51941849254888
sS'NUM_ABS'
p2297
I9744
sstp2298
a(g11
(tRp2299
S'workload'
p2300
g11
(tRp2301
S'n_contents'
p2302
I10000
sS'disconnection_rate'
p2303
F0.00050000000000000001
sS'name'
p2304
S'STATIONARY_SIT'
p2305
sS'n_warmup'
p2306
I120000
sS'rate'
p2307
I100
sS'n_measured'
p2308
I360000
sS'alpha'
p2309
F0.69999999999999996
ssS'cache_policy'
p2310
g11
(tRp2311
g2304
S'LRU'
p2312
ssS'desc'
p2313
S'strategy: SCOPED_FLOODING disconnection rate: 0.0005 scope: 2'
p2314
sS'strategy'
p2315
g11
(tRp2316
S'scope'
p2317
I2
sg2304
S'SCOPED_FLOODING'
p2318
ssS'content_placement'
p2319
g11
(tRp2320
g2304
S'UNIFORM'
p2321
ssS'joint_cache_rsn_placement'
p2322
g11
(tRp2323
S'network_cache'
p2324
F1
sS'network_rsn'
p2325
F64
sS'rsn_cache_ratio'
p2326
I64
sg2304
S'CACHE_ALL_RSN_ALL_SIT'
p2327
ssS'warmup_strategy'
p2328
g11
(tRp2329
S'p'
F0.5
sg2304
S'NDN'
p2330
ssS'topology'
p2331
g11
(tRp2332
S'ext_delay'
p2333
I2
sS'source_ratio'
p2334
F1
sg2304
S'ROCKET_FUEL'
p2335
sS'asn'
p2336
I3257
ssg11
(tRp2337
S'LATENCY'
p2338
g11
(tRp2339
S'MEAN'
p2340
F2.2805433707674294
ssS'CACHE_HIT_RATIO'
p2341
g11
(tRp2342
S'MEAN_NETWORK_HITS'
p2343
F0.072431243326265674
sS'MEAN_USER_HITS'
p2344
F0.17971429533014524
sg2340
F0.25214553865641093
ssS'OVERHEAD'
p2345
g11
(tRp2346
g2340
F4.4596445884372935
ssS'ABS'
p2347
g11
(tRp2348
S'NUM_UNIQUE'
p2349
I9919
sS'MEAN_ABS_TIME'
p2350
F3069.4153309077728
sS'NUM_ABS'
p2351
I4003
sstp2352
a(g11
(tRp2353
S'workload'
p2354
g11
(tRp2355
S'n_contents'
p2356
I10000
sS'disconnection_rate'
p2357
F0.050000000000000003
sS'name'
p2358
S'STATIONARY_SIT'
p2359
sS'n_warmup'
p2360
I120000
sS'rate'
p2361
I100
sS'n_measured'
p2362
I360000
sS'alpha'
p2363
F0.69999999999999996
ssS'cache_policy'
p2364
g11
(tRp2365
g2358
S'LRU'
p2366
ssS'desc'
p2367
S'strategy: SCOPED_FLOODING disconnection rate: 0.05 scope: 1'
p2368
sS'strategy'
p2369
g11
(tRp2370
S'scope'
p2371
I1
sg2358
S'SCOPED_FLOODING'
p2372
ssS'content_placement'
p2373
g11
(tRp2374
g2358
S'UNIFORM'
p2375
ssS'joint_cache_rsn_placement'
p2376
g11
(tRp2377
S'network_cache'
p2378
F1
sS'network_rsn'
p2379
F64
sS'rsn_cache_ratio'
p2380
I64
sg2358
S'CACHE_ALL_RSN_ALL_SIT'
p2381
ssS'warmup_strategy'
p2382
g11
(tRp2383
S'p'
F0.5
sg2358
S'NDN'
p2384
ssS'topology'
p2385
g11
(tRp2386
S'ext_delay'
p2387
I2
sS'source_ratio'
p2388
F1
sg2358
S'ROCKET_FUEL'
p2389
sS'asn'
p2390
I3257
ssg11
(tRp2391
S'LATENCY'
p2392
g11
(tRp2393
S'MEAN'
p2394
F1.3259680375758964
ssS'CACHE_HIT_RATIO'
p2395
g11
(tRp2396
S'MEAN_NETWORK_HITS'
p2397
F0.080931277087271131
sS'MEAN_USER_HITS'
p2398
F0.0023972831586383334
sg2394
F0.083328560245909469
ssS'OVERHEAD'
p2399
g11
(tRp2400
g2394
F2.0637386871348378
ssS'ABS'
p2401
g11
(tRp2402
S'NUM_UNIQUE'
p2403
I9945
sS'MEAN_ABS_TIME'
p2404
F552.50466971517062
sS'NUM_ABS'
p2405
I9615
sstp2406
a(g11
(tRp2407
S'workload'
p2408
g11
(tRp2409
S'n_contents'
p2410
I10000
sS'disconnection_rate'
p2411
F0.001
sS'name'
p2412
S'STATIONARY_SIT'
p2413
sS'n_warmup'
p2414
I120000
sS'rate'
p2415
I100
sS'n_measured'
p2416
I360000
sS'alpha'
p2417
F0.69999999999999996
ssS'cache_policy'
p2418
g11
(tRp2419
g2412
S'LRU'
p2420
ssS'desc'
p2421
S'strategy: SCOPED_FLOODING disconnection rate: 0.001 scope: 2'
p2422
sS'strategy'
p2423
g11
(tRp2424
S'scope'
p2425
I2
sg2412
S'SCOPED_FLOODING'
p2426
ssS'content_placement'
p2427
g11
(tRp2428
g2412
S'UNIFORM'
p2429
ssS'joint_cache_rsn_placement'
p2430
g11
(tRp2431
S'network_cache'
p2432
F1
sS'network_rsn'
p2433
F64
sS'rsn_cache_ratio'
p2434
I64
sg2412
S'CACHE_ALL_RSN_ALL_SIT'
p2435
ssS'warmup_strategy'
p2436
g11
(tRp2437
S'p'
F0.5
sg2412
S'NDN'
p2438
ssS'topology'
p2439
g11
(tRp2440
S'ext_delay'
p2441
I2
sS'source_ratio'
p2442
F1
sg2412
S'ROCKET_FUEL'
p2443
sS'asn'
p2444
I3257
ssg11
(tRp2445
S'LATENCY'
p2446
g11
(tRp2447
S'MEAN'
p2448
F2.1946055994134355
ssS'CACHE_HIT_RATIO'
p2449
g11
(tRp2450
S'MEAN_NETWORK_HITS'
p2451
F0.079432871733037785
sS'MEAN_USER_HITS'
p2452
F0.11067310281737219
sg2448
F0.19010597455040998
ssS'OVERHEAD'
p2453
g11
(tRp2454
g2448
F5.0423479665999897
ssS'ABS'
p2455
g11
(tRp2456
S'NUM_UNIQUE'
p2457
I9949
sS'MEAN_ABS_TIME'
p2458
F2100.9244021620816
sS'NUM_ABS'
p2459
I8300
sstp2460
a(g11
(tRp2461
S'workload'
p2462
g11
(tRp2463
S'n_contents'
p2464
I10000
sS'disconnection_rate'
p2465
F0.050000000000000003
sS'name'
p2466
S'STATIONARY_SIT'
p2467
sS'n_warmup'
p2468
I120000
sS'rate'
p2469
I100
sS'n_measured'
p2470
I360000
sS'alpha'
p2471
F0.69999999999999996
ssS'cache_policy'
p2472
g11
(tRp2473
g2466
S'LRU'
p2474
ssS'desc'
p2475
S'strategy: SIT_WITH_SCOPED_FLOODING disconnection rate: 0.05 fan_out: 100, scope: 2'
p2476
sS'strategy'
p2477
g11
(tRp2478
S'fan_out'
p2479
I100
sg2466
S'SIT_WITH_SCOPED_FLOODING'
p2480
sS'scope'
p2481
I2
ssS'content_placement'
p2482
g11
(tRp2483
g2466
S'UNIFORM'
p2484
ssS'joint_cache_rsn_placement'
p2485
g11
(tRp2486
S'network_cache'
p2487
F1
sS'network_rsn'
p2488
F64
sS'rsn_cache_ratio'
p2489
I64
sg2466
S'CACHE_ALL_RSN_ALL_SIT'
p2490
ssS'warmup_strategy'
p2491
g11
(tRp2492
S'p'
F0.5
sg2466
S'NDN'
p2493
ssS'topology'
p2494
g11
(tRp2495
S'ext_delay'
p2496
I2
sS'source_ratio'
p2497
F1
sg2466
S'ROCKET_FUEL'
p2498
sS'asn'
p2499
I3257
ssg11
(tRp2500
S'LATENCY'
p2501
g11
(tRp2502
S'MEAN'
p2503
F2.3402305516017363
ssS'CACHE_HIT_RATIO'
p2504
g11
(tRp2505
S'MEAN_NETWORK_HITS'
p2506
F0.12535426568703378
sS'MEAN_USER_HITS'
p2507
F0.01046180135823227
sg2503
F0.13581606704526605
ssS'OVERHEAD'
p2508
g11
(tRp2509
g2503
F11.654726132110286
ssS'ABS'
p2510
g11
(tRp2511
S'NUM_UNIQUE'
p2512
I9951
sS'MEAN_ABS_TIME'
p2513
F199.1807872594114
sS'NUM_ABS'
p2514
I9656
sstp2515
a(g11
(tRp2516
S'workload'
p2517
g11
(tRp2518
S'n_contents'
p2519
I10000
sS'disconnection_rate'
p2520
F0.0025000000000000001
sS'name'
p2521
S'STATIONARY_SIT'
p2522
sS'n_warmup'
p2523
I120000
sS'rate'
p2524
I100
sS'n_measured'
p2525
I360000
sS'alpha'
p2526
F0.69999999999999996
ssS'cache_policy'
p2527
g11
(tRp2528
g2521
S'LRU'
p2529
ssS'desc'
p2530
S'strategy: SIT_WITH_SCOPED_FLOODING disconnection rate: 0.0025 fan_out: 1, scope: 2'
p2531
sS'strategy'
p2532
g11
(tRp2533
S'fan_out'
p2534
I1
sg2521
S'SIT_WITH_SCOPED_FLOODING'
p2535
sS'scope'
p2536
I2
ssS'content_placement'
p2537
g11
(tRp2538
g2521
S'UNIFORM'
p2539
ssS'joint_cache_rsn_placement'
p2540
g11
(tRp2541
S'network_cache'
p2542
F1
sS'network_rsn'
p2543
F64
sS'rsn_cache_ratio'
p2544
I64
sg2521
S'CACHE_ALL_RSN_ALL_SIT'
p2545
ssS'warmup_strategy'
p2546
g11
(tRp2547
S'p'
F0.5
sg2521
S'NDN'
p2548
ssS'topology'
p2549
g11
(tRp2550
S'ext_delay'
p2551
I2
sS'source_ratio'
p2552
F1
sg2521
S'ROCKET_FUEL'
p2553
sS'asn'
p2554
I3257
ssg11
(tRp2555
S'LATENCY'
p2556
g11
(tRp2557
S'MEAN'
p2558
F3.6483560268390769
ssS'CACHE_HIT_RATIO'
p2559
g11
(tRp2560
S'MEAN_NETWORK_HITS'
p2561
F0.1139458375727153
sS'MEAN_USER_HITS'
p2562
F0.12133423662376037
sg2558
F0.23528007419647567
ssS'OVERHEAD'
p2563
g11
(tRp2564
g2558
F9.226373696429425
ssS'ABS'
p2565
g11
(tRp2566
S'NUM_UNIQUE'
p2567
I9939
sS'MEAN_ABS_TIME'
p2568
F1223.111763194227
sS'NUM_ABS'
p2569
I9183
sstp2570
a(g11
(tRp2571
S'workload'
p2572
g11
(tRp2573
S'n_contents'
p2574
I10000
sS'disconnection_rate'
p2575
F0.050000000000000003
sS'name'
p2576
S'STATIONARY_SIT'
p2577
sS'n_warmup'
p2578
I120000
sS'rate'
p2579
I100
sS'n_measured'
p2580
I360000
sS'alpha'
p2581
F0.69999999999999996
ssS'cache_policy'
p2582
g11
(tRp2583
g2576
S'LRU'
p2584
ssS'desc'
p2585
S'strategy: SCOPED_FLOODING disconnection rate: 0.05 scope: 2'
p2586
sS'strategy'
p2587
g11
(tRp2588
S'scope'
p2589
I2
sg2576
S'SCOPED_FLOODING'
p2590
ssS'content_placement'
p2591
g11
(tRp2592
g2576
S'UNIFORM'
p2593
ssS'joint_cache_rsn_placement'
p2594
g11
(tRp2595
S'network_cache'
p2596
F1
sS'network_rsn'
p2597
F64
sS'rsn_cache_ratio'
p2598
I64
sg2576
S'CACHE_ALL_RSN_ALL_SIT'
p2599
ssS'warmup_strategy'
p2600
g11
(tRp2601
S'p'
F0.5
sg2576
S'NDN'
p2602
ssS'topology'
p2603
g11
(tRp2604
S'ext_delay'
p2605
I2
sS'source_ratio'
p2606
F1
sg2576
S'ROCKET_FUEL'
p2607
sS'asn'
p2608
I3257
ssg11
(tRp2609
S'LATENCY'
p2610
g11
(tRp2611
S'MEAN'
p2612
F1.6267718611959652
ssS'CACHE_HIT_RATIO'
p2613
g11
(tRp2614
S'MEAN_NETWORK_HITS'
p2615
F0.1062777374035344
sS'MEAN_USER_HITS'
p2616
F0.0023222151020354585
sg2612
F0.10859995250556985
ssS'OVERHEAD'
p2617
g11
(tRp2618
g2612
F7.2476979539810564
ssS'ABS'
p2619
g11
(tRp2620
S'NUM_UNIQUE'
p2621
I9956
sS'MEAN_ABS_TIME'
p2622
F219.49108165909146
sS'NUM_ABS'
p2623
I9775
sstp2624
a(g11
(tRp2625
S'workload'
p2626
g11
(tRp2627
S'n_contents'
p2628
I10000
sS'disconnection_rate'
p2629
F0.0025000000000000001
sS'name'
p2630
S'STATIONARY_SIT'
p2631
sS'n_warmup'
p2632
I120000
sS'rate'
p2633
I100
sS'n_measured'
p2634
I360000
sS'alpha'
p2635
F0.69999999999999996
ssS'cache_policy'
p2636
g11
(tRp2637
g2630
S'LRU'
p2638
ssS'desc'
p2639
S'strategy: SIT_WITH_SCOPED_FLOODING disconnection rate: 0.0025 fan_out: 100, scope: 2'
p2640
sS'strategy'
p2641
g11
(tRp2642
S'fan_out'
p2643
I100
sg2630
S'SIT_WITH_SCOPED_FLOODING'
p2644
sS'scope'
p2645
I2
ssS'content_placement'
p2646
g11
(tRp2647
g2630
S'UNIFORM'
p2648
ssS'joint_cache_rsn_placement'
p2649
g11
(tRp2650
S'network_cache'
p2651
F1
sS'network_rsn'
p2652
F64
sS'rsn_cache_ratio'
p2653
I64
sg2630
S'CACHE_ALL_RSN_ALL_SIT'
p2654
ssS'warmup_strategy'
p2655
g11
(tRp2656
S'p'
F0.5
sg2630
S'NDN'
p2657
ssS'topology'
p2658
g11
(tRp2659
S'ext_delay'
p2660
I2
sS'source_ratio'
p2661
F1
sg2630
S'ROCKET_FUEL'
p2662
sS'asn'
p2663
I3257
ssg11
(tRp2664
S'LATENCY'
p2665
g11
(tRp2666
S'MEAN'
p2667
F3.4746178192424648
ssS'CACHE_HIT_RATIO'
p2668
g11
(tRp2669
S'MEAN_NETWORK_HITS'
p2670
F0.11041694791526042
sS'MEAN_USER_HITS'
p2671
F0.13128684356578216
sg2667
F0.2417037914810426
ssS'OVERHEAD'
p2672
g11
(tRp2673
g2667
F16.393687553008832
ssS'ABS'
p2674
g11
(tRp2675
S'NUM_UNIQUE'
p2676
I9941
sS'MEAN_ABS_TIME'
p2677
F1254.584158461478
sS'NUM_ABS'
p2678
I9150
sstp2679
a(g11
(tRp2680
S'workload'
p2681
g11
(tRp2682
S'n_contents'
p2683
I10000
sS'disconnection_rate'
p2684
F0.01
sS'name'
p2685
S'STATIONARY_SIT'
p2686
sS'n_warmup'
p2687
I120000
sS'rate'
p2688
I100
sS'n_measured'
p2689
I360000
sS'alpha'
p2690
F0.69999999999999996
ssS'cache_policy'
p2691
g11
(tRp2692
g2685
S'LRU'
p2693
ssS'desc'
p2694
S'strategy: SCOPED_FLOODING disconnection rate: 0.01 scope: 2'
p2695
sS'strategy'
p2696
g11
(tRp2697
S'scope'
p2698
I2
sg2685
S'SCOPED_FLOODING'
p2699
ssS'content_placement'
p2700
g11
(tRp2701
g2685
S'UNIFORM'
p2702
ssS'joint_cache_rsn_placement'
p2703
g11
(tRp2704
S'network_cache'
p2705
F1
sS'network_rsn'
p2706
F64
sS'rsn_cache_ratio'
p2707
I64
sg2685
S'CACHE_ALL_RSN_ALL_SIT'
p2708
ssS'warmup_strategy'
p2709
g11
(tRp2710
S'p'
F0.5
sg2685
S'NDN'
p2711
ssS'topology'
p2712
g11
(tRp2713
S'ext_delay'
p2714
I2
sS'source_ratio'
p2715
F1
sg2685
S'ROCKET_FUEL'
p2716
sS'asn'
p2717
I3257
ssg11
(tRp2718
S'LATENCY'
p2719
g11
(tRp2720
S'MEAN'
p2721
F1.7168695579106579
ssS'CACHE_HIT_RATIO'
p2722
g11
(tRp2723
S'MEAN_NETWORK_HITS'
p2724
F0.1037602392594717
sS'MEAN_USER_HITS'
p2725
F0.010961640884257507
sg2721
F0.11472188014372919
ssS'OVERHEAD'
p2726
g11
(tRp2727
g2721
F7.1663007972102895
ssS'ABS'
p2728
g11
(tRp2729
S'NUM_UNIQUE'
p2730
I9947
sS'MEAN_ABS_TIME'
p2731
F341.95851086872585
sS'NUM_ABS'
p2732
I9754
sstp2733
a(g11
(tRp2734
S'workload'
p2735
g11
(tRp2736
S'n_contents'
p2737
I10000
sS'disconnection_rate'
p2738
F0.0001
sS'name'
p2739
S'STATIONARY_SIT'
p2740
sS'n_warmup'
p2741
I120000
sS'rate'
p2742
I100
sS'n_measured'
p2743
I360000
sS'alpha'
p2744
F0.69999999999999996
ssS'cache_policy'
p2745
g11
(tRp2746
g2739
S'LRU'
p2747
ssS'desc'
p2748
S'strategy: SIT_WITH_SCOPED_FLOODING disconnection rate: 0.0001 fan_out: 1, scope: 2'
p2749
sS'strategy'
p2750
g11
(tRp2751
S'fan_out'
p2752
I1
sg2739
S'SIT_WITH_SCOPED_FLOODING'
p2753
sS'scope'
p2754
I2
ssS'content_placement'
p2755
g11
(tRp2756
g2739
S'UNIFORM'
p2757
ssS'joint_cache_rsn_placement'
p2758
g11
(tRp2759
S'network_cache'
p2760
F1
sS'network_rsn'
p2761
F64
sS'rsn_cache_ratio'
p2762
I64
sg2739
S'CACHE_ALL_RSN_ALL_SIT'
p2763
ssS'warmup_strategy'
p2764
g11
(tRp2765
S'p'
F0.5
sg2739
S'NDN'
p2766
ssS'topology'
p2767
g11
(tRp2768
S'ext_delay'
p2769
I2
sS'source_ratio'
p2770
F1
sg2739
S'ROCKET_FUEL'
p2771
sS'asn'
p2772
I3257
ssg11
(tRp2773
S'LATENCY'
p2774
g11
(tRp2775
S'MEAN'
p2776
F4.0706217063384598
ssS'CACHE_HIT_RATIO'
p2777
g11
(tRp2778
S'MEAN_NETWORK_HITS'
p2779
F0.094336546405948768
sS'MEAN_USER_HITS'
p2780
F0.61348168548609194
sg2776
F0.70781823189204074
ssS'OVERHEAD'
p2781
g11
(tRp2782
g2776
F12.411385135450615
ssS'ABS'
p2783
g11
(tRp2784
S'NUM_UNIQUE'
p2785
I9902
sS'MEAN_ABS_TIME'
p2786
F3588.393653978746
sS'NUM_ABS'
p2787
I51
sstp2788
a(g11
(tRp2789
S'workload'
p2790
g11
(tRp2791
S'n_contents'
p2792
I10000
sS'disconnection_rate'
p2793
F0.001
sS'name'
p2794
S'STATIONARY_SIT'
p2795
sS'n_warmup'
p2796
I120000
sS'rate'
p2797
I100
sS'n_measured'
p2798
I360000
sS'alpha'
p2799
F0.69999999999999996
ssS'cache_policy'
p2800
g11
(tRp2801
g2794
S'LRU'
p2802
ssS'desc'
p2803
S'strategy: SIT_WITH_SCOPED_FLOODING disconnection rate: 0.001 fan_out: 1, scope: 2'
p2804
sS'strategy'
p2805
g11
(tRp2806
S'fan_out'
p2807
I1
sg2794
S'SIT_WITH_SCOPED_FLOODING'
p2808
sS'scope'
p2809
I2
ssS'content_placement'
p2810
g11
(tRp2811
g2794
S'UNIFORM'
p2812
ssS'joint_cache_rsn_placement'
p2813
g11
(tRp2814
S'network_cache'
p2815
F1
sS'network_rsn'
p2816
F64
sS'rsn_cache_ratio'
p2817
I64
sg2794
S'CACHE_ALL_RSN_ALL_SIT'
p2818
ssS'warmup_strategy'
p2819
g11
(tRp2820
S'p'
F0.5
sg2794
S'NDN'
p2821
ssS'topology'
p2822
g11
(tRp2823
S'ext_delay'
p2824
I2
sS'source_ratio'
p2825
F1
sg2794
S'ROCKET_FUEL'
p2826
sS'asn'
p2827
I3257
ssg11
(tRp2828
S'LATENCY'
p2829
g11
(tRp2830
S'MEAN'
p2831
F4.2526920019796339
ssS'CACHE_HIT_RATIO'
p2832
g11
(tRp2833
S'MEAN_NETWORK_HITS'
p2834
F0.095912945136172031
sS'MEAN_USER_HITS'
p2835
F0.26489829710556645
sg2831
F0.36081124224173849
ssS'OVERHEAD'
p2836
g11
(tRp2837
g2831
F11.02178347005804
ssS'ABS'
p2838
g11
(tRp2839
S'NUM_UNIQUE'
p2840
I9953
sS'MEAN_ABS_TIME'
p2841
F2685.3511061744334
sS'NUM_ABS'
p2842
I5607
sstp2843
a(g11
(tRp2844
S'workload'
p2845
g11
(tRp2846
S'n_contents'
p2847
I10000
sS'disconnection_rate'
p2848
F0.00050000000000000001
sS'name'
p2849
S'STATIONARY_SIT'
p2850
sS'n_warmup'
p2851
I120000
sS'rate'
p2852
I100
sS'n_measured'
p2853
I360000
sS'alpha'
p2854
F0.69999999999999996
ssS'cache_policy'
p2855
g11
(tRp2856
g2849
S'LRU'
p2857
ssS'desc'
p2858
S'strategy: SIT_WITH_SCOPED_FLOODING disconnection rate: 0.0005 fan_out: 1, scope: 2'
p2859
sS'strategy'
p2860
g11
(tRp2861
S'fan_out'
p2862
I1
sg2849
S'SIT_WITH_SCOPED_FLOODING'
p2863
sS'scope'
p2864
I2
ssS'content_placement'
p2865
g11
(tRp2866
g2849
S'UNIFORM'
p2867
ssS'joint_cache_rsn_placement'
p2868
g11
(tRp2869
S'network_cache'
p2870
F1
sS'network_rsn'
p2871
F64
sS'rsn_cache_ratio'
p2872
I64
sg2849
S'CACHE_ALL_RSN_ALL_SIT'
p2873
ssS'warmup_strategy'
p2874
g11
(tRp2875
S'p'
F0.5
sg2849
S'NDN'
p2876
ssS'topology'
p2877
g11
(tRp2878
S'ext_delay'
p2879
I2
sS'source_ratio'
p2880
F1
sg2849
S'ROCKET_FUEL'
p2881
sS'asn'
p2882
I3257
ssg11
(tRp2883
S'LATENCY'
p2884
g11
(tRp2885
S'MEAN'
p2886
F4.3053034193449422
ssS'CACHE_HIT_RATIO'
p2887
g11
(tRp2888
S'MEAN_NETWORK_HITS'
p2889
F0.088078110672094076
sS'MEAN_USER_HITS'
p2890
F0.37099966780307614
sg2886
F0.45907777847517017
ssS'OVERHEAD'
p2891
g11
(tRp2892
g2886
F11.883214064198585
ssS'ABS'
p2893
g11
(tRp2894
S'NUM_UNIQUE'
p2895
I9935
sS'MEAN_ABS_TIME'
p2896
F3368.7364276952962
sS'NUM_ABS'
p2897
I1619
sstp2898
a(g11
(tRp2899
S'workload'
p2900
g11
(tRp2901
S'n_contents'
p2902
I10000
sS'disconnection_rate'
p2903
F0.001
sS'name'
p2904
S'STATIONARY_SIT'
p2905
sS'n_warmup'
p2906
I120000
sS'rate'
p2907
I100
sS'n_measured'
p2908
I360000
sS'alpha'
p2909
F0.69999999999999996
ssS'cache_policy'
p2910
g11
(tRp2911
g2904
S'LRU'
p2912
ssS'desc'
p2913
S'strategy: SIT_WITH_SCOPED_FLOODING disconnection rate: 0.001 fan_out: 100, scope: 2'
p2914
sS'strategy'
p2915
g11
(tRp2916
S'fan_out'
p2917
I100
sg2904
S'SIT_WITH_SCOPED_FLOODING'
p2918
sS'scope'
p2919
I2
ssS'content_placement'
p2920
g11
(tRp2921
g2904
S'UNIFORM'
p2922
ssS'joint_cache_rsn_placement'
p2923
g11
(tRp2924
S'network_cache'
p2925
F1
sS'network_rsn'
p2926
F64
sS'rsn_cache_ratio'
p2927
I64
sg2904
S'CACHE_ALL_RSN_ALL_SIT'
p2928
ssS'warmup_strategy'
p2929
g11
(tRp2930
S'p'
F0.5
sg2904
S'NDN'
p2931
ssS'topology'
p2932
g11
(tRp2933
S'ext_delay'
p2934
I2
sS'source_ratio'
p2935
F1
sg2904
S'ROCKET_FUEL'
p2936
sS'asn'
p2937
I3257
ssg11
(tRp2938
S'LATENCY'
p2939
g11
(tRp2940
S'MEAN'
p2941
F3.8386621240909387
ssS'CACHE_HIT_RATIO'
p2942
g11
(tRp2943
S'MEAN_NETWORK_HITS'
p2944
F0.090623482745049777
sS'MEAN_USER_HITS'
p2945
F0.28093441942302727
sg2941
F0.37155790216807705
ssS'OVERHEAD'
p2946
g11
(tRp2947
g2941
F20.507854870529311
ssS'ABS'
p2948
g11
(tRp2949
S'NUM_UNIQUE'
p2950
I9951
sS'MEAN_ABS_TIME'
p2951
F2734.5695483238701
sS'NUM_ABS'
p2952
I5297
sstp2953
a(g11
(tRp2954
S'workload'
p2955
g11
(tRp2956
S'n_contents'
p2957
I10000
sS'disconnection_rate'
p2958
F0.0001
sS'name'
p2959
S'STATIONARY_SIT'
p2960
sS'n_warmup'
p2961
I120000
sS'rate'
p2962
I100
sS'n_measured'
p2963
I360000
sS'alpha'
p2964
F0.69999999999999996
ssS'cache_policy'
p2965
g11
(tRp2966
g2959
S'LRU'
p2967
ssS'desc'
p2968
S'strategy: SIT_WITH_SCOPED_FLOODING disconnection rate: 0.0001 fan_out: 100, scope: 2'
p2969
sS'strategy'
p2970
g11
(tRp2971
S'fan_out'
p2972
I100
sg2959
S'SIT_WITH_SCOPED_FLOODING'
p2973
sS'scope'
p2974
I2
ssS'content_placement'
p2975
g11
(tRp2976
g2959
S'UNIFORM'
p2977
ssS'joint_cache_rsn_placement'
p2978
g11
(tRp2979
S'network_cache'
p2980
F1
sS'network_rsn'
p2981
F64
sS'rsn_cache_ratio'
p2982
I64
sg2959
S'CACHE_ALL_RSN_ALL_SIT'
p2983
ssS'warmup_strategy'
p2984
g11
(tRp2985
S'p'
F0.5
sg2959
S'NDN'
p2986
ssS'topology'
p2987
g11
(tRp2988
S'ext_delay'
p2989
I2
sS'source_ratio'
p2990
F1
sg2959
S'ROCKET_FUEL'
p2991
sS'asn'
p2992
I3257
ssg11
(tRp2993
S'LATENCY'
p2994
g11
(tRp2995
S'MEAN'
p2996
F3.3201348637635379
ssS'CACHE_HIT_RATIO'
p2997
g11
(tRp2998
S'MEAN_NETWORK_HITS'
p2999
F0.081700339592225057
sS'MEAN_USER_HITS'
p3000
F0.63223395305610974
sg2996
F0.71393429264833486
ssS'OVERHEAD'
p3001
g11
(tRp3002
g2996
F24.378371208499008
ssS'ABS'
p3003
g11
(tRp3004
S'NUM_UNIQUE'
p3005
I9921
sS'MEAN_ABS_TIME'
p3006
F3589.1901869212497
sS'NUM_ABS'
p3007
I52
sstp3008
a(g11
(tRp3009
S'workload'
p3010
g11
(tRp3011
S'n_contents'
p3012
I10000
sS'disconnection_rate'
p3013
F0.00050000000000000001
sS'name'
p3014
S'STATIONARY_SIT'
p3015
sS'n_warmup'
p3016
I120000
sS'rate'
p3017
I100
sS'n_measured'
p3018
I360000
sS'alpha'
p3019
F0.69999999999999996
ssS'cache_policy'
p3020
g11
(tRp3021
g3014
S'LRU'
p3022
ssS'desc'
p3023
S'strategy: SIT_WITH_SCOPED_FLOODING disconnection rate: 0.0005 fan_out: 100, scope: 2'
p3024
sS'strategy'
p3025
g11
(tRp3026
S'fan_out'
p3027
I100
sg3014
S'SIT_WITH_SCOPED_FLOODING'
p3028
sS'scope'
p3029
I2
ssS'content_placement'
p3030
g11
(tRp3031
g3014
S'UNIFORM'
p3032
ssS'joint_cache_rsn_placement'
p3033
g11
(tRp3034
S'network_cache'
p3035
F1
sS'network_rsn'
p3036
F64
sS'rsn_cache_ratio'
p3037
I64
sg3014
S'CACHE_ALL_RSN_ALL_SIT'
p3038
ssS'warmup_strategy'
p3039
g11
(tRp3040
S'p'
F0.5
sg3014
S'NDN'
p3041
ssS'topology'
p3042
g11
(tRp3043
S'ext_delay'
p3044
I2
sS'source_ratio'
p3045
F1
sg3014
S'ROCKET_FUEL'
p3046
sS'asn'
p3047
I3257
ssg11
(tRp3048
S'LATENCY'
p3049
g11
(tRp3050
S'MEAN'
p3051
F3.6924141224495135
ssS'CACHE_HIT_RATIO'
p3052
g11
(tRp3053
S'MEAN_NETWORK_HITS'
p3054
F0.080118821518264757
sS'MEAN_USER_HITS'
p3055
F0.38776921934997099
sg3051
F0.46788804086823577
ssS'OVERHEAD'
p3056
g11
(tRp3057
g3051
F22.384167522552875
ssS'ABS'
p3058
g11
(tRp3059
S'NUM_UNIQUE'
p3060
I9939
sS'MEAN_ABS_TIME'
p3061
F3383.9321711338303
sS'NUM_ABS'
p3062
I1515
sstp3063
a(g11
(tRp3064
S'workload'
p3065
g11
(tRp3066
S'n_contents'
p3067
I10000
sS'disconnection_rate'
p3068
F0.050000000000000003
sS'name'
p3069
S'STATIONARY_SIT'
p3070
sS'n_warmup'
p3071
I120000
sS'rate'
p3072
I100
sS'n_measured'
p3073
I360000
sS'alpha'
p3074
F0.69999999999999996
ssS'cache_policy'
p3075
g11
(tRp3076
g3069
S'LRU'
p3077
ssS'desc'
p3078
S'strategy: SCOPED_FLOODING disconnection rate: 0.05 scope: 100'
p3079
sS'strategy'
p3080
g11
(tRp3081
S'scope'
p3082
I100
sg3069
S'SCOPED_FLOODING'
p3083
ssS'content_placement'
p3084
g11
(tRp3085
g3069
S'UNIFORM'
p3086
ssS'joint_cache_rsn_placement'
p3087
g11
(tRp3088
S'network_cache'
p3089
F1
sS'network_rsn'
p3090
F64
sS'rsn_cache_ratio'
p3091
I64
sg3069
S'CACHE_ALL_RSN_ALL_SIT'
p3092
ssS'warmup_strategy'
p3093
g11
(tRp3094
S'p'
F0.5
sg3069
S'NDN'
p3095
ssS'topology'
p3096
g11
(tRp3097
S'ext_delay'
p3098
I2
sS'source_ratio'
p3099
F1
sg3069
S'ROCKET_FUEL'
p3100
sS'asn'
p3101
I3257
ssg11
(tRp3102
S'LATENCY'
p3103
g11
(tRp3104
S'MEAN'
p3105
F2.05482516116429
ssS'CACHE_HIT_RATIO'
p3106
g11
(tRp3107
S'MEAN_NETWORK_HITS'
p3108
F0.11443245578236164
sS'MEAN_USER_HITS'
p3109
F0.0077373409036125889
sg3105
F0.12216979668597422
ssS'OVERHEAD'
p3110
g11
(tRp3111
g3105
F68.700625122094152
ssS'ABS'
p3112
g11
(tRp3113
S'NUM_UNIQUE'
p3114
I9948
sS'MEAN_ABS_TIME'
p3115
F129.35938327973037
sS'NUM_ABS'
p3116
I9768
sstp3117
a(g11
(tRp3118
S'workload'
p3119
g11
(tRp3120
S'n_contents'
p3121
I10000
sS'disconnection_rate'
p3122
F0.01
sS'name'
p3123
S'STATIONARY_SIT'
p3124
sS'n_warmup'
p3125
I120000
sS'rate'
p3126
I100
sS'n_measured'
p3127
I360000
sS'alpha'
p3128
F0.69999999999999996
ssS'cache_policy'
p3129
g11
(tRp3130
g3123
S'LRU'
p3131
ssS'desc'
p3132
S'strategy: SCOPED_FLOODING disconnection rate: 0.01 scope: 100'
p3133
sS'strategy'
p3134
g11
(tRp3135
S'scope'
p3136
I100
sg3123
S'SCOPED_FLOODING'
p3137
ssS'content_placement'
p3138
g11
(tRp3139
g3123
S'UNIFORM'
p3140
ssS'joint_cache_rsn_placement'
p3141
g11
(tRp3142
S'network_cache'
p3143
F1
sS'network_rsn'
p3144
F64
sS'rsn_cache_ratio'
p3145
I64
sg3123
S'CACHE_ALL_RSN_ALL_SIT'
p3146
ssS'warmup_strategy'
p3147
g11
(tRp3148
S'p'
F0.5
sg3123
S'NDN'
p3149
ssS'topology'
p3150
g11
(tRp3151
S'ext_delay'
p3152
I2
sS'source_ratio'
p3153
F1
sg3123
S'ROCKET_FUEL'
p3154
sS'asn'
p3155
I3257
ssg11
(tRp3156
S'LATENCY'
p3157
g11
(tRp3158
S'MEAN'
p3159
F2.5652395554753857
ssS'CACHE_HIT_RATIO'
p3160
g11
(tRp3161
S'MEAN_NETWORK_HITS'
p3162
F0.12070280541394406
sS'MEAN_USER_HITS'
p3163
F0.032932858273760107
sg3159
F0.15363566368770415
ssS'OVERHEAD'
p3164
g11
(tRp3165
g3159
F66.163489063345537
ssS'ABS'
p3166
g11
(tRp3167
S'NUM_UNIQUE'
p3168
I9953
sS'MEAN_ABS_TIME'
p3169
F342.42449683709486
sS'NUM_ABS'
p3170
I9731
sstp3171
a(g11
(tRp3172
S'workload'
p3173
g11
(tRp3174
S'n_contents'
p3175
I10000
sS'disconnection_rate'
p3176
F0.0050000000000000001
sS'name'
p3177
S'STATIONARY_SIT'
p3178
sS'n_warmup'
p3179
I120000
sS'rate'
p3180
I100
sS'n_measured'
p3181
I360000
sS'alpha'
p3182
F0.69999999999999996
ssS'cache_policy'
p3183
g11
(tRp3184
g3177
S'LRU'
p3185
ssS'desc'
p3186
S'strategy: SCOPED_FLOODING disconnection rate: 0.005 scope: 100'
p3187
sS'strategy'
p3188
g11
(tRp3189
S'scope'
p3190
I100
sg3177
S'SCOPED_FLOODING'
p3191
ssS'content_placement'
p3192
g11
(tRp3193
g3177
S'UNIFORM'
p3194
ssS'joint_cache_rsn_placement'
p3195
g11
(tRp3196
S'network_cache'
p3197
F1
sS'network_rsn'
p3198
F64
sS'rsn_cache_ratio'
p3199
I64
sg3177
S'CACHE_ALL_RSN_ALL_SIT'
p3200
ssS'warmup_strategy'
p3201
g11
(tRp3202
S'p'
F0.5
sg3177
S'NDN'
p3203
ssS'topology'
p3204
g11
(tRp3205
S'ext_delay'
p3206
I2
sS'source_ratio'
p3207
F1
sg3177
S'ROCKET_FUEL'
p3208
sS'asn'
p3209
I3257
ssg11
(tRp3210
S'LATENCY'
p3211
g11
(tRp3212
S'MEAN'
p3213
F3.1283462310117511
ssS'CACHE_HIT_RATIO'
p3214
g11
(tRp3215
S'MEAN_NETWORK_HITS'
p3216
F0.12986045309148292
sS'MEAN_USER_HITS'
p3217
F0.08288059550420665
sg3213
F0.21274104859568957
ssS'OVERHEAD'
p3218
g11
(tRp3219
g3213
F62.635236457437664
ssS'ABS'
p3220
g11
(tRp3221
S'NUM_UNIQUE'
p3222
I9959
sS'MEAN_ABS_TIME'
p3223
F702.5687746158452
sS'NUM_ABS'
p3224
I9556
sstp3225
atRp3226
sb.