ccopy_reg
_reconstructor
p1
(cicarus.results.readwrite
ResultSet
p2
c__builtin__
object
p3
NtRp4
(dp5
S'attr'
p6
(dp7
sS'_results'
p8
ccollections
deque
p9
((lp10
(cicarus.util
Tree
p11
(tRp12
S'workload'
p13
g11
(tRp14
S'n_contents'
p15
I10000
sS'name'
p16
S'STATIONARY'
p17
sS'n_warmup'
p18
I36000
sS'rate'
p19
I10
sS'n_measured'
p20
I108000
sS'alpha'
p21
F0.80000000000000004
ssS'cache_policy'
p22
g11
(tRp23
g16
S'LRU'
p24
ssS'desc'
p25
S'caching probability: 0.1'
p26
sS'strategy'
p27
g11
(tRp28
S'p'
F0.10000000000000001
sg16
S'NDN'
p29
ssS'content_placement'
p30
g11
(tRp31
g16
S'LOWEST_DEGREE'
p32
ssS'joint_cache_rsn_placement'
p33
g11
(tRp34
S'network_cache'
p35
F0.94999999999999996
sS'network_rsn'
p36
F60.799999999999997
sg16
S'CACHE_ALL_RSN_ALL'
p37
sS'rsn_cache_ratio'
p38
I64
ssS'warmup_strategy'
p39
g11
(tRp40
S'p'
F0.10000000000000001
sg16
g29
ssS'topology'
p41
g11
(tRp42
S'ext_delay'
p43
I5
sS'source_ratio'
p44
F0.10000000000000001
sg16
S'ROCKET_FUEL'
p45
sS'asn'
p46
I3257
ssg11
(tRp47
S'CACHE_HIT_RATIO'
p48
g11
(tRp49
S'MEAN_NETWORK_HITS'
p50
F0.25390740740740741
sS'MEAN_USER_HITS'
p51
F0
sS'MEAN'
p52
F0.25390740740740741
ssS'OVERHEAD'
p53
g11
(tRp54
g52
F11.410157407407407
ssS'ABS'
p55
g11
(tRp56
S'MEAN_ABS_TIME'
p57
F13215.469721924226
sg52
F2.019892884468248
sstp58
a(g11
(tRp59
S'workload'
p60
g11
(tRp61
S'n_contents'
p62
I10000
sS'name'
p63
S'STATIONARY'
p64
sS'n_warmup'
p65
I36000
sS'rate'
p66
I10
sS'n_measured'
p67
I108000
sS'alpha'
p68
F0.80000000000000004
ssS'cache_policy'
p69
g11
(tRp70
g63
S'LRU'
p71
ssS'desc'
p72
S'caching probability: 0.25'
p73
sS'strategy'
p74
g11
(tRp75
S'p'
F0.25
sg63
S'NDN'
p76
ssS'content_placement'
p77
g11
(tRp78
g63
S'LOWEST_DEGREE'
p79
ssS'joint_cache_rsn_placement'
p80
g11
(tRp81
S'network_cache'
p82
F0.94999999999999996
sS'network_rsn'
p83
F60.799999999999997
sg63
S'CACHE_ALL_RSN_ALL'
p84
sS'rsn_cache_ratio'
p85
I64
ssS'warmup_strategy'
p86
g11
(tRp87
S'p'
F0.10000000000000001
sg63
g76
ssS'topology'
p88
g11
(tRp89
S'ext_delay'
p90
I5
sS'source_ratio'
p91
F0.10000000000000001
sg63
S'ROCKET_FUEL'
p92
sS'asn'
p93
I3257
ssg11
(tRp94
S'CACHE_HIT_RATIO'
p95
g11
(tRp96
S'MEAN_NETWORK_HITS'
p97
F0.23487037037037037
sS'MEAN_USER_HITS'
p98
F0
sS'MEAN'
p99
F0.23487037037037037
ssS'OVERHEAD'
p100
g11
(tRp101
g99
F11.587037037037037
ssS'ABS'
p102
g11
(tRp103
S'MEAN_ABS_TIME'
p104
F21898.234434547485
sg99
F2.9427457418428071
sstp105
a(g11
(tRp106
S'workload'
p107
g11
(tRp108
S'n_contents'
p109
I10000
sS'name'
p110
S'STATIONARY'
p111
sS'n_warmup'
p112
I36000
sS'rate'
p113
I10
sS'n_measured'
p114
I108000
sS'alpha'
p115
F0.80000000000000004
ssS'cache_policy'
p116
g11
(tRp117
g110
S'LRU'
p118
ssS'desc'
p119
S'caching probability: 0.33'
p120
sS'strategy'
p121
g11
(tRp122
S'p'
F0.33000000000000002
sg110
S'NDN'
p123
ssS'content_placement'
p124
g11
(tRp125
g110
S'LOWEST_DEGREE'
p126
ssS'joint_cache_rsn_placement'
p127
g11
(tRp128
S'network_cache'
p129
F0.94999999999999996
sS'network_rsn'
p130
F60.799999999999997
sg110
S'CACHE_ALL_RSN_ALL'
p131
sS'rsn_cache_ratio'
p132
I64
ssS'warmup_strategy'
p133
g11
(tRp134
S'p'
F0.10000000000000001
sg110
g123
ssS'topology'
p135
g11
(tRp136
S'ext_delay'
p137
I5
sS'source_ratio'
p138
F0.10000000000000001
sg110
S'ROCKET_FUEL'
p139
sS'asn'
p140
I3257
ssg11
(tRp141
S'CACHE_HIT_RATIO'
p142
g11
(tRp143
S'MEAN_NETWORK_HITS'
p144
F0.22798148148148148
sS'MEAN_USER_HITS'
p145
F0
sS'MEAN'
p146
F0.22798148148148148
ssS'OVERHEAD'
p147
g11
(tRp148
g146
F11.626870370370371
ssS'ABS'
p149
g11
(tRp150
S'MEAN_ABS_TIME'
p151
F24455.544958459242
sg146
F3.20408788962698
sstp152
a(g11
(tRp153
S'workload'
p154
g11
(tRp155
S'n_contents'
p156
I10000
sS'name'
p157
S'STATIONARY'
p158
sS'n_warmup'
p159
I36000
sS'rate'
p160
I10
sS'n_measured'
p161
I108000
sS'alpha'
p162
F0.80000000000000004
ssS'cache_policy'
p163
g11
(tRp164
g157
S'LRU'
p165
ssS'desc'
p166
S'caching probability: 0.5'
p167
sS'strategy'
p168
g11
(tRp169
S'p'
F0.5
sg157
S'NDN'
p170
ssS'content_placement'
p171
g11
(tRp172
g157
S'LOWEST_DEGREE'
p173
ssS'joint_cache_rsn_placement'
p174
g11
(tRp175
S'network_cache'
p176
F0.94999999999999996
sS'network_rsn'
p177
F60.799999999999997
sg157
S'CACHE_ALL_RSN_ALL'
p178
sS'rsn_cache_ratio'
p179
I64
ssS'warmup_strategy'
p180
g11
(tRp181
S'p'
F0.10000000000000001
sg157
g170
ssS'topology'
p182
g11
(tRp183
S'ext_delay'
p184
I5
sS'source_ratio'
p185
F0.10000000000000001
sg157
S'ROCKET_FUEL'
p186
sS'asn'
p187
I3257
ssg11
(tRp188
S'CACHE_HIT_RATIO'
p189
g11
(tRp190
S'MEAN_NETWORK_HITS'
p191
F0.2167037037037037
sS'MEAN_USER_HITS'
p192
F0
sS'MEAN'
p193
F0.2167037037037037
ssS'OVERHEAD'
p194
g11
(tRp195
g193
F11.70125925925926
ssS'ABS'
p196
g11
(tRp197
S'MEAN_ABS_TIME'
p198
F27238.443717509974
sg193
F3.5155677655677655
sstp199
a(g11
(tRp200
S'workload'
p201
g11
(tRp202
S'n_contents'
p203
I10000
sS'name'
p204
S'STATIONARY'
p205
sS'n_warmup'
p206
I36000
sS'rate'
p207
I10
sS'n_measured'
p208
I108000
sS'alpha'
p209
F0.80000000000000004
ssS'cache_policy'
p210
g11
(tRp211
g204
S'LRU'
p212
ssS'desc'
p213
S'caching probability: 0.66'
p214
sS'strategy'
p215
g11
(tRp216
S'p'
F0.66000000000000003
sg204
S'NDN'
p217
ssS'content_placement'
p218
g11
(tRp219
g204
S'LOWEST_DEGREE'
p220
ssS'joint_cache_rsn_placement'
p221
g11
(tRp222
S'network_cache'
p223
F0.94999999999999996
sS'network_rsn'
p224
F60.799999999999997
sg204
S'CACHE_ALL_RSN_ALL'
p225
sS'rsn_cache_ratio'
p226
I64
ssS'warmup_strategy'
p227
g11
(tRp228
S'p'
F0.10000000000000001
sg204
g217
ssS'topology'
p229
g11
(tRp230
S'ext_delay'
p231
I5
sS'source_ratio'
p232
F0.10000000000000001
sg204
S'ROCKET_FUEL'
p233
sS'asn'
p234
I3257
ssg11
(tRp235
S'CACHE_HIT_RATIO'
p236
g11
(tRp237
S'MEAN_NETWORK_HITS'
p238
F0.20644444444444446
sS'MEAN_USER_HITS'
p239
F0
sS'MEAN'
p240
F0.20644444444444446
ssS'OVERHEAD'
p241
g11
(tRp242
g240
F11.795638888888888
ssS'ABS'
p243
g11
(tRp244
S'MEAN_ABS_TIME'
p245
F28071.975635995463
sg240
F3.627564493195206
sstp246
a(g11
(tRp247
S'workload'
p248
g11
(tRp249
S'n_contents'
p250
I10000
sS'name'
p251
S'STATIONARY'
p252
sS'n_warmup'
p253
I36000
sS'rate'
p254
I10
sS'n_measured'
p255
I108000
sS'alpha'
p256
F0.80000000000000004
ssS'cache_policy'
p257
g11
(tRp258
g251
S'LRU'
p259
ssS'desc'
p260
S'caching probability: 0.75'
p261
sS'strategy'
p262
g11
(tRp263
S'p'
F0.75
sg251
S'NDN'
p264
ssS'content_placement'
p265
g11
(tRp266
g251
S'LOWEST_DEGREE'
p267
ssS'joint_cache_rsn_placement'
p268
g11
(tRp269
S'network_cache'
p270
F0.94999999999999996
sS'network_rsn'
p271
F60.799999999999997
sg251
S'CACHE_ALL_RSN_ALL'
p272
sS'rsn_cache_ratio'
p273
I64
ssS'warmup_strategy'
p274
g11
(tRp275
S'p'
F0.10000000000000001
sg251
g264
ssS'topology'
p276
g11
(tRp277
S'ext_delay'
p278
I5
sS'source_ratio'
p279
F0.10000000000000001
sg251
S'ROCKET_FUEL'
p280
sS'asn'
p281
I3257
ssg11
(tRp282
S'CACHE_HIT_RATIO'
p283
g11
(tRp284
S'MEAN_NETWORK_HITS'
p285
F0.19948148148148148
sS'MEAN_USER_HITS'
p286
F0
sS'MEAN'
p287
F0.19948148148148148
ssS'OVERHEAD'
p288
g11
(tRp289
g287
F11.857833333333334
ssS'ABS'
p290
g11
(tRp291
S'MEAN_ABS_TIME'
p292
F28944.681531524442
sg287
F3.7083037615330023
sstp293
a(g11
(tRp294
S'workload'
p295
g11
(tRp296
S'n_contents'
p297
I10000
sS'disconnection_rate'
p298
F0.01
sS'name'
p299
S'STATIONARY_SIT'
p300
sS'n_warmup'
p301
I36000
sS'rate'
p302
I10
sS'n_measured'
p303
I108000
sS'alpha'
p304
F0.80000000000000004
ssS'cache_policy'
p305
g11
(tRp306
g299
S'LRU'
p307
ssS'desc'
p308
S'caching probability: 0.1'
p309
sS'strategy'
p310
g11
(tRp311
S'p'
F0.10000000000000001
sg299
S'SIT_ONLY'
p312
ssS'content_placement'
p313
g11
(tRp314
g299
S'LOWEST_DEGREE'
p315
ssS'joint_cache_rsn_placement'
p316
g11
(tRp317
S'network_cache'
p318
F0.94999999999999996
sS'network_rsn'
p319
F60.799999999999997
sg299
S'CACHE_ALL_RSN_ALL_SIT'
p320
sS'rsn_cache_ratio'
p321
I64
ssS'warmup_strategy'
p322
g11
(tRp323
S'p'
F0.10000000000000001
sg299
S'NDN'
p324
ssS'topology'
p325
g11
(tRp326
S'ext_delay'
p327
I5
sS'source_ratio'
p328
F0.10000000000000001
sg299
S'ROCKET_FUEL'
p329
sS'asn'
p330
I3257
ssg11
(tRp331
S'CACHE_HIT_RATIO'
p332
g11
(tRp333
S'MEAN_NETWORK_HITS'
p334
F0.044245636407109268
sS'MEAN_USER_HITS'
p335
F0.0074599505857974018
sS'MEAN'
p336
F0.051705586992906671
ssS'OVERHEAD'
p337
g11
(tRp338
g336
F0.074910337132382238
ssS'ABS'
p339
g11
(tRp340
S'MEAN_ABS_TIME'
p341
F3567.0593707506987
sg336
F1.2897243960530793
sstp342
a(g11
(tRp343
S'workload'
p344
g11
(tRp345
S'n_contents'
p346
I10000
sS'disconnection_rate'
p347
F0.01
sS'name'
p348
S'STATIONARY_SIT'
p349
sS'n_warmup'
p350
I36000
sS'rate'
p351
I10
sS'n_measured'
p352
I108000
sS'alpha'
p353
F0.80000000000000004
ssS'cache_policy'
p354
g11
(tRp355
g348
S'LRU'
p356
ssS'desc'
p357
S'caching probability: 0.25'
p358
sS'strategy'
p359
g11
(tRp360
S'p'
F0.25
sg348
S'SIT_ONLY'
p361
ssS'content_placement'
p362
g11
(tRp363
g348
S'LOWEST_DEGREE'
p364
ssS'joint_cache_rsn_placement'
p365
g11
(tRp366
S'network_cache'
p367
F0.94999999999999996
sS'network_rsn'
p368
F60.799999999999997
sg348
S'CACHE_ALL_RSN_ALL_SIT'
p369
sS'rsn_cache_ratio'
p370
I64
ssS'warmup_strategy'
p371
g11
(tRp372
S'p'
F0.10000000000000001
sg348
S'NDN'
p373
ssS'topology'
p374
g11
(tRp375
S'ext_delay'
p376
I5
sS'source_ratio'
p377
F0.10000000000000001
sg348
S'ROCKET_FUEL'
p378
sS'asn'
p379
I3257
ssg11
(tRp380
S'CACHE_HIT_RATIO'
p381
g11
(tRp382
S'MEAN_NETWORK_HITS'
p383
F0.045923978006215636
sS'MEAN_USER_HITS'
p384
F0.0075504024225037849
sS'MEAN'
p385
F0.053474380428719423
ssS'OVERHEAD'
p386
g11
(tRp387
g385
F0.072595425930353022
ssS'ABS'
p388
g11
(tRp389
S'MEAN_ABS_TIME'
p390
F3639.4804584623939
sg385
F1.3040563767617739
sstp391
a(g11
(tRp392
S'workload'
p393
g11
(tRp394
S'n_contents'
p395
I10000
sS'disconnection_rate'
p396
F0.01
sS'name'
p397
S'STATIONARY_SIT'
p398
sS'n_warmup'
p399
I36000
sS'rate'
p400
I10
sS'n_measured'
p401
I108000
sS'alpha'
p402
F0.80000000000000004
ssS'cache_policy'
p403
g11
(tRp404
g397
S'LRU'
p405
ssS'desc'
p406
S'caching probability: 0.33'
p407
sS'strategy'
p408
g11
(tRp409
S'p'
F0.33000000000000002
sg397
S'SIT_ONLY'
p410
ssS'content_placement'
p411
g11
(tRp412
g397
S'LOWEST_DEGREE'
p413
ssS'joint_cache_rsn_placement'
p414
g11
(tRp415
S'network_cache'
p416
F0.94999999999999996
sS'network_rsn'
p417
F60.799999999999997
sg397
S'CACHE_ALL_RSN_ALL_SIT'
p418
sS'rsn_cache_ratio'
p419
I64
ssS'warmup_strategy'
p420
g11
(tRp421
S'p'
F0.10000000000000001
sg397
S'NDN'
p422
ssS'topology'
p423
g11
(tRp424
S'ext_delay'
p425
I5
sS'source_ratio'
p426
F0.10000000000000001
sg397
S'ROCKET_FUEL'
p427
sS'asn'
p428
I3257
ssg11
(tRp429
S'CACHE_HIT_RATIO'
p430
g11
(tRp431
S'MEAN_NETWORK_HITS'
p432
F0.045595272722925941
sS'MEAN_USER_HITS'
p433
F0.0072200152210033907
sS'MEAN'
p434
F0.052815287943929333
ssS'OVERHEAD'
p435
g11
(tRp436
g434
F0.072785881921671597
ssS'ABS'
p437
g11
(tRp438
S'MEAN_ABS_TIME'
p439
F3643.8184796668061
sg434
F1.2974542969417393
sstp440
a(g11
(tRp441
S'workload'
p442
g11
(tRp443
S'n_contents'
p444
I10000
sS'name'
p445
S'STATIONARY'
p446
sS'n_warmup'
p447
I36000
sS'rate'
p448
I10
sS'n_measured'
p449
I108000
sS'alpha'
p450
F0.80000000000000004
ssS'cache_policy'
p451
g11
(tRp452
g445
S'LRU'
p453
ssS'desc'
p454
S'caching probability: 1.0'
p455
sS'strategy'
p456
g11
(tRp457
S'p'
F1
sg445
S'NDN'
p458
ssS'content_placement'
p459
g11
(tRp460
g445
S'LOWEST_DEGREE'
p461
ssS'joint_cache_rsn_placement'
p462
g11
(tRp463
S'network_cache'
p464
F0.94999999999999996
sS'network_rsn'
p465
F60.799999999999997
sg445
S'CACHE_ALL_RSN_ALL'
p466
sS'rsn_cache_ratio'
p467
I64
ssS'warmup_strategy'
p468
g11
(tRp469
S'p'
F0.10000000000000001
sg445
g458
ssS'topology'
p470
g11
(tRp471
S'ext_delay'
p472
I5
sS'source_ratio'
p473
F0.10000000000000001
sg445
S'ROCKET_FUEL'
p474
sS'asn'
p475
I3257
ssg11
(tRp476
S'CACHE_HIT_RATIO'
p477
g11
(tRp478
S'MEAN_NETWORK_HITS'
p479
F0.18532407407407409
sS'MEAN_USER_HITS'
p480
F0
sS'MEAN'
p481
F0.18532407407407409
ssS'OVERHEAD'
p482
g11
(tRp483
g481
F11.95512962962963
ssS'ABS'
p484
g11
(tRp485
S'MEAN_ABS_TIME'
p486
F30180.224978909973
sg481
F3.8342670877050016
sstp487
a(g11
(tRp488
S'workload'
p489
g11
(tRp490
S'n_contents'
p491
I10000
sS'disconnection_rate'
p492
F0.01
sS'name'
p493
S'STATIONARY_SIT'
p494
sS'n_warmup'
p495
I36000
sS'rate'
p496
I10
sS'n_measured'
p497
I108000
sS'alpha'
p498
F0.80000000000000004
ssS'cache_policy'
p499
g11
(tRp500
g493
S'LRU'
p501
ssS'desc'
p502
S'caching probability: 0.5'
p503
sS'strategy'
p504
g11
(tRp505
S'p'
F0.5
sg493
S'SIT_ONLY'
p506
ssS'content_placement'
p507
g11
(tRp508
g493
S'LOWEST_DEGREE'
p509
ssS'joint_cache_rsn_placement'
p510
g11
(tRp511
S'network_cache'
p512
F0.94999999999999996
sS'network_rsn'
p513
F60.799999999999997
sg493
S'CACHE_ALL_RSN_ALL_SIT'
p514
sS'rsn_cache_ratio'
p515
I64
ssS'warmup_strategy'
p516
g11
(tRp517
S'p'
F0.10000000000000001
sg493
S'NDN'
p518
ssS'topology'
p519
g11
(tRp520
S'ext_delay'
p521
I5
sS'source_ratio'
p522
F0.10000000000000001
sg493
S'ROCKET_FUEL'
p523
sS'asn'
p524
I3257
ssg11
(tRp525
S'CACHE_HIT_RATIO'
p526
g11
(tRp527
S'MEAN_NETWORK_HITS'
p528
F0.045874849108996092
sS'MEAN_USER_HITS'
p529
F0.0070913791935747327
sS'MEAN'
p530
F0.052966228302570827
ssS'OVERHEAD'
p531
g11
(tRp532
g530
F0.07188985255508766
ssS'ABS'
p533
g11
(tRp534
S'MEAN_ABS_TIME'
p535
F3742.111383842991
sg530
F1.3070279424216766
sstp536
a(g11
(tRp537
S'workload'
p538
g11
(tRp539
S'n_contents'
p540
I10000
sS'disconnection_rate'
p541
F0.01
sS'name'
p542
S'STATIONARY_SIT'
p543
sS'n_warmup'
p544
I36000
sS'rate'
p545
I10
sS'n_measured'
p546
I108000
sS'alpha'
p547
F0.80000000000000004
ssS'cache_policy'
p548
g11
(tRp549
g542
S'LRU'
p550
ssS'desc'
p551
S'caching probability: 0.66'
p552
sS'strategy'
p553
g11
(tRp554
S'p'
F0.66000000000000003
sg542
S'SIT_ONLY'
p555
ssS'content_placement'
p556
g11
(tRp557
g542
S'LOWEST_DEGREE'
p558
ssS'joint_cache_rsn_placement'
p559
g11
(tRp560
S'network_cache'
p561
F0.94999999999999996
sS'network_rsn'
p562
F60.799999999999997
sg542
S'CACHE_ALL_RSN_ALL_SIT'
p563
sS'rsn_cache_ratio'
p564
I64
ssS'warmup_strategy'
p565
g11
(tRp566
S'p'
F0.10000000000000001
sg542
S'NDN'
p567
ssS'topology'
p568
g11
(tRp569
S'ext_delay'
p570
I5
sS'source_ratio'
p571
F0.10000000000000001
sg542
S'ROCKET_FUEL'
p572
sS'asn'
p573
I3257
ssg11
(tRp574
S'CACHE_HIT_RATIO'
p575
g11
(tRp576
S'MEAN_NETWORK_HITS'
p577
F0.046312929939096525
sS'MEAN_USER_HITS'
p578
F0.0071658175763683364
sS'MEAN'
p579
F0.053478747515464865
ssS'OVERHEAD'
p580
g11
(tRp581
g579
F0.071797588556997929
ssS'ABS'
p582
g11
(tRp583
S'MEAN_ABS_TIME'
p584
F3821.4681545901385
sg579
F1.3143784153005464
sstp585
a(g11
(tRp586
S'workload'
p587
g11
(tRp588
S'n_contents'
p589
I10000
sS'disconnection_rate'
p590
F0.01
sS'name'
p591
S'STATIONARY_SIT'
p592
sS'n_warmup'
p593
I36000
sS'rate'
p594
I10
sS'n_measured'
p595
I108000
sS'alpha'
p596
F0.80000000000000004
ssS'cache_policy'
p597
g11
(tRp598
g591
S'LRU'
p599
ssS'desc'
p600
S'caching probability: 0.75'
p601
sS'strategy'
p602
g11
(tRp603
S'p'
F0.75
sg591
S'SIT_ONLY'
p604
ssS'content_placement'
p605
g11
(tRp606
g591
S'LOWEST_DEGREE'
p607
ssS'joint_cache_rsn_placement'
p608
g11
(tRp609
S'network_cache'
p610
F0.94999999999999996
sS'network_rsn'
p611
F60.799999999999997
sg591
S'CACHE_ALL_RSN_ALL_SIT'
p612
sS'rsn_cache_ratio'
p613
I64
ssS'warmup_strategy'
p614
g11
(tRp615
S'p'
F0.10000000000000001
sg591
S'NDN'
p616
ssS'topology'
p617
g11
(tRp618
S'ext_delay'
p619
I5
sS'source_ratio'
p620
F0.10000000000000001
sg591
S'ROCKET_FUEL'
p621
sS'asn'
p622
I3257
ssg11
(tRp623
S'CACHE_HIT_RATIO'
p624
g11
(tRp625
S'MEAN_NETWORK_HITS'
p626
F0.044228501306814563
sS'MEAN_USER_HITS'
p627
F0.0072910690380569897
sS'MEAN'
p628
F0.051519570344871549
ssS'OVERHEAD'
p629
g11
(tRp630
g628
F0.070153630394594255
ssS'ABS'
p631
g11
(tRp632
S'MEAN_ABS_TIME'
p633
F3772.9078198962998
sg628
F1.3122442019099592
sstp634
a(g11
(tRp635
S'workload'
p636
g11
(tRp637
S'n_contents'
p638
I10000
sS'disconnection_rate'
p639
F0.01
sS'name'
p640
S'STATIONARY_SIT'
p641
sS'n_warmup'
p642
I36000
sS'rate'
p643
I10
sS'n_measured'
p644
I108000
sS'alpha'
p645
F0.80000000000000004
ssS'cache_policy'
p646
g11
(tRp647
g640
S'LRU'
p648
ssS'desc'
p649
S'caching probability: 1.0'
p650
sS'strategy'
p651
g11
(tRp652
S'p'
F1
sg640
S'SIT_ONLY'
p653
ssS'content_placement'
p654
g11
(tRp655
g640
S'LOWEST_DEGREE'
p656
ssS'joint_cache_rsn_placement'
p657
g11
(tRp658
S'network_cache'
p659
F0.94999999999999996
sS'network_rsn'
p660
F60.799999999999997
sg640
S'CACHE_ALL_RSN_ALL_SIT'
p661
sS'rsn_cache_ratio'
p662
I64
ssS'warmup_strategy'
p663
g11
(tRp664
S'p'
F0.10000000000000001
sg640
S'NDN'
p665
ssS'topology'
p666
g11
(tRp667
S'ext_delay'
p668
I5
sS'source_ratio'
p669
F0.10000000000000001
sg640
S'ROCKET_FUEL'
p670
sS'asn'
p671
I3257
ssg11
(tRp672
S'CACHE_HIT_RATIO'
p673
g11
(tRp674
S'MEAN_NETWORK_HITS'
p675
F0.046120749755990675
sS'MEAN_USER_HITS'
p676
F0.007469673127103958
sS'MEAN'
p677
F0.053590422883094638
ssS'OVERHEAD'
p678
g11
(tRp679
g677
F0.072911977371870204
ssS'ABS'
p680
g11
(tRp681
S'MEAN_ABS_TIME'
p682
F3881.230133457982
sg677
F1.3276123170116103
sstp683
atRp684
sb.