ccopy_reg
_reconstructor
p1
(cicarus.results.readwrite
ResultSet
p2
c__builtin__
object
p3
NtRp4
(dp5
S'attr'
p6
(dp7
sS'_results'
p8
ccollections
deque
p9
((lp10
(cicarus.util
Tree
p11
(tRp12
S'workload'
p13
g11
(tRp14
S'n_contents'
p15
I10000
sS'disconnection_rate'
p16
F0.0025000000000000001
sS'name'
p17
S'STATIONARY_SIT'
p18
sS'n_warmup'
p19
I36000
sS'rate'
p20
I100
sS'n_measured'
p21
I108000
sS'alpha'
p22
F0.69999999999999996
ssS'cache_policy'
p23
g11
(tRp24
g17
S'LRU'
p25
ssS'desc'
p26
S'strategy: SIT_ONLY caching probability: 0.2'
p27
sS'strategy'
p28
g11
(tRp29
S'p'
F0.20000000000000001
sg17
S'SIT_ONLY'
p30
sS'fan_out'
p31
I1
ssS'content_placement'
p32
g11
(tRp33
g17
S'UNIFORM'
p34
ssS'joint_cache_rsn_placement'
p35
g11
(tRp36
S'network_cache'
p37
F1
sS'network_rsn'
p38
F64
sg17
S'CACHE_ALL_RSN_ALL_SIT'
p39
sS'rsn_cache_ratio'
p40
I64
ssS'warmup_strategy'
p41
g11
(tRp42
S'p'
F0.10000000000000001
sg17
S'NDN'
p43
ssS'topology'
p44
g11
(tRp45
S'ext_delay'
p46
I2
sS'source_ratio'
p47
F1
sg17
S'ROCKET_FUEL'
p48
sS'asn'
p49
I3257
ssg11
(tRp50
S'CACHE_HIT_RATIO'
p51
g11
(tRp52
S'MEAN_NETWORK_HITS'
p53
F0.013486059063376464
sS'MEAN_USER_HITS'
p54
F0.053651983313299866
sS'MEAN'
p55
F0.067138042376676324
ssS'OVERHEAD'
p56
g11
(tRp57
g55
F0.46751158965156275
ssS'ABS'
p58
g11
(tRp59
S'MEAN_ABS_TIME'
p60
F768.9008920613785
sS'NUM_ABS'
p61
I8441
sstp62
a(g11
(tRp63
S'workload'
p64
g11
(tRp65
S'n_contents'
p66
I10000
sS'disconnection_rate'
p67
F0.0025000000000000001
sS'name'
p68
S'STATIONARY_SIT'
p69
sS'n_warmup'
p70
I36000
sS'rate'
p71
I100
sS'n_measured'
p72
I108000
sS'alpha'
p73
F0.69999999999999996
ssS'cache_policy'
p74
g11
(tRp75
g68
S'LRU'
p76
ssS'desc'
p77
S'strategy: SIT_ONLY caching probability: 0.4'
p78
sS'strategy'
p79
g11
(tRp80
S'p'
F0.40000000000000002
sg68
S'SIT_ONLY'
p81
sS'fan_out'
p82
I1
ssS'content_placement'
p83
g11
(tRp84
g68
S'UNIFORM'
p85
ssS'joint_cache_rsn_placement'
p86
g11
(tRp87
S'network_cache'
p88
F1
sS'network_rsn'
p89
F64
sg68
S'CACHE_ALL_RSN_ALL_SIT'
p90
sS'rsn_cache_ratio'
p91
I64
ssS'warmup_strategy'
p92
g11
(tRp93
S'p'
F0.10000000000000001
sg68
S'NDN'
p94
ssS'topology'
p95
g11
(tRp96
S'ext_delay'
p97
I2
sS'source_ratio'
p98
F1
sg68
S'ROCKET_FUEL'
p99
sS'asn'
p100
I3257
ssg11
(tRp101
S'CACHE_HIT_RATIO'
p102
g11
(tRp103
S'MEAN_NETWORK_HITS'
p104
F0.013271128351913226
sS'MEAN_USER_HITS'
p105
F0.055664356733956012
sS'MEAN'
p106
F0.068935485085869233
ssS'OVERHEAD'
p107
g11
(tRp108
g106
F0.45844890713413955
ssS'ABS'
p109
g11
(tRp110
S'MEAN_ABS_TIME'
p111
F767.38964210570964
sS'NUM_ABS'
p112
I8416
sstp113
a(g11
(tRp114
S'workload'
p115
g11
(tRp116
S'n_contents'
p117
I10000
sS'disconnection_rate'
p118
F0.0025000000000000001
sS'name'
p119
S'STATIONARY_SIT'
p120
sS'n_warmup'
p121
I36000
sS'rate'
p122
I100
sS'n_measured'
p123
I108000
sS'alpha'
p124
F0.69999999999999996
ssS'cache_policy'
p125
g11
(tRp126
g119
S'LRU'
p127
ssS'desc'
p128
S'strategy: SIT_ONLY caching probability: 0.7'
p129
sS'strategy'
p130
g11
(tRp131
S'p'
F0.69999999999999996
sg119
S'SIT_ONLY'
p132
sS'fan_out'
p133
I1
ssS'content_placement'
p134
g11
(tRp135
g119
S'UNIFORM'
p136
ssS'joint_cache_rsn_placement'
p137
g11
(tRp138
S'network_cache'
p139
F1
sS'network_rsn'
p140
F64
sg119
S'CACHE_ALL_RSN_ALL_SIT'
p141
sS'rsn_cache_ratio'
p142
I64
ssS'warmup_strategy'
p143
g11
(tRp144
S'p'
F0.10000000000000001
sg119
S'NDN'
p145
ssS'topology'
p146
g11
(tRp147
S'ext_delay'
p148
I2
sS'source_ratio'
p149
F1
sg119
S'ROCKET_FUEL'
p150
sS'asn'
p151
I3257
ssg11
(tRp152
S'CACHE_HIT_RATIO'
p153
g11
(tRp154
S'MEAN_NETWORK_HITS'
p155
F0.013828749664293555
sS'MEAN_USER_HITS'
p156
F0.055018163485504548
sS'MEAN'
p157
F0.0688469131497981
ssS'OVERHEAD'
p158
g11
(tRp159
g157
F0.45215956808638275
ssS'ABS'
p160
g11
(tRp161
S'MEAN_ABS_TIME'
p162
F772.2397104262559
sS'NUM_ABS'
p163
I8489
sstp164
a(g11
(tRp165
S'workload'
p166
g11
(tRp167
S'n_contents'
p168
I10000
sS'disconnection_rate'
p169
F0.0025000000000000001
sS'name'
p170
S'STATIONARY_SIT'
p171
sS'n_warmup'
p172
I36000
sS'rate'
p173
I100
sS'n_measured'
p174
I108000
sS'alpha'
p175
F0.69999999999999996
ssS'cache_policy'
p176
g11
(tRp177
g170
S'LRU'
p178
ssS'desc'
p179
S'strategy: SIT_ONLY caching probability: 0.6'
p180
sS'strategy'
p181
g11
(tRp182
S'p'
F0.59999999999999998
sg170
S'SIT_ONLY'
p183
sS'fan_out'
p184
I1
ssS'content_placement'
p185
g11
(tRp186
g170
S'UNIFORM'
p187
ssS'joint_cache_rsn_placement'
p188
g11
(tRp189
S'network_cache'
p190
F1
sS'network_rsn'
p191
F64
sg170
S'CACHE_ALL_RSN_ALL_SIT'
p192
sS'rsn_cache_ratio'
p193
I64
ssS'warmup_strategy'
p194
g11
(tRp195
S'p'
F0.10000000000000001
sg170
S'NDN'
p196
ssS'topology'
p197
g11
(tRp198
S'ext_delay'
p199
I2
sS'source_ratio'
p200
F1
sg170
S'ROCKET_FUEL'
p201
sS'asn'
p202
I3257
ssg11
(tRp203
S'CACHE_HIT_RATIO'
p204
g11
(tRp205
S'MEAN_NETWORK_HITS'
p206
F0.014151276819332067
sS'MEAN_USER_HITS'
p207
F0.055045309532673288
sS'MEAN'
p208
F0.06919658635200536
ssS'OVERHEAD'
p209
g11
(tRp210
g208
F0.45538164824567912
ssS'ABS'
p211
g11
(tRp212
S'MEAN_ABS_TIME'
p213
F768.81847521299471
sS'NUM_ABS'
p214
I8474
sstp215
a(g11
(tRp216
S'workload'
p217
g11
(tRp218
S'n_contents'
p219
I10000
sS'disconnection_rate'
p220
F0.0025000000000000001
sS'name'
p221
S'STATIONARY_SIT'
p222
sS'n_warmup'
p223
I36000
sS'rate'
p224
I100
sS'n_measured'
p225
I108000
sS'alpha'
p226
F0.69999999999999996
ssS'cache_policy'
p227
g11
(tRp228
g221
S'LRU'
p229
ssS'desc'
p230
S'strategy: SIT_ONLY caching probability: 0.3'
p231
sS'strategy'
p232
g11
(tRp233
S'p'
F0.29999999999999999
sg221
S'SIT_ONLY'
p234
sS'fan_out'
p235
I1
ssS'content_placement'
p236
g11
(tRp237
g221
S'UNIFORM'
p238
ssS'joint_cache_rsn_placement'
p239
g11
(tRp240
S'network_cache'
p241
F1
sS'network_rsn'
p242
F64
sg221
S'CACHE_ALL_RSN_ALL_SIT'
p243
sS'rsn_cache_ratio'
p244
I64
ssS'warmup_strategy'
p245
g11
(tRp246
S'p'
F0.10000000000000001
sg221
S'NDN'
p247
ssS'topology'
p248
g11
(tRp249
S'ext_delay'
p250
I2
sS'source_ratio'
p251
F1
sg221
S'ROCKET_FUEL'
p252
sS'asn'
p253
I3257
ssg11
(tRp254
S'CACHE_HIT_RATIO'
p255
g11
(tRp256
S'MEAN_NETWORK_HITS'
p257
F0.013418608709596781
sS'MEAN_USER_HITS'
p258
F0.055136567949098901
sS'MEAN'
p259
F0.068555176658695677
ssS'OVERHEAD'
p260
g11
(tRp261
g259
F0.45510777881911901
ssS'ABS'
p262
g11
(tRp263
S'MEAN_ABS_TIME'
p264
F766.95571364003467
sS'NUM_ABS'
p265
I8430
sstp266
a(g11
(tRp267
S'workload'
p268
g11
(tRp269
S'n_contents'
p270
I10000
sS'disconnection_rate'
p271
F0.0025000000000000001
sS'name'
p272
S'STATIONARY_SIT'
p273
sS'n_warmup'
p274
I36000
sS'rate'
p275
I100
sS'n_measured'
p276
I108000
sS'alpha'
p277
F0.69999999999999996
ssS'cache_policy'
p278
g11
(tRp279
g272
S'LRU'
p280
ssS'desc'
p281
S'strategy: SIT_ONLY caching probability: 1.0'
p282
sS'strategy'
p283
g11
(tRp284
S'p'
F1
sg272
S'SIT_ONLY'
p285
sS'fan_out'
p286
I1
ssS'content_placement'
p287
g11
(tRp288
g272
S'UNIFORM'
p289
ssS'joint_cache_rsn_placement'
p290
g11
(tRp291
S'network_cache'
p292
F1
sS'network_rsn'
p293
F64
sg272
S'CACHE_ALL_RSN_ALL_SIT'
p294
sS'rsn_cache_ratio'
p295
I64
ssS'warmup_strategy'
p296
g11
(tRp297
S'p'
F0.10000000000000001
sg272
S'NDN'
p298
ssS'topology'
p299
g11
(tRp300
S'ext_delay'
p301
I2
sS'source_ratio'
p302
F1
sg272
S'ROCKET_FUEL'
p303
sS'asn'
p304
I3257
ssg11
(tRp305
S'CACHE_HIT_RATIO'
p306
g11
(tRp307
S'MEAN_NETWORK_HITS'
p308
F0.014088884284678338
sS'MEAN_USER_HITS'
p309
F0.053812757221024084
sS'MEAN'
p310
F0.067901641505702423
ssS'OVERHEAD'
p311
g11
(tRp312
g310
F0.45060387853849965
ssS'ABS'
p313
g11
(tRp314
S'MEAN_ABS_TIME'
p315
F761.91326821580765
sS'NUM_ABS'
p316
I8528
sstp317
a(g11
(tRp318
S'workload'
p319
g11
(tRp320
S'n_contents'
p321
I10000
sS'disconnection_rate'
p322
F0.0025000000000000001
sS'name'
p323
S'STATIONARY_SIT'
p324
sS'n_warmup'
p325
I36000
sS'rate'
p326
I100
sS'n_measured'
p327
I108000
sS'alpha'
p328
F0.69999999999999996
ssS'cache_policy'
p329
g11
(tRp330
g323
S'LRU'
p331
ssS'desc'
p332
S'strategy: SIT_ONLY caching probability: 0.1'
p333
sS'strategy'
p334
g11
(tRp335
S'p'
F0.10000000000000001
sg323
S'SIT_ONLY'
p336
sS'fan_out'
p337
I1
ssS'content_placement'
p338
g11
(tRp339
g323
S'UNIFORM'
p340
ssS'joint_cache_rsn_placement'
p341
g11
(tRp342
S'network_cache'
p343
F1
sS'network_rsn'
p344
F64
sg323
S'CACHE_ALL_RSN_ALL_SIT'
p345
sS'rsn_cache_ratio'
p346
I64
ssS'warmup_strategy'
p347
g11
(tRp348
S'p'
F0.10000000000000001
sg323
S'NDN'
p349
ssS'topology'
p350
g11
(tRp351
S'ext_delay'
p352
I2
sS'source_ratio'
p353
F1
sg323
S'ROCKET_FUEL'
p354
sS'asn'
p355
I3257
ssg11
(tRp356
S'CACHE_HIT_RATIO'
p357
g11
(tRp358
S'MEAN_NETWORK_HITS'
p359
F0.012259715246044035
sS'MEAN_USER_HITS'
p360
F0.056171872049548696
sS'MEAN'
p361
F0.068431587295592733
ssS'OVERHEAD'
p362
g11
(tRp363
g361
F0.45912465952762954
ssS'ABS'
p364
g11
(tRp365
S'MEAN_ABS_TIME'
p366
F765.74507467589888
sS'NUM_ABS'
p367
I8425
sstp368
a(g11
(tRp369
S'workload'
p370
g11
(tRp371
S'n_contents'
p372
I10000
sS'disconnection_rate'
p373
F0.0025000000000000001
sS'name'
p374
S'STATIONARY_SIT'
p375
sS'n_warmup'
p376
I36000
sS'rate'
p377
I100
sS'n_measured'
p378
I108000
sS'alpha'
p379
F0.69999999999999996
ssS'cache_policy'
p380
g11
(tRp381
g374
S'LRU'
p382
ssS'desc'
p383
S'strategy: SIT_ONLY caching probability: 0.9'
p384
sS'strategy'
p385
g11
(tRp386
S'p'
F0.90000000000000002
sg374
S'SIT_ONLY'
p387
sS'fan_out'
p388
I1
ssS'content_placement'
p389
g11
(tRp390
g374
S'UNIFORM'
p391
ssS'joint_cache_rsn_placement'
p392
g11
(tRp393
S'network_cache'
p394
F1
sS'network_rsn'
p395
F64
sg374
S'CACHE_ALL_RSN_ALL_SIT'
p396
sS'rsn_cache_ratio'
p397
I64
ssS'warmup_strategy'
p398
g11
(tRp399
S'p'
F0.10000000000000001
sg374
S'NDN'
p400
ssS'topology'
p401
g11
(tRp402
S'ext_delay'
p403
I2
sS'source_ratio'
p404
F1
sg374
S'ROCKET_FUEL'
p405
sS'asn'
p406
I3257
ssg11
(tRp407
S'CACHE_HIT_RATIO'
p408
g11
(tRp409
S'MEAN_NETWORK_HITS'
p410
F0.014150810164480807
sS'MEAN_USER_HITS'
p411
F0.054649619161496236
sS'MEAN'
p412
F0.068800429325977047
ssS'OVERHEAD'
p413
g11
(tRp414
g412
F0.45062586926286508
ssS'ABS'
p415
g11
(tRp416
S'MEAN_ABS_TIME'
p417
F772.38187330958544
sS'NUM_ABS'
p418
I8518
sstp419
a(g11
(tRp420
S'workload'
p421
g11
(tRp422
S'n_contents'
p423
I10000
sS'disconnection_rate'
p424
F0.0025000000000000001
sS'name'
p425
S'STATIONARY_SIT'
p426
sS'n_warmup'
p427
I36000
sS'rate'
p428
I100
sS'n_measured'
p429
I108000
sS'alpha'
p430
F0.69999999999999996
ssS'cache_policy'
p431
g11
(tRp432
g425
S'LRU'
p433
ssS'desc'
p434
S'strategy: SIT_ONLY caching probability: 0.8'
p435
sS'strategy'
p436
g11
(tRp437
S'p'
F0.80000000000000004
sg425
S'SIT_ONLY'
p438
sS'fan_out'
p439
I1
ssS'content_placement'
p440
g11
(tRp441
g425
S'UNIFORM'
p442
ssS'joint_cache_rsn_placement'
p443
g11
(tRp444
S'network_cache'
p445
F1
sS'network_rsn'
p446
F64
sg425
S'CACHE_ALL_RSN_ALL_SIT'
p447
sS'rsn_cache_ratio'
p448
I64
ssS'warmup_strategy'
p449
g11
(tRp450
S'p'
F0.10000000000000001
sg425
S'NDN'
p451
ssS'topology'
p452
g11
(tRp453
S'ext_delay'
p454
I2
sS'source_ratio'
p455
F1
sg425
S'ROCKET_FUEL'
p456
sS'asn'
p457
I3257
ssg11
(tRp458
S'CACHE_HIT_RATIO'
p459
g11
(tRp460
S'MEAN_NETWORK_HITS'
p461
F0.0136521345602655
sS'MEAN_USER_HITS'
p462
F0.054688678533715493
sS'MEAN'
p463
F0.06834081309398099
ssS'OVERHEAD'
p464
g11
(tRp465
g463
F0.45321163202957038
ssS'ABS'
p466
g11
(tRp467
S'MEAN_ABS_TIME'
p468
F773.01829889594558
sS'NUM_ABS'
p469
I8528
sstp470
a(g11
(tRp471
S'workload'
p472
g11
(tRp473
S'n_contents'
p474
I10000
sS'disconnection_rate'
p475
F0.0025000000000000001
sS'name'
p476
S'STATIONARY_SIT'
p477
sS'n_warmup'
p478
I36000
sS'rate'
p479
I100
sS'n_measured'
p480
I108000
sS'alpha'
p481
F0.69999999999999996
ssS'cache_policy'
p482
g11
(tRp483
g476
S'LRU'
p484
ssS'desc'
p485
S'strategy: SIT_ONLY caching probability: 0.5'
p486
sS'strategy'
p487
g11
(tRp488
S'p'
F0.5
sg476
S'SIT_ONLY'
p489
sS'fan_out'
p490
I1
ssS'content_placement'
p491
g11
(tRp492
g476
S'UNIFORM'
p493
ssS'joint_cache_rsn_placement'
p494
g11
(tRp495
S'network_cache'
p496
F1
sS'network_rsn'
p497
F64
sg476
S'CACHE_ALL_RSN_ALL_SIT'
p498
sS'rsn_cache_ratio'
p499
I64
ssS'warmup_strategy'
p500
g11
(tRp501
S'p'
F0.10000000000000001
sg476
S'NDN'
p502
ssS'topology'
p503
g11
(tRp504
S'ext_delay'
p505
I2
sS'source_ratio'
p506
F1
sg476
S'ROCKET_FUEL'
p507
sS'asn'
p508
I3257
ssg11
(tRp509
S'CACHE_HIT_RATIO'
p510
g11
(tRp511
S'MEAN_NETWORK_HITS'
p512
F0.012969710664821249
sS'MEAN_USER_HITS'
p513
F0.05492472389345536
sS'MEAN'
p514
F0.067894434558276609
ssS'OVERHEAD'
p515
g11
(tRp516
g514
F0.45400166578329676
ssS'ABS'
p517
g11
(tRp518
S'MEAN_ABS_TIME'
p519
F776.2234995752159
sS'NUM_ABS'
p520
I8491
sstp521
a(g11
(tRp522
S'workload'
p523
g11
(tRp524
S'n_contents'
p525
I10000
sS'disconnection_rate'
p526
F0.0025000000000000001
sS'name'
p527
S'STATIONARY_SIT'
p528
sS'n_warmup'
p529
I36000
sS'rate'
p530
I100
sS'n_measured'
p531
I108000
sS'alpha'
p532
F0.69999999999999996
ssS'cache_policy'
p533
g11
(tRp534
g527
S'LRU'
p535
ssS'desc'
p536
S'strategy: NDN_SIT caching probability: 0.1'
p537
sS'strategy'
p538
g11
(tRp539
S'p'
F0.10000000000000001
sg527
S'NDN_SIT'
p540
ssS'content_placement'
p541
g11
(tRp542
g527
S'UNIFORM'
p543
ssS'joint_cache_rsn_placement'
p544
g11
(tRp545
S'network_cache'
p546
F1
sS'network_rsn'
p547
F64
sg527
S'CACHE_ALL_RSN_ALL_SIT'
p548
sS'rsn_cache_ratio'
p549
I64
ssS'warmup_strategy'
p550
g11
(tRp551
S'p'
F0.10000000000000001
sg527
S'NDN'
p552
ssS'topology'
p553
g11
(tRp554
S'ext_delay'
p555
I2
sS'source_ratio'
p556
F1
sg527
S'ROCKET_FUEL'
p557
sS'asn'
p558
I3257
ssg11
(tRp559
S'CACHE_HIT_RATIO'
p560
g11
(tRp561
S'MEAN_NETWORK_HITS'
p562
F0.24102537530676943
sS'MEAN_USER_HITS'
p563
F0
sS'MEAN'
p564
F0.24102537530676943
ssS'OVERHEAD'
p565
g11
(tRp566
g564
F0.81509908503534101
ssS'ABS'
p567
g11
(tRp568
S'MEAN_ABS_TIME'
p569
F551.59285787030956
sS'NUM_ABS'
p570
I6575
sstp571
a(g11
(tRp572
S'workload'
p573
g11
(tRp574
S'n_contents'
p575
I10000
sS'disconnection_rate'
p576
F0.0025000000000000001
sS'name'
p577
S'STATIONARY_SIT'
p578
sS'n_warmup'
p579
I36000
sS'rate'
p580
I100
sS'n_measured'
p581
I108000
sS'alpha'
p582
F0.69999999999999996
ssS'cache_policy'
p583
g11
(tRp584
g577
S'LRU'
p585
ssS'desc'
p586
S'strategy: NDN_SIT caching probability: 0.3'
p587
sS'strategy'
p588
g11
(tRp589
S'p'
F0.29999999999999999
sg577
S'NDN_SIT'
p590
ssS'content_placement'
p591
g11
(tRp592
g577
S'UNIFORM'
p593
ssS'joint_cache_rsn_placement'
p594
g11
(tRp595
S'network_cache'
p596
F1
sS'network_rsn'
p597
F64
sg577
S'CACHE_ALL_RSN_ALL_SIT'
p598
sS'rsn_cache_ratio'
p599
I64
ssS'warmup_strategy'
p600
g11
(tRp601
S'p'
F0.10000000000000001
sg577
S'NDN'
p602
ssS'topology'
p603
g11
(tRp604
S'ext_delay'
p605
I2
sS'source_ratio'
p606
F1
sg577
S'ROCKET_FUEL'
p607
sS'asn'
p608
I3257
ssg11
(tRp609
S'CACHE_HIT_RATIO'
p610
g11
(tRp611
S'MEAN_NETWORK_HITS'
p612
F0.20926964305083307
sS'MEAN_USER_HITS'
p613
F0
sS'MEAN'
p614
F0.20926964305083307
ssS'OVERHEAD'
p615
g11
(tRp616
g614
F0.81062465058914401
ssS'ABS'
p617
g11
(tRp618
S'MEAN_ABS_TIME'
p619
F590.65167711586275
sS'NUM_ABS'
p620
I7012
sstp621
a(g11
(tRp622
S'workload'
p623
g11
(tRp624
S'n_contents'
p625
I10000
sS'disconnection_rate'
p626
F0.0025000000000000001
sS'name'
p627
S'STATIONARY_SIT'
p628
sS'n_warmup'
p629
I36000
sS'rate'
p630
I100
sS'n_measured'
p631
I108000
sS'alpha'
p632
F0.69999999999999996
ssS'cache_policy'
p633
g11
(tRp634
g627
S'LRU'
p635
ssS'desc'
p636
S'strategy: NDN_SIT caching probability: 0.6'
p637
sS'strategy'
p638
g11
(tRp639
S'p'
F0.59999999999999998
sg627
S'NDN_SIT'
p640
ssS'content_placement'
p641
g11
(tRp642
g627
S'UNIFORM'
p643
ssS'joint_cache_rsn_placement'
p644
g11
(tRp645
S'network_cache'
p646
F1
sS'network_rsn'
p647
F64
sg627
S'CACHE_ALL_RSN_ALL_SIT'
p648
sS'rsn_cache_ratio'
p649
I64
ssS'warmup_strategy'
p650
g11
(tRp651
S'p'
F0.10000000000000001
sg627
S'NDN'
p652
ssS'topology'
p653
g11
(tRp654
S'ext_delay'
p655
I2
sS'source_ratio'
p656
F1
sg627
S'ROCKET_FUEL'
p657
sS'asn'
p658
I3257
ssg11
(tRp659
S'CACHE_HIT_RATIO'
p660
g11
(tRp661
S'MEAN_NETWORK_HITS'
p662
F0.19232524548204816
sS'MEAN_USER_HITS'
p663
F0
sS'MEAN'
p664
F0.19232524548204816
ssS'OVERHEAD'
p665
g11
(tRp666
g664
F0.80864081942194799
ssS'ABS'
p667
g11
(tRp668
S'MEAN_ABS_TIME'
p669
F616.08323688237704
sS'NUM_ABS'
p670
I7407
sstp671
a(g11
(tRp672
S'workload'
p673
g11
(tRp674
S'n_contents'
p675
I10000
sS'disconnection_rate'
p676
F0.0025000000000000001
sS'name'
p677
S'STATIONARY_SIT'
p678
sS'n_warmup'
p679
I36000
sS'rate'
p680
I100
sS'n_measured'
p681
I108000
sS'alpha'
p682
F0.69999999999999996
ssS'cache_policy'
p683
g11
(tRp684
g677
S'LRU'
p685
ssS'desc'
p686
S'strategy: NDN_SIT caching probability: 0.2'
p687
sS'strategy'
p688
g11
(tRp689
S'p'
F0.20000000000000001
sg677
S'NDN_SIT'
p690
ssS'content_placement'
p691
g11
(tRp692
g677
S'UNIFORM'
p693
ssS'joint_cache_rsn_placement'
p694
g11
(tRp695
S'network_cache'
p696
F1
sS'network_rsn'
p697
F64
sg677
S'CACHE_ALL_RSN_ALL_SIT'
p698
sS'rsn_cache_ratio'
p699
I64
ssS'warmup_strategy'
p700
g11
(tRp701
S'p'
F0.10000000000000001
sg677
S'NDN'
p702
ssS'topology'
p703
g11
(tRp704
S'ext_delay'
p705
I2
sS'source_ratio'
p706
F1
sg677
S'ROCKET_FUEL'
p707
sS'asn'
p708
I3257
ssg11
(tRp709
S'CACHE_HIT_RATIO'
p710
g11
(tRp711
S'MEAN_NETWORK_HITS'
p712
F0.22456874413958508
sS'MEAN_USER_HITS'
p713
F0
sS'MEAN'
p714
F0.22456874413958508
ssS'OVERHEAD'
p715
g11
(tRp716
g714
F0.81307018300766387
ssS'ABS'
p717
g11
(tRp718
S'MEAN_ABS_TIME'
p719
F578.80012580930486
sS'NUM_ABS'
p720
I6831
sstp721
a(g11
(tRp722
S'workload'
p723
g11
(tRp724
S'n_contents'
p725
I10000
sS'disconnection_rate'
p726
F0.0025000000000000001
sS'name'
p727
S'STATIONARY_SIT'
p728
sS'n_warmup'
p729
I36000
sS'rate'
p730
I100
sS'n_measured'
p731
I108000
sS'alpha'
p732
F0.69999999999999996
ssS'cache_policy'
p733
g11
(tRp734
g727
S'LRU'
p735
ssS'desc'
p736
S'strategy: NDN_SIT caching probability: 1.0'
p737
sS'strategy'
p738
g11
(tRp739
S'p'
F1
sg727
S'NDN_SIT'
p740
ssS'content_placement'
p741
g11
(tRp742
g727
S'UNIFORM'
p743
ssS'joint_cache_rsn_placement'
p744
g11
(tRp745
S'network_cache'
p746
F1
sS'network_rsn'
p747
F64
sg727
S'CACHE_ALL_RSN_ALL_SIT'
p748
sS'rsn_cache_ratio'
p749
I64
ssS'warmup_strategy'
p750
g11
(tRp751
S'p'
F0.10000000000000001
sg727
S'NDN'
p752
ssS'topology'
p753
g11
(tRp754
S'ext_delay'
p755
I2
sS'source_ratio'
p756
F1
sg727
S'ROCKET_FUEL'
p757
sS'asn'
p758
I3257
ssg11
(tRp759
S'CACHE_HIT_RATIO'
p760
g11
(tRp761
S'MEAN_NETWORK_HITS'
p762
F0.1673702192542813
sS'MEAN_USER_HITS'
p763
F0
sS'MEAN'
p764
F0.1673702192542813
ssS'OVERHEAD'
p765
g11
(tRp766
g764
F0.80669619805962445
ssS'ABS'
p767
g11
(tRp768
S'MEAN_ABS_TIME'
p769
F642.66322056679292
sS'NUM_ABS'
p770
I7765
sstp771
a(g11
(tRp772
S'workload'
p773
g11
(tRp774
S'n_contents'
p775
I10000
sS'disconnection_rate'
p776
F0.0025000000000000001
sS'name'
p777
S'STATIONARY_SIT'
p778
sS'n_warmup'
p779
I36000
sS'rate'
p780
I100
sS'n_measured'
p781
I108000
sS'alpha'
p782
F0.69999999999999996
ssS'cache_policy'
p783
g11
(tRp784
g777
S'LRU'
p785
ssS'desc'
p786
S'strategy: NDN_SIT caching probability: 0.5'
p787
sS'strategy'
p788
g11
(tRp789
S'p'
F0.5
sg777
S'NDN_SIT'
p790
ssS'content_placement'
p791
g11
(tRp792
g777
S'UNIFORM'
p793
ssS'joint_cache_rsn_placement'
p794
g11
(tRp795
S'network_cache'
p796
F1
sS'network_rsn'
p797
F64
sg777
S'CACHE_ALL_RSN_ALL_SIT'
p798
sS'rsn_cache_ratio'
p799
I64
ssS'warmup_strategy'
p800
g11
(tRp801
S'p'
F0.10000000000000001
sg777
S'NDN'
p802
ssS'topology'
p803
g11
(tRp804
S'ext_delay'
p805
I2
sS'source_ratio'
p806
F1
sg777
S'ROCKET_FUEL'
p807
sS'asn'
p808
I3257
ssg11
(tRp809
S'CACHE_HIT_RATIO'
p810
g11
(tRp811
S'MEAN_NETWORK_HITS'
p812
F0.19534572336473272
sS'MEAN_USER_HITS'
p813
F0
sS'MEAN'
p814
F0.19534572336473272
ssS'OVERHEAD'
p815
g11
(tRp816
g814
F0.80893223582578222
ssS'ABS'
p817
g11
(tRp818
S'MEAN_ABS_TIME'
p819
F610.5941189596374
sS'NUM_ABS'
p820
I7339
sstp821
a(g11
(tRp822
S'workload'
p823
g11
(tRp824
S'n_contents'
p825
I10000
sS'disconnection_rate'
p826
F0.0025000000000000001
sS'name'
p827
S'STATIONARY_SIT'
p828
sS'n_warmup'
p829
I36000
sS'rate'
p830
I100
sS'n_measured'
p831
I108000
sS'alpha'
p832
F0.69999999999999996
ssS'cache_policy'
p833
g11
(tRp834
g827
S'LRU'
p835
ssS'desc'
p836
S'strategy: NDN_SIT caching probability: 0.4'
p837
sS'strategy'
p838
g11
(tRp839
S'p'
F0.40000000000000002
sg827
S'NDN_SIT'
p840
ssS'content_placement'
p841
g11
(tRp842
g827
S'UNIFORM'
p843
ssS'joint_cache_rsn_placement'
p844
g11
(tRp845
S'network_cache'
p846
F1
sS'network_rsn'
p847
F64
sg827
S'CACHE_ALL_RSN_ALL_SIT'
p848
sS'rsn_cache_ratio'
p849
I64
ssS'warmup_strategy'
p850
g11
(tRp851
S'p'
F0.10000000000000001
sg827
S'NDN'
p852
ssS'topology'
p853
g11
(tRp854
S'ext_delay'
p855
I2
sS'source_ratio'
p856
F1
sg827
S'ROCKET_FUEL'
p857
sS'asn'
p858
I3257
ssg11
(tRp859
S'CACHE_HIT_RATIO'
p860
g11
(tRp861
S'MEAN_NETWORK_HITS'
p862
F0.20236838135465379
sS'MEAN_USER_HITS'
p863
F0
sS'MEAN'
p864
F0.20236838135465379
ssS'OVERHEAD'
p865
g11
(tRp866
g864
F0.81037110332672202
ssS'ABS'
p867
g11
(tRp868
S'MEAN_ABS_TIME'
p869
F606.34782387012206
sS'NUM_ABS'
p870
I7220
sstp871
a(g11
(tRp872
S'workload'
p873
g11
(tRp874
S'n_contents'
p875
I10000
sS'disconnection_rate'
p876
F0.0025000000000000001
sS'name'
p877
S'STATIONARY_SIT'
p878
sS'n_warmup'
p879
I36000
sS'rate'
p880
I100
sS'n_measured'
p881
I108000
sS'alpha'
p882
F0.69999999999999996
ssS'cache_policy'
p883
g11
(tRp884
g877
S'LRU'
p885
ssS'desc'
p886
S'strategy: NDN_SIT caching probability: 0.8'
p887
sS'strategy'
p888
g11
(tRp889
S'p'
F0.80000000000000004
sg877
S'NDN_SIT'
p890
ssS'content_placement'
p891
g11
(tRp892
g877
S'UNIFORM'
p893
ssS'joint_cache_rsn_placement'
p894
g11
(tRp895
S'network_cache'
p896
F1
sS'network_rsn'
p897
F64
sg877
S'CACHE_ALL_RSN_ALL_SIT'
p898
sS'rsn_cache_ratio'
p899
I64
ssS'warmup_strategy'
p900
g11
(tRp901
S'p'
F0.10000000000000001
sg877
S'NDN'
p902
ssS'topology'
p903
g11
(tRp904
S'ext_delay'
p905
I2
sS'source_ratio'
p906
F1
sg877
S'ROCKET_FUEL'
p907
sS'asn'
p908
I3257
ssg11
(tRp909
S'CACHE_HIT_RATIO'
p910
g11
(tRp911
S'MEAN_NETWORK_HITS'
p912
F0.17775209340724141
sS'MEAN_USER_HITS'
p913
F0
sS'MEAN'
p914
F0.17775209340724141
ssS'OVERHEAD'
p915
g11
(tRp916
g914
F0.80597037983027109
ssS'ABS'
p917
g11
(tRp918
S'MEAN_ABS_TIME'
p919
F630.72805503307825
sS'NUM_ABS'
p920
I7576
sstp921
a(g11
(tRp922
S'workload'
p923
g11
(tRp924
S'n_contents'
p925
I10000
sS'disconnection_rate'
p926
F0.0025000000000000001
sS'name'
p927
S'STATIONARY_SIT'
p928
sS'n_warmup'
p929
I36000
sS'rate'
p930
I100
sS'n_measured'
p931
I108000
sS'alpha'
p932
F0.69999999999999996
ssS'cache_policy'
p933
g11
(tRp934
g927
S'LRU'
p935
ssS'desc'
p936
S'strategy: NDN_SIT caching probability: 0.7'
p937
sS'strategy'
p938
g11
(tRp939
S'p'
F0.69999999999999996
sg927
S'NDN_SIT'
p940
ssS'content_placement'
p941
g11
(tRp942
g927
S'UNIFORM'
p943
ssS'joint_cache_rsn_placement'
p944
g11
(tRp945
S'network_cache'
p946
F1
sS'network_rsn'
p947
F64
sg927
S'CACHE_ALL_RSN_ALL_SIT'
p948
sS'rsn_cache_ratio'
p949
I64
ssS'warmup_strategy'
p950
g11
(tRp951
S'p'
F0.10000000000000001
sg927
S'NDN'
p952
ssS'topology'
p953
g11
(tRp954
S'ext_delay'
p955
I2
sS'source_ratio'
p956
F1
sg927
S'ROCKET_FUEL'
p957
sS'asn'
p958
I3257
ssg11
(tRp959
S'CACHE_HIT_RATIO'
p960
g11
(tRp961
S'MEAN_NETWORK_HITS'
p962
F0.17734826163818504
sS'MEAN_USER_HITS'
p963
F0
sS'MEAN'
p964
F0.17734826163818504
ssS'OVERHEAD'
p965
g11
(tRp966
g964
F0.80744918798016141
ssS'ABS'
p967
g11
(tRp968
S'MEAN_ABS_TIME'
p969
F623.24134542778506
sS'NUM_ABS'
p970
I7482
sstp971
a(g11
(tRp972
S'workload'
p973
g11
(tRp974
S'n_contents'
p975
I10000
sS'disconnection_rate'
p976
F0.0025000000000000001
sS'name'
p977
S'STATIONARY_SIT'
p978
sS'n_warmup'
p979
I36000
sS'rate'
p980
I100
sS'n_measured'
p981
I108000
sS'alpha'
p982
F0.69999999999999996
ssS'cache_policy'
p983
g11
(tRp984
g977
S'LRU'
p985
ssS'desc'
p986
S'strategy: NDN_SIT caching probability: 0.9'
p987
sS'strategy'
p988
g11
(tRp989
S'p'
F0.90000000000000002
sg977
S'NDN_SIT'
p990
ssS'content_placement'
p991
g11
(tRp992
g977
S'UNIFORM'
p993
ssS'joint_cache_rsn_placement'
p994
g11
(tRp995
S'network_cache'
p996
F1
sS'network_rsn'
p997
F64
sg977
S'CACHE_ALL_RSN_ALL_SIT'
p998
sS'rsn_cache_ratio'
p999
I64
ssS'warmup_strategy'
p1000
g11
(tRp1001
S'p'
F0.10000000000000001
sg977
S'NDN'
p1002
ssS'topology'
p1003
g11
(tRp1004
S'ext_delay'
p1005
I2
sS'source_ratio'
p1006
F1
sg977
S'ROCKET_FUEL'
p1007
sS'asn'
p1008
I3257
ssg11
(tRp1009
S'CACHE_HIT_RATIO'
p1010
g11
(tRp1011
S'MEAN_NETWORK_HITS'
p1012
F0.17164365193253192
sS'MEAN_USER_HITS'
p1013
F0
sS'MEAN'
p1014
F0.17164365193253192
ssS'OVERHEAD'
p1015
g11
(tRp1016
g1014
F0.80435144020121518
ssS'ABS'
p1017
g11
(tRp1018
S'MEAN_ABS_TIME'
p1019
F635.77181743751942
sS'NUM_ABS'
p1020
I7677
sstp1021
a(g11
(tRp1022
S'workload'
p1023
g11
(tRp1024
S'n_contents'
p1025
I10000
sS'disconnection_rate'
p1026
F0.0025000000000000001
sS'name'
p1027
S'STATIONARY_SIT'
p1028
sS'n_warmup'
p1029
I36000
sS'rate'
p1030
I100
sS'n_measured'
p1031
I108000
sS'alpha'
p1032
F0.69999999999999996
ssS'cache_policy'
p1033
g11
(tRp1034
g1027
S'LRU'
p1035
ssS'desc'
p1036
S'strategy: SIT_ONLY caching probability: 0.1'
p1037
sS'strategy'
p1038
g11
(tRp1039
S'p'
F0.10000000000000001
sg1027
S'SIT_ONLY'
p1040
sS'fan_out'
p1041
I100
ssS'content_placement'
p1042
g11
(tRp1043
g1027
S'UNIFORM'
p1044
ssS'joint_cache_rsn_placement'
p1045
g11
(tRp1046
S'network_cache'
p1047
F1
sS'network_rsn'
p1048
F64
sg1027
S'CACHE_ALL_RSN_ALL_SIT'
p1049
sS'rsn_cache_ratio'
p1050
I64
ssS'warmup_strategy'
p1051
g11
(tRp1052
S'p'
F0.10000000000000001
sg1027
S'NDN'
p1053
ssS'topology'
p1054
g11
(tRp1055
S'ext_delay'
p1056
I2
sS'source_ratio'
p1057
F1
sg1027
S'ROCKET_FUEL'
p1058
sS'asn'
p1059
I3257
ssg11
(tRp1060
S'CACHE_HIT_RATIO'
p1061
g11
(tRp1062
S'MEAN_NETWORK_HITS'
p1063
F0.013987758945386064
sS'MEAN_USER_HITS'
p1064
F0.058488700564971755
sS'MEAN'
p1065
F0.072476459510357819
ssS'OVERHEAD'
p1066
g11
(tRp1067
g1065
F0.51236196052288341
ssS'ABS'
p1068
g11
(tRp1069
S'MEAN_ABS_TIME'
p1070
F768.39596341172046
sS'NUM_ABS'
p1071
I8415
sstp1072
a(g11
(tRp1073
S'workload'
p1074
g11
(tRp1075
S'n_contents'
p1076
I10000
sS'disconnection_rate'
p1077
F0.0025000000000000001
sS'name'
p1078
S'STATIONARY_SIT'
p1079
sS'n_warmup'
p1080
I36000
sS'rate'
p1081
I100
sS'n_measured'
p1082
I108000
sS'alpha'
p1083
F0.69999999999999996
ssS'cache_policy'
p1084
g11
(tRp1085
g1078
S'LRU'
p1086
ssS'desc'
p1087
S'strategy: SIT_ONLY caching probability: 0.2'
p1088
sS'strategy'
p1089
g11
(tRp1090
S'p'
F0.20000000000000001
sg1078
S'SIT_ONLY'
p1091
sS'fan_out'
p1092
I100
ssS'content_placement'
p1093
g11
(tRp1094
g1078
S'UNIFORM'
p1095
ssS'joint_cache_rsn_placement'
p1096
g11
(tRp1097
S'network_cache'
p1098
F1
sS'network_rsn'
p1099
F64
sg1078
S'CACHE_ALL_RSN_ALL_SIT'
p1100
sS'rsn_cache_ratio'
p1101
I64
ssS'warmup_strategy'
p1102
g11
(tRp1103
S'p'
F0.10000000000000001
sg1078
S'NDN'
p1104
ssS'topology'
p1105
g11
(tRp1106
S'ext_delay'
p1107
I2
sS'source_ratio'
p1108
F1
sg1078
S'ROCKET_FUEL'
p1109
sS'asn'
p1110
I3257
ssg11
(tRp1111
S'CACHE_HIT_RATIO'
p1112
g11
(tRp1113
S'MEAN_NETWORK_HITS'
p1114
F0.015487726707137739
sS'MEAN_USER_HITS'
p1115
F0.057501602503676329
sS'MEAN'
p1116
F0.072989329210814066
ssS'OVERHEAD'
p1117
g11
(tRp1118
g1116
F0.5170002819283902
ssS'ABS'
p1119
g11
(tRp1120
S'MEAN_ABS_TIME'
p1121
F777.86490301179663
sS'NUM_ABS'
p1122
I8471
sstp1123
a(g11
(tRp1124
S'workload'
p1125
g11
(tRp1126
S'n_contents'
p1127
I10000
sS'disconnection_rate'
p1128
F0.0025000000000000001
sS'name'
p1129
S'STATIONARY_SIT'
p1130
sS'n_warmup'
p1131
I36000
sS'rate'
p1132
I100
sS'n_measured'
p1133
I108000
sS'alpha'
p1134
F0.69999999999999996
ssS'cache_policy'
p1135
g11
(tRp1136
g1129
S'LRU'
p1137
ssS'desc'
p1138
S'strategy: SIT_ONLY caching probability: 0.3'
p1139
sS'strategy'
p1140
g11
(tRp1141
S'p'
F0.29999999999999999
sg1129
S'SIT_ONLY'
p1142
sS'fan_out'
p1143
I100
ssS'content_placement'
p1144
g11
(tRp1145
g1129
S'UNIFORM'
p1146
ssS'joint_cache_rsn_placement'
p1147
g11
(tRp1148
S'network_cache'
p1149
F1
sS'network_rsn'
p1150
F64
sg1129
S'CACHE_ALL_RSN_ALL_SIT'
p1151
sS'rsn_cache_ratio'
p1152
I64
ssS'warmup_strategy'
p1153
g11
(tRp1154
S'p'
F0.10000000000000001
sg1129
S'NDN'
p1155
ssS'topology'
p1156
g11
(tRp1157
S'ext_delay'
p1158
I2
sS'source_ratio'
p1159
F1
sg1129
S'ROCKET_FUEL'
p1160
sS'asn'
p1161
I3257
ssg11
(tRp1162
S'CACHE_HIT_RATIO'
p1163
g11
(tRp1164
S'MEAN_NETWORK_HITS'
p1165
F0.015780636884998492
sS'MEAN_USER_HITS'
p1166
F0.056359417446423178
sS'MEAN'
p1167
F0.072140054331421677
ssS'OVERHEAD'
p1168
g11
(tRp1169
g1167
F0.51117230301465733
ssS'ABS'
p1170
g11
(tRp1171
S'MEAN_ABS_TIME'
p1172
F759.73056165771891
sS'NUM_ABS'
p1173
I8459
sstp1174
a(g11
(tRp1175
S'workload'
p1176
g11
(tRp1177
S'n_contents'
p1178
I10000
sS'disconnection_rate'
p1179
F0.0025000000000000001
sS'name'
p1180
S'STATIONARY_SIT'
p1181
sS'n_warmup'
p1182
I36000
sS'rate'
p1183
I100
sS'n_measured'
p1184
I108000
sS'alpha'
p1185
F0.69999999999999996
ssS'cache_policy'
p1186
g11
(tRp1187
g1180
S'LRU'
p1188
ssS'desc'
p1189
S'strategy: SIT_ONLY caching probability: 0.4'
p1190
sS'strategy'
p1191
g11
(tRp1192
S'p'
F0.40000000000000002
sg1180
S'SIT_ONLY'
p1193
sS'fan_out'
p1194
I100
ssS'content_placement'
p1195
g11
(tRp1196
g1180
S'UNIFORM'
p1197
ssS'joint_cache_rsn_placement'
p1198
g11
(tRp1199
S'network_cache'
p1200
F1
sS'network_rsn'
p1201
F64
sg1180
S'CACHE_ALL_RSN_ALL_SIT'
p1202
sS'rsn_cache_ratio'
p1203
I64
ssS'warmup_strategy'
p1204
g11
(tRp1205
S'p'
F0.10000000000000001
sg1180
S'NDN'
p1206
ssS'topology'
p1207
g11
(tRp1208
S'ext_delay'
p1209
I2
sS'source_ratio'
p1210
F1
sg1180
S'ROCKET_FUEL'
p1211
sS'asn'
p1212
I3257
ssg11
(tRp1213
S'CACHE_HIT_RATIO'
p1214
g11
(tRp1215
S'MEAN_NETWORK_HITS'
p1216
F0.016677819772099641
sS'MEAN_USER_HITS'
p1217
F0.056484981008303563
sS'MEAN'
p1218
F0.073162800780403214
ssS'OVERHEAD'
p1219
g11
(tRp1220
g1218
F0.51807026860832384
ssS'ABS'
p1221
g11
(tRp1222
S'MEAN_ABS_TIME'
p1223
F770.7761492203756
sS'NUM_ABS'
p1224
I8423
sstp1225
a(g11
(tRp1226
S'workload'
p1227
g11
(tRp1228
S'n_contents'
p1229
I10000
sS'disconnection_rate'
p1230
F0.0025000000000000001
sS'name'
p1231
S'STATIONARY_SIT'
p1232
sS'n_warmup'
p1233
I36000
sS'rate'
p1234
I100
sS'n_measured'
p1235
I108000
sS'alpha'
p1236
F0.69999999999999996
ssS'cache_policy'
p1237
g11
(tRp1238
g1231
S'LRU'
p1239
ssS'desc'
p1240
S'strategy: SIT_ONLY caching probability: 0.5'
p1241
sS'strategy'
p1242
g11
(tRp1243
S'p'
F0.5
sg1231
S'SIT_ONLY'
p1244
sS'fan_out'
p1245
I100
ssS'content_placement'
p1246
g11
(tRp1247
g1231
S'UNIFORM'
p1248
ssS'joint_cache_rsn_placement'
p1249
g11
(tRp1250
S'network_cache'
p1251
F1
sS'network_rsn'
p1252
F64
sg1231
S'CACHE_ALL_RSN_ALL_SIT'
p1253
sS'rsn_cache_ratio'
p1254
I64
ssS'warmup_strategy'
p1255
g11
(tRp1256
S'p'
F0.10000000000000001
sg1231
S'NDN'
p1257
ssS'topology'
p1258
g11
(tRp1259
S'ext_delay'
p1260
I2
sS'source_ratio'
p1261
F1
sg1231
S'ROCKET_FUEL'
p1262
sS'asn'
p1263
I3257
ssg11
(tRp1264
S'CACHE_HIT_RATIO'
p1265
g11
(tRp1266
S'MEAN_NETWORK_HITS'
p1267
F0.016936003347705269
sS'MEAN_USER_HITS'
p1268
F0.056017641278334425
sS'MEAN'
p1269
F0.07295364462603969
ssS'OVERHEAD'
p1270
g11
(tRp1271
g1269
F0.50782767683693297
ssS'ABS'
p1272
g11
(tRp1273
S'MEAN_ABS_TIME'
p1274
F770.25199870969061
sS'NUM_ABS'
p1275
I8492
sstp1276
a(g11
(tRp1277
S'workload'
p1278
g11
(tRp1279
S'n_contents'
p1280
I10000
sS'disconnection_rate'
p1281
F0.0025000000000000001
sS'name'
p1282
S'STATIONARY_SIT'
p1283
sS'n_warmup'
p1284
I36000
sS'rate'
p1285
I100
sS'n_measured'
p1286
I108000
sS'alpha'
p1287
F0.69999999999999996
ssS'cache_policy'
p1288
g11
(tRp1289
g1282
S'LRU'
p1290
ssS'desc'
p1291
S'strategy: SIT_ONLY caching probability: 0.8'
p1292
sS'strategy'
p1293
g11
(tRp1294
S'p'
F0.80000000000000004
sg1282
S'SIT_ONLY'
p1295
sS'fan_out'
p1296
I100
ssS'content_placement'
p1297
g11
(tRp1298
g1282
S'UNIFORM'
p1299
ssS'joint_cache_rsn_placement'
p1300
g11
(tRp1301
S'network_cache'
p1302
F1
sS'network_rsn'
p1303
F64
sg1282
S'CACHE_ALL_RSN_ALL_SIT'
p1304
sS'rsn_cache_ratio'
p1305
I64
ssS'warmup_strategy'
p1306
g11
(tRp1307
S'p'
F0.10000000000000001
sg1282
S'NDN'
p1308
ssS'topology'
p1309
g11
(tRp1310
S'ext_delay'
p1311
I2
sS'source_ratio'
p1312
F1
sg1282
S'ROCKET_FUEL'
p1313
sS'asn'
p1314
I3257
ssg11
(tRp1315
S'CACHE_HIT_RATIO'
p1316
g11
(tRp1317
S'MEAN_NETWORK_HITS'
p1318
F0.015524395815572439
sS'MEAN_USER_HITS'
p1319
F0.056233544187536212
sS'MEAN'
p1320
F0.071757940003108645
ssS'OVERHEAD'
p1321
g11
(tRp1322
g1320
F0.50211007820569575
ssS'ABS'
p1323
g11
(tRp1324
S'MEAN_ABS_TIME'
p1325
F773.07503560891951
sS'NUM_ABS'
p1326
I8569
sstp1327
a(g11
(tRp1328
S'workload'
p1329
g11
(tRp1330
S'n_contents'
p1331
I10000
sS'disconnection_rate'
p1332
F0.0025000000000000001
sS'name'
p1333
S'STATIONARY_SIT'
p1334
sS'n_warmup'
p1335
I36000
sS'rate'
p1336
I100
sS'n_measured'
p1337
I108000
sS'alpha'
p1338
F0.69999999999999996
ssS'cache_policy'
p1339
g11
(tRp1340
g1333
S'LRU'
p1341
ssS'desc'
p1342
S'strategy: SIT_ONLY caching probability: 0.9'
p1343
sS'strategy'
p1344
g11
(tRp1345
S'p'
F0.90000000000000002
sg1333
S'SIT_ONLY'
p1346
sS'fan_out'
p1347
I100
ssS'content_placement'
p1348
g11
(tRp1349
g1333
S'UNIFORM'
p1350
ssS'joint_cache_rsn_placement'
p1351
g11
(tRp1352
S'network_cache'
p1353
F1
sS'network_rsn'
p1354
F64
sg1333
S'CACHE_ALL_RSN_ALL_SIT'
p1355
sS'rsn_cache_ratio'
p1356
I64
ssS'warmup_strategy'
p1357
g11
(tRp1358
S'p'
F0.10000000000000001
sg1333
S'NDN'
p1359
ssS'topology'
p1360
g11
(tRp1361
S'ext_delay'
p1362
I2
sS'source_ratio'
p1363
F1
sg1333
S'ROCKET_FUEL'
p1364
sS'asn'
p1365
I3257
ssg11
(tRp1366
S'CACHE_HIT_RATIO'
p1367
g11
(tRp1368
S'MEAN_NETWORK_HITS'
p1369
F0.015884595472301973
sS'MEAN_USER_HITS'
p1370
F0.055108956558572973
sS'MEAN'
p1371
F0.070993552030874943
ssS'OVERHEAD'
p1372
g11
(tRp1373
g1371
F0.50469148999346758
ssS'ABS'
p1374
g11
(tRp1375
S'MEAN_ABS_TIME'
p1376
F775.62905957570922
sS'NUM_ABS'
p1377
I8596
sstp1378
a(g11
(tRp1379
S'workload'
p1380
g11
(tRp1381
S'n_contents'
p1382
I10000
sS'disconnection_rate'
p1383
F0.0025000000000000001
sS'name'
p1384
S'STATIONARY_SIT'
p1385
sS'n_warmup'
p1386
I36000
sS'rate'
p1387
I100
sS'n_measured'
p1388
I108000
sS'alpha'
p1389
F0.69999999999999996
ssS'cache_policy'
p1390
g11
(tRp1391
g1384
S'LRU'
p1392
ssS'desc'
p1393
S'strategy: SIT_ONLY caching probability: 1.0'
p1394
sS'strategy'
p1395
g11
(tRp1396
S'p'
F1
sg1384
S'SIT_ONLY'
p1397
sS'fan_out'
p1398
I100
ssS'content_placement'
p1399
g11
(tRp1400
g1384
S'UNIFORM'
p1401
ssS'joint_cache_rsn_placement'
p1402
g11
(tRp1403
S'network_cache'
p1404
F1
sS'network_rsn'
p1405
F64
sg1384
S'CACHE_ALL_RSN_ALL_SIT'
p1406
sS'rsn_cache_ratio'
p1407
I64
ssS'warmup_strategy'
p1408
g11
(tRp1409
S'p'
F0.10000000000000001
sg1384
S'NDN'
p1410
ssS'topology'
p1411
g11
(tRp1412
S'ext_delay'
p1413
I2
sS'source_ratio'
p1414
F1
sg1384
S'ROCKET_FUEL'
p1415
sS'asn'
p1416
I3257
ssg11
(tRp1417
S'CACHE_HIT_RATIO'
p1418
g11
(tRp1419
S'MEAN_NETWORK_HITS'
p1420
F0.017496869674916916
sS'MEAN_USER_HITS'
p1421
F0.05573861550193468
sS'MEAN'
p1422
F0.073235485176851606
ssS'OVERHEAD'
p1423
g11
(tRp1424
g1422
F0.5133122116613863
ssS'ABS'
p1425
g11
(tRp1426
S'MEAN_ABS_TIME'
p1427
F771.72413744602045
sS'NUM_ABS'
p1428
I8589
sstp1429
a(g11
(tRp1430
S'workload'
p1431
g11
(tRp1432
S'n_contents'
p1433
I10000
sS'disconnection_rate'
p1434
F0.0025000000000000001
sS'name'
p1435
S'STATIONARY_SIT'
p1436
sS'n_warmup'
p1437
I36000
sS'rate'
p1438
I100
sS'n_measured'
p1439
I108000
sS'alpha'
p1440
F0.69999999999999996
ssS'cache_policy'
p1441
g11
(tRp1442
g1435
S'LRU'
p1443
ssS'desc'
p1444
S'strategy: SIT_ONLY caching probability: 0.6'
p1445
sS'strategy'
p1446
g11
(tRp1447
S'p'
F0.59999999999999998
sg1435
S'SIT_ONLY'
p1448
sS'fan_out'
p1449
I100
ssS'content_placement'
p1450
g11
(tRp1451
g1435
S'UNIFORM'
p1452
ssS'joint_cache_rsn_placement'
p1453
g11
(tRp1454
S'network_cache'
p1455
F1
sS'network_rsn'
p1456
F64
sg1435
S'CACHE_ALL_RSN_ALL_SIT'
p1457
sS'rsn_cache_ratio'
p1458
I64
ssS'warmup_strategy'
p1459
g11
(tRp1460
S'p'
F0.10000000000000001
sg1435
S'NDN'
p1461
ssS'topology'
p1462
g11
(tRp1463
S'ext_delay'
p1464
I2
sS'source_ratio'
p1465
F1
sg1435
S'ROCKET_FUEL'
p1466
sS'asn'
p1467
I3257
ssg11
(tRp1468
S'CACHE_HIT_RATIO'
p1469
g11
(tRp1470
S'MEAN_NETWORK_HITS'
p1471
F0.016331125703034469
sS'MEAN_USER_HITS'
p1472
F0.057702996787473974
sS'MEAN'
p1473
F0.074034122490508447
ssS'OVERHEAD'
p1474
g11
(tRp1475
g1473
F0.50776084276588596
ssS'ABS'
p1476
g11
(tRp1477
S'MEAN_ABS_TIME'
p1478
F768.25660652385125
sS'NUM_ABS'
p1479
I8530
sstp1480
a(g11
(tRp1481
S'workload'
p1482
g11
(tRp1483
S'n_contents'
p1484
I10000
sS'disconnection_rate'
p1485
F0.0025000000000000001
sS'name'
p1486
S'STATIONARY_SIT'
p1487
sS'n_warmup'
p1488
I36000
sS'rate'
p1489
I100
sS'n_measured'
p1490
I108000
sS'alpha'
p1491
F0.69999999999999996
ssS'cache_policy'
p1492
g11
(tRp1493
g1486
S'LRU'
p1494
ssS'desc'
p1495
S'strategy: SIT_ONLY caching probability: 0.7'
p1496
sS'strategy'
p1497
g11
(tRp1498
S'p'
F0.69999999999999996
sg1486
S'SIT_ONLY'
p1499
sS'fan_out'
p1500
I100
ssS'content_placement'
p1501
g11
(tRp1502
g1486
S'UNIFORM'
p1503
ssS'joint_cache_rsn_placement'
p1504
g11
(tRp1505
S'network_cache'
p1506
F1
sS'network_rsn'
p1507
F64
sg1486
S'CACHE_ALL_RSN_ALL_SIT'
p1508
sS'rsn_cache_ratio'
p1509
I64
ssS'warmup_strategy'
p1510
g11
(tRp1511
S'p'
F0.10000000000000001
sg1486
S'NDN'
p1512
ssS'topology'
p1513
g11
(tRp1514
S'ext_delay'
p1515
I2
sS'source_ratio'
p1516
F1
sg1486
S'ROCKET_FUEL'
p1517
sS'asn'
p1518
I3257
ssg11
(tRp1519
S'CACHE_HIT_RATIO'
p1520
g11
(tRp1521
S'MEAN_NETWORK_HITS'
p1522
F0.017151520002259876
sS'MEAN_USER_HITS'
p1523
F0.055757741253572253
sS'MEAN'
p1524
F0.072909261255832122
ssS'OVERHEAD'
p1525
g11
(tRp1526
g1524
F0.51310080576998929
ssS'ABS'
p1527
g11
(tRp1528
S'MEAN_ABS_TIME'
p1529
F772.49703503357364
sS'NUM_ABS'
p1530
I8495
sstp1531
a(g11
(tRp1532
S'workload'
p1533
g11
(tRp1534
S'n_contents'
p1535
I10000
sS'disconnection_rate'
p1536
F0.0025000000000000001
sS'name'
p1537
S'STATIONARY_SIT'
p1538
sS'n_warmup'
p1539
I36000
sS'rate'
p1540
I100
sS'n_measured'
p1541
I108000
sS'alpha'
p1542
F0.69999999999999996
ssS'cache_policy'
p1543
g11
(tRp1544
g1537
S'LRU'
p1545
ssS'desc'
p1546
S'strategy: SIT_WITH_SCOPED_FLOODING caching probability: 0.1'
p1547
sS'strategy'
p1548
g11
(tRp1549
S'fan_out'
p1550
I1
sg1537
S'SIT_WITH_SCOPED_FLOODING'
p1551
sS'p'
F0.10000000000000001
sS'scope'
p1552
I1
ssS'content_placement'
p1553
g11
(tRp1554
g1537
S'UNIFORM'
p1555
ssS'joint_cache_rsn_placement'
p1556
g11
(tRp1557
S'network_cache'
p1558
F1
sS'network_rsn'
p1559
F64
sg1537
S'CACHE_ALL_RSN_ALL_SIT'
p1560
sS'rsn_cache_ratio'
p1561
I64
ssS'warmup_strategy'
p1562
g11
(tRp1563
S'p'
F0.10000000000000001
sg1537
S'NDN'
p1564
ssS'topology'
p1565
g11
(tRp1566
S'ext_delay'
p1567
I2
sS'source_ratio'
p1568
F1
sg1537
S'ROCKET_FUEL'
p1569
sS'asn'
p1570
I3257
ssg11
(tRp1571
S'CACHE_HIT_RATIO'
p1572
g11
(tRp1573
S'MEAN_NETWORK_HITS'
p1574
F0.059141431512884181
sS'MEAN_USER_HITS'
p1575
F0.12710790295754273
sS'MEAN'
p1576
F0.18624933447042694
ssS'OVERHEAD'
p1577
g11
(tRp1578
g1576
F0.69739524757477156
ssS'ABS'
p1579
g11
(tRp1580
S'MEAN_ABS_TIME'
p1581
F853.72770826113526
sS'NUM_ABS'
p1582
I8686
sstp1583
a(g11
(tRp1584
S'workload'
p1585
g11
(tRp1586
S'n_contents'
p1587
I10000
sS'disconnection_rate'
p1588
F0.0025000000000000001
sS'name'
p1589
S'STATIONARY_SIT'
p1590
sS'n_warmup'
p1591
I36000
sS'rate'
p1592
I100
sS'n_measured'
p1593
I108000
sS'alpha'
p1594
F0.69999999999999996
ssS'cache_policy'
p1595
g11
(tRp1596
g1589
S'LRU'
p1597
ssS'desc'
p1598
S'strategy: SIT_WITH_SCOPED_FLOODING caching probability: 0.2'
p1599
sS'strategy'
p1600
g11
(tRp1601
S'fan_out'
p1602
I1
sg1589
S'SIT_WITH_SCOPED_FLOODING'
p1603
sS'p'
F0.20000000000000001
sS'scope'
p1604
I1
ssS'content_placement'
p1605
g11
(tRp1606
g1589
S'UNIFORM'
p1607
ssS'joint_cache_rsn_placement'
p1608
g11
(tRp1609
S'network_cache'
p1610
F1
sS'network_rsn'
p1611
F64
sg1589
S'CACHE_ALL_RSN_ALL_SIT'
p1612
sS'rsn_cache_ratio'
p1613
I64
ssS'warmup_strategy'
p1614
g11
(tRp1615
S'p'
F0.10000000000000001
sg1589
S'NDN'
p1616
ssS'topology'
p1617
g11
(tRp1618
S'ext_delay'
p1619
I2
sS'source_ratio'
p1620
F1
sg1589
S'ROCKET_FUEL'
p1621
sS'asn'
p1622
I3257
ssg11
(tRp1623
S'CACHE_HIT_RATIO'
p1624
g11
(tRp1625
S'MEAN_NETWORK_HITS'
p1626
F0.06539901774457596
sS'MEAN_USER_HITS'
p1627
F0.12182695745441545
sS'MEAN'
p1628
F0.1872259751989914
ssS'OVERHEAD'
p1629
g11
(tRp1630
g1628
F0.69313925774599927
ssS'ABS'
p1631
g11
(tRp1632
S'MEAN_ABS_TIME'
p1633
F864.41676662391808
sS'NUM_ABS'
p1634
I8748
sstp1635
a(g11
(tRp1636
S'workload'
p1637
g11
(tRp1638
S'n_contents'
p1639
I10000
sS'disconnection_rate'
p1640
F0.0025000000000000001
sS'name'
p1641
S'STATIONARY_SIT'
p1642
sS'n_warmup'
p1643
I36000
sS'rate'
p1644
I100
sS'n_measured'
p1645
I108000
sS'alpha'
p1646
F0.69999999999999996
ssS'cache_policy'
p1647
g11
(tRp1648
g1641
S'LRU'
p1649
ssS'desc'
p1650
S'strategy: SIT_WITH_SCOPED_FLOODING caching probability: 0.3'
p1651
sS'strategy'
p1652
g11
(tRp1653
S'fan_out'
p1654
I1
sg1641
S'SIT_WITH_SCOPED_FLOODING'
p1655
sS'p'
F0.29999999999999999
sS'scope'
p1656
I1
ssS'content_placement'
p1657
g11
(tRp1658
g1641
S'UNIFORM'
p1659
ssS'joint_cache_rsn_placement'
p1660
g11
(tRp1661
S'network_cache'
p1662
F1
sS'network_rsn'
p1663
F64
sg1641
S'CACHE_ALL_RSN_ALL_SIT'
p1664
sS'rsn_cache_ratio'
p1665
I64
ssS'warmup_strategy'
p1666
g11
(tRp1667
S'p'
F0.10000000000000001
sg1641
S'NDN'
p1668
ssS'topology'
p1669
g11
(tRp1670
S'ext_delay'
p1671
I2
sS'source_ratio'
p1672
F1
sg1641
S'ROCKET_FUEL'
p1673
sS'asn'
p1674
I3257
ssg11
(tRp1675
S'CACHE_HIT_RATIO'
p1676
g11
(tRp1677
S'MEAN_NETWORK_HITS'
p1678
F0.068548975318227803
sS'MEAN_USER_HITS'
p1679
F0.11770075998211807
sS'MEAN'
p1680
F0.18624973530034589
ssS'OVERHEAD'
p1681
g11
(tRp1682
g1680
F0.68947013350333297
ssS'ABS'
p1683
g11
(tRp1684
S'MEAN_ABS_TIME'
p1685
F851.54347408067974
sS'NUM_ABS'
p1686
I8837
sstp1687
a(g11
(tRp1688
S'workload'
p1689
g11
(tRp1690
S'n_contents'
p1691
I10000
sS'disconnection_rate'
p1692
F0.0025000000000000001
sS'name'
p1693
S'STATIONARY_SIT'
p1694
sS'n_warmup'
p1695
I36000
sS'rate'
p1696
I100
sS'n_measured'
p1697
I108000
sS'alpha'
p1698
F0.69999999999999996
ssS'cache_policy'
p1699
g11
(tRp1700
g1693
S'LRU'
p1701
ssS'desc'
p1702
S'strategy: SIT_WITH_SCOPED_FLOODING caching probability: 0.4'
p1703
sS'strategy'
p1704
g11
(tRp1705
S'fan_out'
p1706
I1
sg1693
S'SIT_WITH_SCOPED_FLOODING'
p1707
sS'p'
F0.40000000000000002
sS'scope'
p1708
I1
ssS'content_placement'
p1709
g11
(tRp1710
g1693
S'UNIFORM'
p1711
ssS'joint_cache_rsn_placement'
p1712
g11
(tRp1713
S'network_cache'
p1714
F1
sS'network_rsn'
p1715
F64
sg1693
S'CACHE_ALL_RSN_ALL_SIT'
p1716
sS'rsn_cache_ratio'
p1717
I64
ssS'warmup_strategy'
p1718
g11
(tRp1719
S'p'
F0.10000000000000001
sg1693
S'NDN'
p1720
ssS'topology'
p1721
g11
(tRp1722
S'ext_delay'
p1723
I2
sS'source_ratio'
p1724
F1
sg1693
S'ROCKET_FUEL'
p1725
sS'asn'
p1726
I3257
ssg11
(tRp1727
S'CACHE_HIT_RATIO'
p1728
g11
(tRp1729
S'MEAN_NETWORK_HITS'
p1730
F0.071422178887522905
sS'MEAN_USER_HITS'
p1731
F0.11903853491033957
sS'MEAN'
p1732
F0.19046071379786247
ssS'OVERHEAD'
p1733
g11
(tRp1734
g1732
F0.68825607730635663
ssS'ABS'
p1735
g11
(tRp1736
S'MEAN_ABS_TIME'
p1737
F857.75166521075096
sS'NUM_ABS'
p1738
I8874
sstp1739
a(g11
(tRp1740
S'workload'
p1741
g11
(tRp1742
S'n_contents'
p1743
I10000
sS'disconnection_rate'
p1744
F0.0025000000000000001
sS'name'
p1745
S'STATIONARY_SIT'
p1746
sS'n_warmup'
p1747
I36000
sS'rate'
p1748
I100
sS'n_measured'
p1749
I108000
sS'alpha'
p1750
F0.69999999999999996
ssS'cache_policy'
p1751
g11
(tRp1752
g1745
S'LRU'
p1753
ssS'desc'
p1754
S'strategy: SIT_WITH_SCOPED_FLOODING caching probability: 0.6'
p1755
sS'strategy'
p1756
g11
(tRp1757
S'fan_out'
p1758
I1
sg1745
S'SIT_WITH_SCOPED_FLOODING'
p1759
sS'p'
F0.59999999999999998
sS'scope'
p1760
I1
ssS'content_placement'
p1761
g11
(tRp1762
g1745
S'UNIFORM'
p1763
ssS'joint_cache_rsn_placement'
p1764
g11
(tRp1765
S'network_cache'
p1766
F1
sS'network_rsn'
p1767
F64
sg1745
S'CACHE_ALL_RSN_ALL_SIT'
p1768
sS'rsn_cache_ratio'
p1769
I64
ssS'warmup_strategy'
p1770
g11
(tRp1771
S'p'
F0.10000000000000001
sg1745
S'NDN'
p1772
ssS'topology'
p1773
g11
(tRp1774
S'ext_delay'
p1775
I2
sS'source_ratio'
p1776
F1
sg1745
S'ROCKET_FUEL'
p1777
sS'asn'
p1778
I3257
ssg11
(tRp1779
S'CACHE_HIT_RATIO'
p1780
g11
(tRp1781
S'MEAN_NETWORK_HITS'
p1782
F0.073989055068747561
sS'MEAN_USER_HITS'
p1783
F0.11425244988286755
sS'MEAN'
p1784
F0.1882415049516151
ssS'OVERHEAD'
p1785
g11
(tRp1786
g1784
F0.68796398382947443
ssS'ABS'
p1787
g11
(tRp1788
S'MEAN_ABS_TIME'
p1789
F874.09680100294906
sS'NUM_ABS'
p1790
I9044
sstp1791
a(g11
(tRp1792
S'workload'
p1793
g11
(tRp1794
S'n_contents'
p1795
I10000
sS'disconnection_rate'
p1796
F0.0025000000000000001
sS'name'
p1797
S'STATIONARY_SIT'
p1798
sS'n_warmup'
p1799
I36000
sS'rate'
p1800
I100
sS'n_measured'
p1801
I108000
sS'alpha'
p1802
F0.69999999999999996
ssS'cache_policy'
p1803
g11
(tRp1804
g1797
S'LRU'
p1805
ssS'desc'
p1806
S'strategy: SIT_WITH_SCOPED_FLOODING caching probability: 0.7'
p1807
sS'strategy'
p1808
g11
(tRp1809
S'fan_out'
p1810
I1
sg1797
S'SIT_WITH_SCOPED_FLOODING'
p1811
sS'p'
F0.69999999999999996
sS'scope'
p1812
I1
ssS'content_placement'
p1813
g11
(tRp1814
g1797
S'UNIFORM'
p1815
ssS'joint_cache_rsn_placement'
p1816
g11
(tRp1817
S'network_cache'
p1818
F1
sS'network_rsn'
p1819
F64
sg1797
S'CACHE_ALL_RSN_ALL_SIT'
p1820
sS'rsn_cache_ratio'
p1821
I64
ssS'warmup_strategy'
p1822
g11
(tRp1823
S'p'
F0.10000000000000001
sg1797
S'NDN'
p1824
ssS'topology'
p1825
g11
(tRp1826
S'ext_delay'
p1827
I2
sS'source_ratio'
p1828
F1
sg1797
S'ROCKET_FUEL'
p1829
sS'asn'
p1830
I3257
ssg11
(tRp1831
S'CACHE_HIT_RATIO'
p1832
g11
(tRp1833
S'MEAN_NETWORK_HITS'
p1834
F0.074679410142939953
sS'MEAN_USER_HITS'
p1835
F0.11256580280601546
sS'MEAN'
p1836
F0.18724521294895541
ssS'OVERHEAD'
p1837
g11
(tRp1838
g1836
F0.68618825491952673
ssS'ABS'
p1839
g11
(tRp1840
S'MEAN_ABS_TIME'
p1841
F867.45056869331268
sS'NUM_ABS'
p1842
I8985
sstp1843
a(g11
(tRp1844
S'workload'
p1845
g11
(tRp1846
S'n_contents'
p1847
I10000
sS'disconnection_rate'
p1848
F0.0025000000000000001
sS'name'
p1849
S'STATIONARY_SIT'
p1850
sS'n_warmup'
p1851
I36000
sS'rate'
p1852
I100
sS'n_measured'
p1853
I108000
sS'alpha'
p1854
F0.69999999999999996
ssS'cache_policy'
p1855
g11
(tRp1856
g1849
S'LRU'
p1857
ssS'desc'
p1858
S'strategy: SIT_WITH_SCOPED_FLOODING caching probability: 0.5'
p1859
sS'strategy'
p1860
g11
(tRp1861
S'fan_out'
p1862
I1
sg1849
S'SIT_WITH_SCOPED_FLOODING'
p1863
sS'p'
F0.5
sS'scope'
p1864
I1
ssS'content_placement'
p1865
g11
(tRp1866
g1849
S'UNIFORM'
p1867
ssS'joint_cache_rsn_placement'
p1868
g11
(tRp1869
S'network_cache'
p1870
F1
sS'network_rsn'
p1871
F64
sg1849
S'CACHE_ALL_RSN_ALL_SIT'
p1872
sS'rsn_cache_ratio'
p1873
I64
ssS'warmup_strategy'
p1874
g11
(tRp1875
S'p'
F0.10000000000000001
sg1849
S'NDN'
p1876
ssS'topology'
p1877
g11
(tRp1878
S'ext_delay'
p1879
I2
sS'source_ratio'
p1880
F1
sg1849
S'ROCKET_FUEL'
p1881
sS'asn'
p1882
I3257
ssg11
(tRp1883
S'CACHE_HIT_RATIO'
p1884
g11
(tRp1885
S'MEAN_NETWORK_HITS'
p1886
F0.073010317135477676
sS'MEAN_USER_HITS'
p1887
F0.11542677562465009
sS'MEAN'
p1888
F0.18843709276012777
ssS'OVERHEAD'
p1889
g11
(tRp1890
g1888
F0.68810554903112153
ssS'ABS'
p1891
g11
(tRp1892
S'MEAN_ABS_TIME'
p1893
F851.7646123758783
sS'NUM_ABS'
p1894
I8947
sstp1895
a(g11
(tRp1896
S'workload'
p1897
g11
(tRp1898
S'n_contents'
p1899
I10000
sS'disconnection_rate'
p1900
F0.0025000000000000001
sS'name'
p1901
S'STATIONARY_SIT'
p1902
sS'n_warmup'
p1903
I36000
sS'rate'
p1904
I100
sS'n_measured'
p1905
I108000
sS'alpha'
p1906
F0.69999999999999996
ssS'cache_policy'
p1907
g11
(tRp1908
g1901
S'LRU'
p1909
ssS'desc'
p1910
S'strategy: SIT_WITH_SCOPED_FLOODING caching probability: 0.8'
p1911
sS'strategy'
p1912
g11
(tRp1913
S'fan_out'
p1914
I1
sg1901
S'SIT_WITH_SCOPED_FLOODING'
p1915
sS'p'
F0.80000000000000004
sS'scope'
p1916
I1
ssS'content_placement'
p1917
g11
(tRp1918
g1901
S'UNIFORM'
p1919
ssS'joint_cache_rsn_placement'
p1920
g11
(tRp1921
S'network_cache'
p1922
F1
sS'network_rsn'
p1923
F64
sg1901
S'CACHE_ALL_RSN_ALL_SIT'
p1924
sS'rsn_cache_ratio'
p1925
I64
ssS'warmup_strategy'
p1926
g11
(tRp1927
S'p'
F0.10000000000000001
sg1901
S'NDN'
p1928
ssS'topology'
p1929
g11
(tRp1930
S'ext_delay'
p1931
I2
sS'source_ratio'
p1932
F1
sg1901
S'ROCKET_FUEL'
p1933
sS'asn'
p1934
I3257
ssg11
(tRp1935
S'CACHE_HIT_RATIO'
p1936
g11
(tRp1937
S'MEAN_NETWORK_HITS'
p1938
F0.075485827861980617
sS'MEAN_USER_HITS'
p1939
F0.11103627577501672
sS'MEAN'
p1940
F0.18652210363699734
ssS'OVERHEAD'
p1941
g11
(tRp1942
g1940
F0.68748840947023548
ssS'ABS'
p1943
g11
(tRp1944
S'MEAN_ABS_TIME'
p1945
F878.60878135584062
sS'NUM_ABS'
p1946
I9095
sstp1947
a(g11
(tRp1948
S'workload'
p1949
g11
(tRp1950
S'n_contents'
p1951
I10000
sS'disconnection_rate'
p1952
F0.0025000000000000001
sS'name'
p1953
S'STATIONARY_SIT'
p1954
sS'n_warmup'
p1955
I36000
sS'rate'
p1956
I100
sS'n_measured'
p1957
I108000
sS'alpha'
p1958
F0.69999999999999996
ssS'cache_policy'
p1959
g11
(tRp1960
g1953
S'LRU'
p1961
ssS'desc'
p1962
S'strategy: SIT_WITH_SCOPED_FLOODING caching probability: 0.9'
p1963
sS'strategy'
p1964
g11
(tRp1965
S'fan_out'
p1966
I1
sg1953
S'SIT_WITH_SCOPED_FLOODING'
p1967
sS'p'
F0.90000000000000002
sS'scope'
p1968
I1
ssS'content_placement'
p1969
g11
(tRp1970
g1953
S'UNIFORM'
p1971
ssS'joint_cache_rsn_placement'
p1972
g11
(tRp1973
S'network_cache'
p1974
F1
sS'network_rsn'
p1975
F64
sg1953
S'CACHE_ALL_RSN_ALL_SIT'
p1976
sS'rsn_cache_ratio'
p1977
I64
ssS'warmup_strategy'
p1978
g11
(tRp1979
S'p'
F0.10000000000000001
sg1953
S'NDN'
p1980
ssS'topology'
p1981
g11
(tRp1982
S'ext_delay'
p1983
I2
sS'source_ratio'
p1984
F1
sg1953
S'ROCKET_FUEL'
p1985
sS'asn'
p1986
I3257
ssg11
(tRp1987
S'CACHE_HIT_RATIO'
p1988
g11
(tRp1989
S'MEAN_NETWORK_HITS'
p1990
F0.074294821618868884
sS'MEAN_USER_HITS'
p1991
F0.11339438120655998
sS'MEAN'
p1992
F0.18768920282542886
ssS'OVERHEAD'
p1993
g11
(tRp1994
g1992
F0.69038651159657283
ssS'ABS'
p1995
g11
(tRp1996
S'MEAN_ABS_TIME'
p1997
F876.31304058276544
sS'NUM_ABS'
p1998
I9128
sstp1999
a(g11
(tRp2000
S'workload'
p2001
g11
(tRp2002
S'n_contents'
p2003
I10000
sS'disconnection_rate'
p2004
F0.0025000000000000001
sS'name'
p2005
S'STATIONARY_SIT'
p2006
sS'n_warmup'
p2007
I36000
sS'rate'
p2008
I100
sS'n_measured'
p2009
I108000
sS'alpha'
p2010
F0.69999999999999996
ssS'cache_policy'
p2011
g11
(tRp2012
g2005
S'LRU'
p2013
ssS'desc'
p2014
S'strategy: SIT_WITH_SCOPED_FLOODING caching probability: 1.0'
p2015
sS'strategy'
p2016
g11
(tRp2017
S'fan_out'
p2018
I1
sg2005
S'SIT_WITH_SCOPED_FLOODING'
p2019
sS'p'
F1
sS'scope'
p2020
I1
ssS'content_placement'
p2021
g11
(tRp2022
g2005
S'UNIFORM'
p2023
ssS'joint_cache_rsn_placement'
p2024
g11
(tRp2025
S'network_cache'
p2026
F1
sS'network_rsn'
p2027
F64
sg2005
S'CACHE_ALL_RSN_ALL_SIT'
p2028
sS'rsn_cache_ratio'
p2029
I64
ssS'warmup_strategy'
p2030
g11
(tRp2031
S'p'
F0.10000000000000001
sg2005
S'NDN'
p2032
ssS'topology'
p2033
g11
(tRp2034
S'ext_delay'
p2035
I2
sS'source_ratio'
p2036
F1
sg2005
S'ROCKET_FUEL'
p2037
sS'asn'
p2038
I3257
ssg11
(tRp2039
S'CACHE_HIT_RATIO'
p2040
g11
(tRp2041
S'MEAN_NETWORK_HITS'
p2042
F0.075838340992105568
sS'MEAN_USER_HITS'
p2043
F0.1105125486037469
sS'MEAN'
p2044
F0.18635088959585247
ssS'OVERHEAD'
p2045
g11
(tRp2046
g2044
F0.6890438197806541
ssS'ABS'
p2047
g11
(tRp2048
S'MEAN_ABS_TIME'
p2049
F873.59096035084031
sS'NUM_ABS'
p2050
I9104
sstp2051
a(g11
(tRp2052
S'workload'
p2053
g11
(tRp2054
S'n_contents'
p2055
I10000
sS'disconnection_rate'
p2056
F0.0025000000000000001
sS'name'
p2057
S'STATIONARY_SIT'
p2058
sS'n_warmup'
p2059
I36000
sS'rate'
p2060
I100
sS'n_measured'
p2061
I108000
sS'alpha'
p2062
F0.69999999999999996
ssS'cache_policy'
p2063
g11
(tRp2064
g2057
S'LRU'
p2065
ssS'desc'
p2066
S'strategy: SIT_WITH_SCOPED_FLOODING caching probability: 0.1'
p2067
sS'strategy'
p2068
g11
(tRp2069
S'fan_out'
p2070
I100
sg2057
S'SIT_WITH_SCOPED_FLOODING'
p2071
sS'p'
F0.10000000000000001
sS'scope'
p2072
I1
ssS'content_placement'
p2073
g11
(tRp2074
g2057
S'UNIFORM'
p2075
ssS'joint_cache_rsn_placement'
p2076
g11
(tRp2077
S'network_cache'
p2078
F1
sS'network_rsn'
p2079
F64
sg2057
S'CACHE_ALL_RSN_ALL_SIT'
p2080
sS'rsn_cache_ratio'
p2081
I64
ssS'warmup_strategy'
p2082
g11
(tRp2083
S'p'
F0.10000000000000001
sg2057
S'NDN'
p2084
ssS'topology'
p2085
g11
(tRp2086
S'ext_delay'
p2087
I2
sS'source_ratio'
p2088
F1
sg2057
S'ROCKET_FUEL'
p2089
sS'asn'
p2090
I3257
ssg11
(tRp2091
S'CACHE_HIT_RATIO'
p2092
g11
(tRp2093
S'MEAN_NETWORK_HITS'
p2094
F0.072852120153849786
sS'MEAN_USER_HITS'
p2095
F0.14401000495528446
sS'MEAN'
p2096
F0.21686212510913425
ssS'OVERHEAD'
p2097
g11
(tRp2098
g2096
F0.68340509736149213
ssS'ABS'
p2099
g11
(tRp2100
S'MEAN_ABS_TIME'
p2101
F879.56674103188027
sS'NUM_ABS'
p2102
I8882
sstp2103
a(g11
(tRp2104
S'workload'
p2105
g11
(tRp2106
S'n_contents'
p2107
I10000
sS'disconnection_rate'
p2108
F0.0025000000000000001
sS'name'
p2109
S'STATIONARY_SIT'
p2110
sS'n_warmup'
p2111
I36000
sS'rate'
p2112
I100
sS'n_measured'
p2113
I108000
sS'alpha'
p2114
F0.69999999999999996
ssS'cache_policy'
p2115
g11
(tRp2116
g2109
S'LRU'
p2117
ssS'desc'
p2118
S'strategy: SIT_WITH_SCOPED_FLOODING caching probability: 0.1'
p2119
sS'strategy'
p2120
g11
(tRp2121
S'fan_out'
p2122
I1
sg2109
S'SIT_WITH_SCOPED_FLOODING'
p2123
sS'p'
F0.10000000000000001
sS'scope'
p2124
I2
ssS'content_placement'
p2125
g11
(tRp2126
g2109
S'UNIFORM'
p2127
ssS'joint_cache_rsn_placement'
p2128
g11
(tRp2129
S'network_cache'
p2130
F1
sS'network_rsn'
p2131
F64
sg2109
S'CACHE_ALL_RSN_ALL_SIT'
p2132
sS'rsn_cache_ratio'
p2133
I64
ssS'warmup_strategy'
p2134
g11
(tRp2135
S'p'
F0.10000000000000001
sg2109
S'NDN'
p2136
ssS'topology'
p2137
g11
(tRp2138
S'ext_delay'
p2139
I2
sS'source_ratio'
p2140
F1
sg2109
S'ROCKET_FUEL'
p2141
sS'asn'
p2142
I3257
ssg11
(tRp2143
S'CACHE_HIT_RATIO'
p2144
g11
(tRp2145
S'MEAN_NETWORK_HITS'
p2146
F0.10302388017521549
sS'MEAN_USER_HITS'
p2147
F0.21510527059488485
sS'MEAN'
p2148
F0.31812915077010034
ssS'OVERHEAD'
p2149
g11
(tRp2150
g2148
F0.72744440115451592
ssS'ABS'
p2151
g11
(tRp2152
S'MEAN_ABS_TIME'
p2153
F777.11644743903321
sS'NUM_ABS'
p2154
I7493
sstp2155
a(g11
(tRp2156
S'workload'
p2157
g11
(tRp2158
S'n_contents'
p2159
I10000
sS'disconnection_rate'
p2160
F0.0025000000000000001
sS'name'
p2161
S'STATIONARY_SIT'
p2162
sS'n_warmup'
p2163
I36000
sS'rate'
p2164
I100
sS'n_measured'
p2165
I108000
sS'alpha'
p2166
F0.69999999999999996
ssS'cache_policy'
p2167
g11
(tRp2168
g2161
S'LRU'
p2169
ssS'desc'
p2170
S'strategy: SIT_WITH_SCOPED_FLOODING caching probability: 0.2'
p2171
sS'strategy'
p2172
g11
(tRp2173
S'fan_out'
p2174
I100
sg2161
S'SIT_WITH_SCOPED_FLOODING'
p2175
sS'p'
F0.20000000000000001
sS'scope'
p2176
I1
ssS'content_placement'
p2177
g11
(tRp2178
g2161
S'UNIFORM'
p2179
ssS'joint_cache_rsn_placement'
p2180
g11
(tRp2181
S'network_cache'
p2182
F1
sS'network_rsn'
p2183
F64
sg2161
S'CACHE_ALL_RSN_ALL_SIT'
p2184
sS'rsn_cache_ratio'
p2185
I64
ssS'warmup_strategy'
p2186
g11
(tRp2187
S'p'
F0.10000000000000001
sg2161
S'NDN'
p2188
ssS'topology'
p2189
g11
(tRp2190
S'ext_delay'
p2191
I2
sS'source_ratio'
p2192
F1
sg2161
S'ROCKET_FUEL'
p2193
sS'asn'
p2194
I3257
ssg11
(tRp2195
S'CACHE_HIT_RATIO'
p2196
g11
(tRp2197
S'MEAN_NETWORK_HITS'
p2198
F0.078357611653593728
sS'MEAN_USER_HITS'
p2199
F0.13530259230312902
sS'MEAN'
p2200
F0.21366020395672275
ssS'OVERHEAD'
p2201
g11
(tRp2202
g2200
F0.67462813094522267
ssS'ABS'
p2203
g11
(tRp2204
S'MEAN_ABS_TIME'
p2205
F887.90191732465485
sS'NUM_ABS'
p2206
I9107
sstp2207
a(g11
(tRp2208
S'workload'
p2209
g11
(tRp2210
S'n_contents'
p2211
I10000
sS'disconnection_rate'
p2212
F0.0025000000000000001
sS'name'
p2213
S'STATIONARY_SIT'
p2214
sS'n_warmup'
p2215
I36000
sS'rate'
p2216
I100
sS'n_measured'
p2217
I108000
sS'alpha'
p2218
F0.69999999999999996
ssS'cache_policy'
p2219
g11
(tRp2220
g2213
S'LRU'
p2221
ssS'desc'
p2222
S'strategy: SIT_WITH_SCOPED_FLOODING caching probability: 0.2'
p2223
sS'strategy'
p2224
g11
(tRp2225
S'fan_out'
p2226
I1
sg2213
S'SIT_WITH_SCOPED_FLOODING'
p2227
sS'p'
F0.20000000000000001
sS'scope'
p2228
I2
ssS'content_placement'
p2229
g11
(tRp2230
g2213
S'UNIFORM'
p2231
ssS'joint_cache_rsn_placement'
p2232
g11
(tRp2233
S'network_cache'
p2234
F1
sS'network_rsn'
p2235
F64
sg2213
S'CACHE_ALL_RSN_ALL_SIT'
p2236
sS'rsn_cache_ratio'
p2237
I64
ssS'warmup_strategy'
p2238
g11
(tRp2239
S'p'
F0.10000000000000001
sg2213
S'NDN'
p2240
ssS'topology'
p2241
g11
(tRp2242
S'ext_delay'
p2243
I2
sS'source_ratio'
p2244
F1
sg2213
S'ROCKET_FUEL'
p2245
sS'asn'
p2246
I3257
ssg11
(tRp2247
S'CACHE_HIT_RATIO'
p2248
g11
(tRp2249
S'MEAN_NETWORK_HITS'
p2250
F0.11593478609348333
sS'MEAN_USER_HITS'
p2251
F0.20002168767856973
sS'MEAN'
p2252
F0.31595647377205305
ssS'OVERHEAD'
p2253
g11
(tRp2254
g2252
F0.7228353020682845
ssS'ABS'
p2255
g11
(tRp2256
S'MEAN_ABS_TIME'
p2257
F791.26445746948843
sS'NUM_ABS'
p2258
I7626
sstp2259
a(g11
(tRp2260
S'workload'
p2261
g11
(tRp2262
S'n_contents'
p2263
I10000
sS'disconnection_rate'
p2264
F0.0025000000000000001
sS'name'
p2265
S'STATIONARY_SIT'
p2266
sS'n_warmup'
p2267
I36000
sS'rate'
p2268
I100
sS'n_measured'
p2269
I108000
sS'alpha'
p2270
F0.69999999999999996
ssS'cache_policy'
p2271
g11
(tRp2272
g2265
S'LRU'
p2273
ssS'desc'
p2274
S'strategy: SIT_WITH_SCOPED_FLOODING caching probability: 0.3'
p2275
sS'strategy'
p2276
g11
(tRp2277
S'fan_out'
p2278
I1
sg2265
S'SIT_WITH_SCOPED_FLOODING'
p2279
sS'p'
F0.29999999999999999
sS'scope'
p2280
I2
ssS'content_placement'
p2281
g11
(tRp2282
g2265
S'UNIFORM'
p2283
ssS'joint_cache_rsn_placement'
p2284
g11
(tRp2285
S'network_cache'
p2286
F1
sS'network_rsn'
p2287
F64
sg2265
S'CACHE_ALL_RSN_ALL_SIT'
p2288
sS'rsn_cache_ratio'
p2289
I64
ssS'warmup_strategy'
p2290
g11
(tRp2291
S'p'
F0.10000000000000001
sg2265
S'NDN'
p2292
ssS'topology'
p2293
g11
(tRp2294
S'ext_delay'
p2295
I2
sS'source_ratio'
p2296
F1
sg2265
S'ROCKET_FUEL'
p2297
sS'asn'
p2298
I3257
ssg11
(tRp2299
S'CACHE_HIT_RATIO'
p2300
g11
(tRp2301
S'MEAN_NETWORK_HITS'
p2302
F0.12033107160670424
sS'MEAN_USER_HITS'
p2303
F0.19209775929080283
sS'MEAN'
p2304
F0.31242883089750706
ssS'OVERHEAD'
p2305
g11
(tRp2306
g2304
F0.72352924052001633
ssS'ABS'
p2307
g11
(tRp2308
S'MEAN_ABS_TIME'
p2309
F793.04172477558086
sS'NUM_ABS'
p2310
I7775
sstp2311
a(g11
(tRp2312
S'workload'
p2313
g11
(tRp2314
S'n_contents'
p2315
I10000
sS'disconnection_rate'
p2316
F0.0025000000000000001
sS'name'
p2317
S'STATIONARY_SIT'
p2318
sS'n_warmup'
p2319
I36000
sS'rate'
p2320
I100
sS'n_measured'
p2321
I108000
sS'alpha'
p2322
F0.69999999999999996
ssS'cache_policy'
p2323
g11
(tRp2324
g2317
S'LRU'
p2325
ssS'desc'
p2326
S'strategy: SIT_WITH_SCOPED_FLOODING caching probability: 0.3'
p2327
sS'strategy'
p2328
g11
(tRp2329
S'fan_out'
p2330
I100
sg2317
S'SIT_WITH_SCOPED_FLOODING'
p2331
sS'p'
F0.29999999999999999
sS'scope'
p2332
I1
ssS'content_placement'
p2333
g11
(tRp2334
g2317
S'UNIFORM'
p2335
ssS'joint_cache_rsn_placement'
p2336
g11
(tRp2337
S'network_cache'
p2338
F1
sS'network_rsn'
p2339
F64
sg2317
S'CACHE_ALL_RSN_ALL_SIT'
p2340
sS'rsn_cache_ratio'
p2341
I64
ssS'warmup_strategy'
p2342
g11
(tRp2343
S'p'
F0.10000000000000001
sg2317
S'NDN'
p2344
ssS'topology'
p2345
g11
(tRp2346
S'ext_delay'
p2347
I2
sS'source_ratio'
p2348
F1
sg2317
S'ROCKET_FUEL'
p2349
sS'asn'
p2350
I3257
ssg11
(tRp2351
S'CACHE_HIT_RATIO'
p2352
g11
(tRp2353
S'MEAN_NETWORK_HITS'
p2354
F0.083410311999245923
sS'MEAN_USER_HITS'
p2355
F0.13137430483551701
sS'MEAN'
p2356
F0.21478461683476294
ssS'OVERHEAD'
p2357
g11
(tRp2358
g2356
F0.67225764581812286
ssS'ABS'
p2359
g11
(tRp2360
S'MEAN_ABS_TIME'
p2361
F884.79169902994192
sS'NUM_ABS'
p2362
I9104
sstp2363
a(g11
(tRp2364
S'workload'
p2365
g11
(tRp2366
S'n_contents'
p2367
I10000
sS'disconnection_rate'
p2368
F0.0025000000000000001
sS'name'
p2369
S'STATIONARY_SIT'
p2370
sS'n_warmup'
p2371
I36000
sS'rate'
p2372
I100
sS'n_measured'
p2373
I108000
sS'alpha'
p2374
F0.69999999999999996
ssS'cache_policy'
p2375
g11
(tRp2376
g2369
S'LRU'
p2377
ssS'desc'
p2378
S'strategy: SIT_WITH_SCOPED_FLOODING caching probability: 0.4'
p2379
sS'strategy'
p2380
g11
(tRp2381
S'fan_out'
p2382
I1
sg2369
S'SIT_WITH_SCOPED_FLOODING'
p2383
sS'p'
F0.40000000000000002
sS'scope'
p2384
I2
ssS'content_placement'
p2385
g11
(tRp2386
g2369
S'UNIFORM'
p2387
ssS'joint_cache_rsn_placement'
p2388
g11
(tRp2389
S'network_cache'
p2390
F1
sS'network_rsn'
p2391
F64
sg2369
S'CACHE_ALL_RSN_ALL_SIT'
p2392
sS'rsn_cache_ratio'
p2393
I64
ssS'warmup_strategy'
p2394
g11
(tRp2395
S'p'
F0.10000000000000001
sg2369
S'NDN'
p2396
ssS'topology'
p2397
g11
(tRp2398
S'ext_delay'
p2399
I2
sS'source_ratio'
p2400
F1
sg2369
S'ROCKET_FUEL'
p2401
sS'asn'
p2402
I3257
ssg11
(tRp2403
S'CACHE_HIT_RATIO'
p2404
g11
(tRp2405
S'MEAN_NETWORK_HITS'
p2406
F0.12505538220793544
sS'MEAN_USER_HITS'
p2407
F0.18774804159085981
sS'MEAN'
p2408
F0.31280342379879528
ssS'OVERHEAD'
p2409
g11
(tRp2410
g2408
F0.72193242800739998
ssS'ABS'
p2411
g11
(tRp2412
S'MEAN_ABS_TIME'
p2413
F768.46123223578843
sS'NUM_ABS'
p2414
I7614
sstp2415
a(g11
(tRp2416
S'workload'
p2417
g11
(tRp2418
S'n_contents'
p2419
I10000
sS'disconnection_rate'
p2420
F0.0025000000000000001
sS'name'
p2421
S'STATIONARY_SIT'
p2422
sS'n_warmup'
p2423
I36000
sS'rate'
p2424
I100
sS'n_measured'
p2425
I108000
sS'alpha'
p2426
F0.69999999999999996
ssS'cache_policy'
p2427
g11
(tRp2428
g2421
S'LRU'
p2429
ssS'desc'
p2430
S'strategy: SIT_WITH_SCOPED_FLOODING caching probability: 0.4'
p2431
sS'strategy'
p2432
g11
(tRp2433
S'fan_out'
p2434
I100
sg2421
S'SIT_WITH_SCOPED_FLOODING'
p2435
sS'p'
F0.40000000000000002
sS'scope'
p2436
I1
ssS'content_placement'
p2437
g11
(tRp2438
g2421
S'UNIFORM'
p2439
ssS'joint_cache_rsn_placement'
p2440
g11
(tRp2441
S'network_cache'
p2442
F1
sS'network_rsn'
p2443
F64
sg2421
S'CACHE_ALL_RSN_ALL_SIT'
p2444
sS'rsn_cache_ratio'
p2445
I64
ssS'warmup_strategy'
p2446
g11
(tRp2447
S'p'
F0.10000000000000001
sg2421
S'NDN'
p2448
ssS'topology'
p2449
g11
(tRp2450
S'ext_delay'
p2451
I2
sS'source_ratio'
p2452
F1
sg2421
S'ROCKET_FUEL'
p2453
sS'asn'
p2454
I3257
ssg11
(tRp2455
S'CACHE_HIT_RATIO'
p2456
g11
(tRp2457
S'MEAN_NETWORK_HITS'
p2458
F0.083009537265983757
sS'MEAN_USER_HITS'
p2459
F0.12747910043565289
sS'MEAN'
p2460
F0.21048863770163664
ssS'OVERHEAD'
p2461
g11
(tRp2462
g2460
F0.67127378009458294
ssS'ABS'
p2463
g11
(tRp2464
S'MEAN_ABS_TIME'
p2465
F887.23814085698098
sS'NUM_ABS'
p2466
I9103
sstp2467
a(g11
(tRp2468
S'workload'
p2469
g11
(tRp2470
S'n_contents'
p2471
I10000
sS'disconnection_rate'
p2472
F0.0025000000000000001
sS'name'
p2473
S'STATIONARY_SIT'
p2474
sS'n_warmup'
p2475
I36000
sS'rate'
p2476
I100
sS'n_measured'
p2477
I108000
sS'alpha'
p2478
F0.69999999999999996
ssS'cache_policy'
p2479
g11
(tRp2480
g2473
S'LRU'
p2481
ssS'desc'
p2482
S'strategy: SIT_WITH_SCOPED_FLOODING caching probability: 0.5'
p2483
sS'strategy'
p2484
g11
(tRp2485
S'fan_out'
p2486
I1
sg2473
S'SIT_WITH_SCOPED_FLOODING'
p2487
sS'p'
F0.5
sS'scope'
p2488
I2
ssS'content_placement'
p2489
g11
(tRp2490
g2473
S'UNIFORM'
p2491
ssS'joint_cache_rsn_placement'
p2492
g11
(tRp2493
S'network_cache'
p2494
F1
sS'network_rsn'
p2495
F64
sg2473
S'CACHE_ALL_RSN_ALL_SIT'
p2496
sS'rsn_cache_ratio'
p2497
I64
ssS'warmup_strategy'
p2498
g11
(tRp2499
S'p'
F0.10000000000000001
sg2473
S'NDN'
p2500
ssS'topology'
p2501
g11
(tRp2502
S'ext_delay'
p2503
I2
sS'source_ratio'
p2504
F1
sg2473
S'ROCKET_FUEL'
p2505
sS'asn'
p2506
I3257
ssg11
(tRp2507
S'CACHE_HIT_RATIO'
p2508
g11
(tRp2509
S'MEAN_NETWORK_HITS'
p2510
F0.12719841408115121
sS'MEAN_USER_HITS'
p2511
F0.18468326356483292
sS'MEAN'
p2512
F0.31188167764598412
ssS'OVERHEAD'
p2513
g11
(tRp2514
g2512
F0.7212286723940653
ssS'ABS'
p2515
g11
(tRp2516
S'MEAN_ABS_TIME'
p2517
F774.55511842043359
sS'NUM_ABS'
p2518
I7650
sstp2519
a(g11
(tRp2520
S'workload'
p2521
g11
(tRp2522
S'n_contents'
p2523
I10000
sS'disconnection_rate'
p2524
F0.0025000000000000001
sS'name'
p2525
S'STATIONARY_SIT'
p2526
sS'n_warmup'
p2527
I36000
sS'rate'
p2528
I100
sS'n_measured'
p2529
I108000
sS'alpha'
p2530
F0.69999999999999996
ssS'cache_policy'
p2531
g11
(tRp2532
g2525
S'LRU'
p2533
ssS'desc'
p2534
S'strategy: SIT_WITH_SCOPED_FLOODING caching probability: 0.6'
p2535
sS'strategy'
p2536
g11
(tRp2537
S'fan_out'
p2538
I1
sg2525
S'SIT_WITH_SCOPED_FLOODING'
p2539
sS'p'
F0.59999999999999998
sS'scope'
p2540
I2
ssS'content_placement'
p2541
g11
(tRp2542
g2525
S'UNIFORM'
p2543
ssS'joint_cache_rsn_placement'
p2544
g11
(tRp2545
S'network_cache'
p2546
F1
sS'network_rsn'
p2547
F64
sg2525
S'CACHE_ALL_RSN_ALL_SIT'
p2548
sS'rsn_cache_ratio'
p2549
I64
ssS'warmup_strategy'
p2550
g11
(tRp2551
S'p'
F0.10000000000000001
sg2525
S'NDN'
p2552
ssS'topology'
p2553
g11
(tRp2554
S'ext_delay'
p2555
I2
sS'source_ratio'
p2556
F1
sg2525
S'ROCKET_FUEL'
p2557
sS'asn'
p2558
I3257
ssg11
(tRp2559
S'CACHE_HIT_RATIO'
p2560
g11
(tRp2561
S'MEAN_NETWORK_HITS'
p2562
F0.12871254511998267
sS'MEAN_USER_HITS'
p2563
F0.18391540267966813
sS'MEAN'
p2564
F0.31262794779965081
ssS'OVERHEAD'
p2565
g11
(tRp2566
g2564
F0.72190233534935644
ssS'ABS'
p2567
g11
(tRp2568
S'MEAN_ABS_TIME'
p2569
F770.44626623001886
sS'NUM_ABS'
p2570
I7594
sstp2571
a(g11
(tRp2572
S'workload'
p2573
g11
(tRp2574
S'n_contents'
p2575
I10000
sS'disconnection_rate'
p2576
F0.0025000000000000001
sS'name'
p2577
S'STATIONARY_SIT'
p2578
sS'n_warmup'
p2579
I36000
sS'rate'
p2580
I100
sS'n_measured'
p2581
I108000
sS'alpha'
p2582
F0.69999999999999996
ssS'cache_policy'
p2583
g11
(tRp2584
g2577
S'LRU'
p2585
ssS'desc'
p2586
S'strategy: SIT_WITH_SCOPED_FLOODING caching probability: 0.7'
p2587
sS'strategy'
p2588
g11
(tRp2589
S'fan_out'
p2590
I1
sg2577
S'SIT_WITH_SCOPED_FLOODING'
p2591
sS'p'
F0.69999999999999996
sS'scope'
p2592
I2
ssS'content_placement'
p2593
g11
(tRp2594
g2577
S'UNIFORM'
p2595
ssS'joint_cache_rsn_placement'
p2596
g11
(tRp2597
S'network_cache'
p2598
F1
sS'network_rsn'
p2599
F64
sg2577
S'CACHE_ALL_RSN_ALL_SIT'
p2600
sS'rsn_cache_ratio'
p2601
I64
ssS'warmup_strategy'
p2602
g11
(tRp2603
S'p'
F0.10000000000000001
sg2577
S'NDN'
p2604
ssS'topology'
p2605
g11
(tRp2606
S'ext_delay'
p2607
I2
sS'source_ratio'
p2608
F1
sg2577
S'ROCKET_FUEL'
p2609
sS'asn'
p2610
I3257
ssg11
(tRp2611
S'CACHE_HIT_RATIO'
p2612
g11
(tRp2613
S'MEAN_NETWORK_HITS'
p2614
F0.13022376983135983
sS'MEAN_USER_HITS'
p2615
F0.18041059808601168
sS'MEAN'
p2616
F0.31063436791737148
ssS'OVERHEAD'
p2617
g11
(tRp2618
g2616
F0.72058210200190653
ssS'ABS'
p2619
g11
(tRp2620
S'MEAN_ABS_TIME'
p2621
F757.84562335757028
sS'NUM_ABS'
p2622
I7520
sstp2623
a(g11
(tRp2624
S'workload'
p2625
g11
(tRp2626
S'n_contents'
p2627
I10000
sS'disconnection_rate'
p2628
F0.0025000000000000001
sS'name'
p2629
S'STATIONARY_SIT'
p2630
sS'n_warmup'
p2631
I36000
sS'rate'
p2632
I100
sS'n_measured'
p2633
I108000
sS'alpha'
p2634
F0.69999999999999996
ssS'cache_policy'
p2635
g11
(tRp2636
g2629
S'LRU'
p2637
ssS'desc'
p2638
S'strategy: SIT_WITH_SCOPED_FLOODING caching probability: 0.6'
p2639
sS'strategy'
p2640
g11
(tRp2641
S'fan_out'
p2642
I100
sg2629
S'SIT_WITH_SCOPED_FLOODING'
p2643
sS'p'
F0.59999999999999998
sS'scope'
p2644
I1
ssS'content_placement'
p2645
g11
(tRp2646
g2629
S'UNIFORM'
p2647
ssS'joint_cache_rsn_placement'
p2648
g11
(tRp2649
S'network_cache'
p2650
F1
sS'network_rsn'
p2651
F64
sg2629
S'CACHE_ALL_RSN_ALL_SIT'
p2652
sS'rsn_cache_ratio'
p2653
I64
ssS'warmup_strategy'
p2654
g11
(tRp2655
S'p'
F0.10000000000000001
sg2629
S'NDN'
p2656
ssS'topology'
p2657
g11
(tRp2658
S'ext_delay'
p2659
I2
sS'source_ratio'
p2660
F1
sg2629
S'ROCKET_FUEL'
p2661
sS'asn'
p2662
I3257
ssg11
(tRp2663
S'CACHE_HIT_RATIO'
p2664
g11
(tRp2665
S'MEAN_NETWORK_HITS'
p2666
F0.084013381078024876
sS'MEAN_USER_HITS'
p2667
F0.12522144741801733
sS'MEAN'
p2668
F0.20923482849604222
ssS'OVERHEAD'
p2669
g11
(tRp2670
g2668
F0.67114849941977794
ssS'ABS'
p2671
g11
(tRp2672
S'MEAN_ABS_TIME'
p2673
F885.35015768480764
sS'NUM_ABS'
p2674
I9130
sstp2675
a(g11
(tRp2676
S'workload'
p2677
g11
(tRp2678
S'n_contents'
p2679
I10000
sS'disconnection_rate'
p2680
F0.0025000000000000001
sS'name'
p2681
S'STATIONARY_SIT'
p2682
sS'n_warmup'
p2683
I36000
sS'rate'
p2684
I100
sS'n_measured'
p2685
I108000
sS'alpha'
p2686
F0.69999999999999996
ssS'cache_policy'
p2687
g11
(tRp2688
g2681
S'LRU'
p2689
ssS'desc'
p2690
S'strategy: SIT_WITH_SCOPED_FLOODING caching probability: 0.5'
p2691
sS'strategy'
p2692
g11
(tRp2693
S'fan_out'
p2694
I100
sg2681
S'SIT_WITH_SCOPED_FLOODING'
p2695
sS'p'
F0.5
sS'scope'
p2696
I1
ssS'content_placement'
p2697
g11
(tRp2698
g2681
S'UNIFORM'
p2699
ssS'joint_cache_rsn_placement'
p2700
g11
(tRp2701
S'network_cache'
p2702
F1
sS'network_rsn'
p2703
F64
sg2681
S'CACHE_ALL_RSN_ALL_SIT'
p2704
sS'rsn_cache_ratio'
p2705
I64
ssS'warmup_strategy'
p2706
g11
(tRp2707
S'p'
F0.10000000000000001
sg2681
S'NDN'
p2708
ssS'topology'
p2709
g11
(tRp2710
S'ext_delay'
p2711
I2
sS'source_ratio'
p2712
F1
sg2681
S'ROCKET_FUEL'
p2713
sS'asn'
p2714
I3257
ssg11
(tRp2715
S'CACHE_HIT_RATIO'
p2716
g11
(tRp2717
S'MEAN_NETWORK_HITS'
p2718
F0.083737555452995632
sS'MEAN_USER_HITS'
p2719
F0.12766668864379163
sS'MEAN'
p2720
F0.21140424409678726
ssS'OVERHEAD'
p2721
g11
(tRp2722
g2720
F0.67202988707823386
ssS'ABS'
p2723
g11
(tRp2724
S'MEAN_ABS_TIME'
p2725
F898.93146129061927
sS'NUM_ABS'
p2726
I9181
sstp2727
a(g11
(tRp2728
S'workload'
p2729
g11
(tRp2730
S'n_contents'
p2731
I10000
sS'disconnection_rate'
p2732
F0.0025000000000000001
sS'name'
p2733
S'STATIONARY_SIT'
p2734
sS'n_warmup'
p2735
I36000
sS'rate'
p2736
I100
sS'n_measured'
p2737
I108000
sS'alpha'
p2738
F0.69999999999999996
ssS'cache_policy'
p2739
g11
(tRp2740
g2733
S'LRU'
p2741
ssS'desc'
p2742
S'strategy: SIT_WITH_SCOPED_FLOODING caching probability: 0.8'
p2743
sS'strategy'
p2744
g11
(tRp2745
S'fan_out'
p2746
I100
sg2733
S'SIT_WITH_SCOPED_FLOODING'
p2747
sS'p'
F0.80000000000000004
sS'scope'
p2748
I1
ssS'content_placement'
p2749
g11
(tRp2750
g2733
S'UNIFORM'
p2751
ssS'joint_cache_rsn_placement'
p2752
g11
(tRp2753
S'network_cache'
p2754
F1
sS'network_rsn'
p2755
F64
sg2733
S'CACHE_ALL_RSN_ALL_SIT'
p2756
sS'rsn_cache_ratio'
p2757
I64
ssS'warmup_strategy'
p2758
g11
(tRp2759
S'p'
F0.10000000000000001
sg2733
S'NDN'
p2760
ssS'topology'
p2761
g11
(tRp2762
S'ext_delay'
p2763
I2
sS'source_ratio'
p2764
F1
sg2733
S'ROCKET_FUEL'
p2765
sS'asn'
p2766
I3257
ssg11
(tRp2767
S'CACHE_HIT_RATIO'
p2768
g11
(tRp2769
S'MEAN_NETWORK_HITS'
p2770
F0.084827082891917982
sS'MEAN_USER_HITS'
p2771
F0.12448148409727618
sS'MEAN'
p2772
F0.20930856698919414
ssS'OVERHEAD'
p2773
g11
(tRp2774
g2772
F0.67121821790734415
ssS'ABS'
p2775
g11
(tRp2776
S'MEAN_ABS_TIME'
p2777
F870.71695980911068
sS'NUM_ABS'
p2778
I9070
sstp2779
a(g11
(tRp2780
S'workload'
p2781
g11
(tRp2782
S'n_contents'
p2783
I10000
sS'disconnection_rate'
p2784
F0.0025000000000000001
sS'name'
p2785
S'STATIONARY_SIT'
p2786
sS'n_warmup'
p2787
I36000
sS'rate'
p2788
I100
sS'n_measured'
p2789
I108000
sS'alpha'
p2790
F0.69999999999999996
ssS'cache_policy'
p2791
g11
(tRp2792
g2785
S'LRU'
p2793
ssS'desc'
p2794
S'strategy: SIT_WITH_SCOPED_FLOODING caching probability: 0.7'
p2795
sS'strategy'
p2796
g11
(tRp2797
S'fan_out'
p2798
I100
sg2785
S'SIT_WITH_SCOPED_FLOODING'
p2799
sS'p'
F0.69999999999999996
sS'scope'
p2800
I1
ssS'content_placement'
p2801
g11
(tRp2802
g2785
S'UNIFORM'
p2803
ssS'joint_cache_rsn_placement'
p2804
g11
(tRp2805
S'network_cache'
p2806
F1
sS'network_rsn'
p2807
F64
sg2785
S'CACHE_ALL_RSN_ALL_SIT'
p2808
sS'rsn_cache_ratio'
p2809
I64
ssS'warmup_strategy'
p2810
g11
(tRp2811
S'p'
F0.10000000000000001
sg2785
S'NDN'
p2812
ssS'topology'
p2813
g11
(tRp2814
S'ext_delay'
p2815
I2
sS'source_ratio'
p2816
F1
sg2785
S'ROCKET_FUEL'
p2817
sS'asn'
p2818
I3257
ssg11
(tRp2819
S'CACHE_HIT_RATIO'
p2820
g11
(tRp2821
S'MEAN_NETWORK_HITS'
p2822
F0.084427378902095868
sS'MEAN_USER_HITS'
p2823
F0.12559172572159952
sS'MEAN'
p2824
F0.21001910462369539
ssS'OVERHEAD'
p2825
g11
(tRp2826
g2824
F0.67319818062796144
ssS'ABS'
p2827
g11
(tRp2828
S'MEAN_ABS_TIME'
p2829
F876.83053052574144
sS'NUM_ABS'
p2830
I9120
sstp2831
a(g11
(tRp2832
S'workload'
p2833
g11
(tRp2834
S'n_contents'
p2835
I10000
sS'disconnection_rate'
p2836
F0.0025000000000000001
sS'name'
p2837
S'STATIONARY_SIT'
p2838
sS'n_warmup'
p2839
I36000
sS'rate'
p2840
I100
sS'n_measured'
p2841
I108000
sS'alpha'
p2842
F0.69999999999999996
ssS'cache_policy'
p2843
g11
(tRp2844
g2837
S'LRU'
p2845
ssS'desc'
p2846
S'strategy: SIT_WITH_SCOPED_FLOODING caching probability: 0.9'
p2847
sS'strategy'
p2848
g11
(tRp2849
S'fan_out'
p2850
I100
sg2837
S'SIT_WITH_SCOPED_FLOODING'
p2851
sS'p'
F0.90000000000000002
sS'scope'
p2852
I1
ssS'content_placement'
p2853
g11
(tRp2854
g2837
S'UNIFORM'
p2855
ssS'joint_cache_rsn_placement'
p2856
g11
(tRp2857
S'network_cache'
p2858
F1
sS'network_rsn'
p2859
F64
sg2837
S'CACHE_ALL_RSN_ALL_SIT'
p2860
sS'rsn_cache_ratio'
p2861
I64
ssS'warmup_strategy'
p2862
g11
(tRp2863
S'p'
F0.10000000000000001
sg2837
S'NDN'
p2864
ssS'topology'
p2865
g11
(tRp2866
S'ext_delay'
p2867
I2
sS'source_ratio'
p2868
F1
sg2837
S'ROCKET_FUEL'
p2869
sS'asn'
p2870
I3257
ssg11
(tRp2871
S'CACHE_HIT_RATIO'
p2872
g11
(tRp2873
S'MEAN_NETWORK_HITS'
p2874
F0.084802872788621947
sS'MEAN_USER_HITS'
p2875
F0.12675425781581354
sS'MEAN'
p2876
F0.21155713060443548
ssS'OVERHEAD'
p2877
g11
(tRp2878
g2876
F0.67368826127693748
ssS'ABS'
p2879
g11
(tRp2880
S'MEAN_ABS_TIME'
p2881
F864.77830834739837
sS'NUM_ABS'
p2882
I8946
sstp2883
a(g11
(tRp2884
S'workload'
p2885
g11
(tRp2886
S'n_contents'
p2887
I10000
sS'disconnection_rate'
p2888
F0.0025000000000000001
sS'name'
p2889
S'STATIONARY_SIT'
p2890
sS'n_warmup'
p2891
I36000
sS'rate'
p2892
I100
sS'n_measured'
p2893
I108000
sS'alpha'
p2894
F0.69999999999999996
ssS'cache_policy'
p2895
g11
(tRp2896
g2889
S'LRU'
p2897
ssS'desc'
p2898
S'strategy: SIT_WITH_SCOPED_FLOODING caching probability: 0.8'
p2899
sS'strategy'
p2900
g11
(tRp2901
S'fan_out'
p2902
I1
sg2889
S'SIT_WITH_SCOPED_FLOODING'
p2903
sS'p'
F0.80000000000000004
sS'scope'
p2904
I2
ssS'content_placement'
p2905
g11
(tRp2906
g2889
S'UNIFORM'
p2907
ssS'joint_cache_rsn_placement'
p2908
g11
(tRp2909
S'network_cache'
p2910
F1
sS'network_rsn'
p2911
F64
sg2889
S'CACHE_ALL_RSN_ALL_SIT'
p2912
sS'rsn_cache_ratio'
p2913
I64
ssS'warmup_strategy'
p2914
g11
(tRp2915
S'p'
F0.10000000000000001
sg2889
S'NDN'
p2916
ssS'topology'
p2917
g11
(tRp2918
S'ext_delay'
p2919
I2
sS'source_ratio'
p2920
F1
sg2889
S'ROCKET_FUEL'
p2921
sS'asn'
p2922
I3257
ssg11
(tRp2923
S'CACHE_HIT_RATIO'
p2924
g11
(tRp2925
S'MEAN_NETWORK_HITS'
p2926
F0.12930766257153903
sS'MEAN_USER_HITS'
p2927
F0.18164546817397537
sS'MEAN'
p2928
F0.31095313074551439
ssS'OVERHEAD'
p2929
g11
(tRp2930
g2928
F0.72145650444040665
ssS'ABS'
p2931
g11
(tRp2932
S'MEAN_ABS_TIME'
p2933
F725.6753271767451
sS'NUM_ABS'
p2934
I7300
sstp2935
a(g11
(tRp2936
S'workload'
p2937
g11
(tRp2938
S'n_contents'
p2939
I10000
sS'disconnection_rate'
p2940
F0.0025000000000000001
sS'name'
p2941
S'STATIONARY_SIT'
p2942
sS'n_warmup'
p2943
I36000
sS'rate'
p2944
I100
sS'n_measured'
p2945
I108000
sS'alpha'
p2946
F0.69999999999999996
ssS'cache_policy'
p2947
g11
(tRp2948
g2941
S'LRU'
p2949
ssS'desc'
p2950
S'strategy: SIT_WITH_SCOPED_FLOODING caching probability: 0.9'
p2951
sS'strategy'
p2952
g11
(tRp2953
S'fan_out'
p2954
I1
sg2941
S'SIT_WITH_SCOPED_FLOODING'
p2955
sS'p'
F0.90000000000000002
sS'scope'
p2956
I2
ssS'content_placement'
p2957
g11
(tRp2958
g2941
S'UNIFORM'
p2959
ssS'joint_cache_rsn_placement'
p2960
g11
(tRp2961
S'network_cache'
p2962
F1
sS'network_rsn'
p2963
F64
sg2941
S'CACHE_ALL_RSN_ALL_SIT'
p2964
sS'rsn_cache_ratio'
p2965
I64
ssS'warmup_strategy'
p2966
g11
(tRp2967
S'p'
F0.10000000000000001
sg2941
S'NDN'
p2968
ssS'topology'
p2969
g11
(tRp2970
S'ext_delay'
p2971
I2
sS'source_ratio'
p2972
F1
sg2941
S'ROCKET_FUEL'
p2973
sS'asn'
p2974
I3257
ssg11
(tRp2975
S'CACHE_HIT_RATIO'
p2976
g11
(tRp2977
S'MEAN_NETWORK_HITS'
p2978
F0.13030870764566876
sS'MEAN_USER_HITS'
p2979
F0.18084675711044371
sS'MEAN'
p2980
F0.3111554647561125
ssS'OVERHEAD'
p2981
g11
(tRp2982
g2980
F0.72189701839935128
ssS'ABS'
p2983
g11
(tRp2984
S'MEAN_ABS_TIME'
p2985
F738.85621484556646
sS'NUM_ABS'
p2986
I7318
sstp2987
a(g11
(tRp2988
S'workload'
p2989
g11
(tRp2990
S'n_contents'
p2991
I10000
sS'disconnection_rate'
p2992
F0.0025000000000000001
sS'name'
p2993
S'STATIONARY_SIT'
p2994
sS'n_warmup'
p2995
I36000
sS'rate'
p2996
I100
sS'n_measured'
p2997
I108000
sS'alpha'
p2998
F0.69999999999999996
ssS'cache_policy'
p2999
g11
(tRp3000
g2993
S'LRU'
p3001
ssS'desc'
p3002
S'strategy: SIT_WITH_SCOPED_FLOODING caching probability: 1.0'
p3003
sS'strategy'
p3004
g11
(tRp3005
S'fan_out'
p3006
I1
sg2993
S'SIT_WITH_SCOPED_FLOODING'
p3007
sS'p'
F1
sS'scope'
p3008
I2
ssS'content_placement'
p3009
g11
(tRp3010
g2993
S'UNIFORM'
p3011
ssS'joint_cache_rsn_placement'
p3012
g11
(tRp3013
S'network_cache'
p3014
F1
sS'network_rsn'
p3015
F64
sg2993
S'CACHE_ALL_RSN_ALL_SIT'
p3016
sS'rsn_cache_ratio'
p3017
I64
ssS'warmup_strategy'
p3018
g11
(tRp3019
S'p'
F0.10000000000000001
sg2993
S'NDN'
p3020
ssS'topology'
p3021
g11
(tRp3022
S'ext_delay'
p3023
I2
sS'source_ratio'
p3024
F1
sg2993
S'ROCKET_FUEL'
p3025
sS'asn'
p3026
I3257
ssg11
(tRp3027
S'CACHE_HIT_RATIO'
p3028
g11
(tRp3029
S'MEAN_NETWORK_HITS'
p3030
F0.12947894630211598
sS'MEAN_USER_HITS'
p3031
F0.1795818943380936
sS'MEAN'
p3032
F0.30906084064020956
ssS'OVERHEAD'
p3033
g11
(tRp3034
g3032
F0.71917131820809188
ssS'ABS'
p3035
g11
(tRp3036
S'MEAN_ABS_TIME'
p3037
F691.17348682186923
sS'NUM_ABS'
p3038
I7027
sstp3039
a(g11
(tRp3040
S'workload'
p3041
g11
(tRp3042
S'n_contents'
p3043
I10000
sS'disconnection_rate'
p3044
F0.0025000000000000001
sS'name'
p3045
S'STATIONARY_SIT'
p3046
sS'n_warmup'
p3047
I36000
sS'rate'
p3048
I100
sS'n_measured'
p3049
I108000
sS'alpha'
p3050
F0.69999999999999996
ssS'cache_policy'
p3051
g11
(tRp3052
g3045
S'LRU'
p3053
ssS'desc'
p3054
S'strategy: SIT_WITH_SCOPED_FLOODING caching probability: 1.0'
p3055
sS'strategy'
p3056
g11
(tRp3057
S'fan_out'
p3058
I100
sg3045
S'SIT_WITH_SCOPED_FLOODING'
p3059
sS'p'
F1
sS'scope'
p3060
I1
ssS'content_placement'
p3061
g11
(tRp3062
g3045
S'UNIFORM'
p3063
ssS'joint_cache_rsn_placement'
p3064
g11
(tRp3065
S'network_cache'
p3066
F1
sS'network_rsn'
p3067
F64
sg3045
S'CACHE_ALL_RSN_ALL_SIT'
p3068
sS'rsn_cache_ratio'
p3069
I64
ssS'warmup_strategy'
p3070
g11
(tRp3071
S'p'
F0.10000000000000001
sg3045
S'NDN'
p3072
ssS'topology'
p3073
g11
(tRp3074
S'ext_delay'
p3075
I2
sS'source_ratio'
p3076
F1
sg3045
S'ROCKET_FUEL'
p3077
sS'asn'
p3078
I3257
ssg11
(tRp3079
S'CACHE_HIT_RATIO'
p3080
g11
(tRp3081
S'MEAN_NETWORK_HITS'
p3082
F0.084466225290389468
sS'MEAN_USER_HITS'
p3083
F0.12507127205899676
sS'MEAN'
p3084
F0.20953749734938623
ssS'OVERHEAD'
p3085
g11
(tRp3086
g3084
F0.67252297566880936
ssS'ABS'
p3087
g11
(tRp3088
S'MEAN_ABS_TIME'
p3089
F853.23917565448164
sS'NUM_ABS'
p3090
I8876
sstp3091
a(g11
(tRp3092
S'workload'
p3093
g11
(tRp3094
S'n_contents'
p3095
I10000
sS'disconnection_rate'
p3096
F0.0025000000000000001
sS'name'
p3097
S'STATIONARY_SIT'
p3098
sS'n_warmup'
p3099
I36000
sS'rate'
p3100
I100
sS'n_measured'
p3101
I108000
sS'alpha'
p3102
F0.69999999999999996
ssS'cache_policy'
p3103
g11
(tRp3104
g3097
S'LRU'
p3105
ssS'desc'
p3106
S'strategy: SCOPED_FLOODING caching probability: 0.1'
p3107
sS'strategy'
p3108
g11
(tRp3109
S'scope'
p3110
I1
sg3097
S'SCOPED_FLOODING'
p3111
sS'p'
F0.10000000000000001
ssS'content_placement'
p3112
g11
(tRp3113
g3097
S'UNIFORM'
p3114
ssS'joint_cache_rsn_placement'
p3115
g11
(tRp3116
S'network_cache'
p3117
F1
sS'network_rsn'
p3118
F64
sg3097
S'CACHE_ALL_RSN_ALL_SIT'
p3119
sS'rsn_cache_ratio'
p3120
I64
ssS'warmup_strategy'
p3121
g11
(tRp3122
S'p'
F0.10000000000000001
sg3097
S'NDN'
p3123
ssS'topology'
p3124
g11
(tRp3125
S'ext_delay'
p3126
I2
sS'source_ratio'
p3127
F1
sg3097
S'ROCKET_FUEL'
p3128
sS'asn'
p3129
I3257
ssg11
(tRp3130
S'CACHE_HIT_RATIO'
p3131
g11
(tRp3132
S'MEAN_NETWORK_HITS'
p3133
F0.034184409195012297
sS'MEAN_USER_HITS'
p3134
F0.049957116332551059
sS'MEAN'
p3135
F0.084141525527563363
ssS'OVERHEAD'
p3136
g11
(tRp3137
g3135
F0.42580817684811029
ssS'ABS'
p3138
g11
(tRp3139
S'MEAN_ABS_TIME'
p3140
F765.04506791972995
sS'NUM_ABS'
p3141
I8450
sstp3142
a(g11
(tRp3143
S'workload'
p3144
g11
(tRp3145
S'n_contents'
p3146
I10000
sS'disconnection_rate'
p3147
F0.0025000000000000001
sS'name'
p3148
S'STATIONARY_SIT'
p3149
sS'n_warmup'
p3150
I36000
sS'rate'
p3151
I100
sS'n_measured'
p3152
I108000
sS'alpha'
p3153
F0.69999999999999996
ssS'cache_policy'
p3154
g11
(tRp3155
g3148
S'LRU'
p3156
ssS'desc'
p3157
S'strategy: SCOPED_FLOODING caching probability: 0.4'
p3158
sS'strategy'
p3159
g11
(tRp3160
S'scope'
p3161
I1
sg3148
S'SCOPED_FLOODING'
p3162
sS'p'
F0.40000000000000002
ssS'content_placement'
p3163
g11
(tRp3164
g3148
S'UNIFORM'
p3165
ssS'joint_cache_rsn_placement'
p3166
g11
(tRp3167
S'network_cache'
p3168
F1
sS'network_rsn'
p3169
F64
sg3148
S'CACHE_ALL_RSN_ALL_SIT'
p3170
sS'rsn_cache_ratio'
p3171
I64
ssS'warmup_strategy'
p3172
g11
(tRp3173
S'p'
F0.10000000000000001
sg3148
S'NDN'
p3174
ssS'topology'
p3175
g11
(tRp3176
S'ext_delay'
p3177
I2
sS'source_ratio'
p3178
F1
sg3148
S'ROCKET_FUEL'
p3179
sS'asn'
p3180
I3257
ssg11
(tRp3181
S'CACHE_HIT_RATIO'
p3182
g11
(tRp3183
S'MEAN_NETWORK_HITS'
p3184
F0.039208853308217564
sS'MEAN_USER_HITS'
p3185
F0.049592653637862021
sS'MEAN'
p3186
F0.088801506946079592
ssS'OVERHEAD'
p3187
g11
(tRp3188
g3186
F0.44358160400871005
ssS'ABS'
p3189
g11
(tRp3190
S'MEAN_ABS_TIME'
p3191
F765.51984482253715
sS'NUM_ABS'
p3192
I8439
sstp3193
a(g11
(tRp3194
S'workload'
p3195
g11
(tRp3196
S'n_contents'
p3197
I10000
sS'disconnection_rate'
p3198
F0.0025000000000000001
sS'name'
p3199
S'STATIONARY_SIT'
p3200
sS'n_warmup'
p3201
I36000
sS'rate'
p3202
I100
sS'n_measured'
p3203
I108000
sS'alpha'
p3204
F0.69999999999999996
ssS'cache_policy'
p3205
g11
(tRp3206
g3199
S'LRU'
p3207
ssS'desc'
p3208
S'strategy: SCOPED_FLOODING caching probability: 0.3'
p3209
sS'strategy'
p3210
g11
(tRp3211
S'scope'
p3212
I1
sg3199
S'SCOPED_FLOODING'
p3213
sS'p'
F0.29999999999999999
ssS'content_placement'
p3214
g11
(tRp3215
g3199
S'UNIFORM'
p3216
ssS'joint_cache_rsn_placement'
p3217
g11
(tRp3218
S'network_cache'
p3219
F1
sS'network_rsn'
p3220
F64
sg3199
S'CACHE_ALL_RSN_ALL_SIT'
p3221
sS'rsn_cache_ratio'
p3222
I64
ssS'warmup_strategy'
p3223
g11
(tRp3224
S'p'
F0.10000000000000001
sg3199
S'NDN'
p3225
ssS'topology'
p3226
g11
(tRp3227
S'ext_delay'
p3228
I2
sS'source_ratio'
p3229
F1
sg3199
S'ROCKET_FUEL'
p3230
sS'asn'
p3231
I3257
ssg11
(tRp3232
S'CACHE_HIT_RATIO'
p3233
g11
(tRp3234
S'MEAN_NETWORK_HITS'
p3235
F0.037575528700906344
sS'MEAN_USER_HITS'
p3236
F0.05067503776435045
sS'MEAN'
p3237
F0.088250566465256794
ssS'OVERHEAD'
p3238
g11
(tRp3239
g3237
F0.43541678069071205
ssS'ABS'
p3240
g11
(tRp3241
S'MEAN_ABS_TIME'
p3242
F766.29608943574362
sS'NUM_ABS'
p3243
I8432
sstp3244
a(g11
(tRp3245
S'workload'
p3246
g11
(tRp3247
S'n_contents'
p3248
I10000
sS'disconnection_rate'
p3249
F0.0025000000000000001
sS'name'
p3250
S'STATIONARY_SIT'
p3251
sS'n_warmup'
p3252
I36000
sS'rate'
p3253
I100
sS'n_measured'
p3254
I108000
sS'alpha'
p3255
F0.69999999999999996
ssS'cache_policy'
p3256
g11
(tRp3257
g3250
S'LRU'
p3258
ssS'desc'
p3259
S'strategy: SCOPED_FLOODING caching probability: 0.2'
p3260
sS'strategy'
p3261
g11
(tRp3262
S'scope'
p3263
I1
sg3250
S'SCOPED_FLOODING'
p3264
sS'p'
F0.20000000000000001
ssS'content_placement'
p3265
g11
(tRp3266
g3250
S'UNIFORM'
p3267
ssS'joint_cache_rsn_placement'
p3268
g11
(tRp3269
S'network_cache'
p3270
F1
sS'network_rsn'
p3271
F64
sg3250
S'CACHE_ALL_RSN_ALL_SIT'
p3272
sS'rsn_cache_ratio'
p3273
I64
ssS'warmup_strategy'
p3274
g11
(tRp3275
S'p'
F0.10000000000000001
sg3250
S'NDN'
p3276
ssS'topology'
p3277
g11
(tRp3278
S'ext_delay'
p3279
I2
sS'source_ratio'
p3280
F1
sg3250
S'ROCKET_FUEL'
p3281
sS'asn'
p3282
I3257
ssg11
(tRp3283
S'CACHE_HIT_RATIO'
p3284
g11
(tRp3285
S'MEAN_NETWORK_HITS'
p3286
F0.035925917209893396
sS'MEAN_USER_HITS'
p3287
F0.049932930129668415
sS'MEAN'
p3288
F0.085858847339561811
ssS'OVERHEAD'
p3289
g11
(tRp3290
g3288
F0.43158795833927804
ssS'ABS'
p3291
g11
(tRp3292
S'MEAN_ABS_TIME'
p3293
F764.56022495866682
sS'NUM_ABS'
p3294
I8440
sstp3295
a(g11
(tRp3296
S'workload'
p3297
g11
(tRp3298
S'n_contents'
p3299
I10000
sS'disconnection_rate'
p3300
F0.0025000000000000001
sS'name'
p3301
S'STATIONARY_SIT'
p3302
sS'n_warmup'
p3303
I36000
sS'rate'
p3304
I100
sS'n_measured'
p3305
I108000
sS'alpha'
p3306
F0.69999999999999996
ssS'cache_policy'
p3307
g11
(tRp3308
g3301
S'LRU'
p3309
ssS'desc'
p3310
S'strategy: SCOPED_FLOODING caching probability: 0.5'
p3311
sS'strategy'
p3312
g11
(tRp3313
S'scope'
p3314
I1
sg3301
S'SCOPED_FLOODING'
p3315
sS'p'
F0.5
ssS'content_placement'
p3316
g11
(tRp3317
g3301
S'UNIFORM'
p3318
ssS'joint_cache_rsn_placement'
p3319
g11
(tRp3320
S'network_cache'
p3321
F1
sS'network_rsn'
p3322
F64
sg3301
S'CACHE_ALL_RSN_ALL_SIT'
p3323
sS'rsn_cache_ratio'
p3324
I64
ssS'warmup_strategy'
p3325
g11
(tRp3326
S'p'
F0.10000000000000001
sg3301
S'NDN'
p3327
ssS'topology'
p3328
g11
(tRp3329
S'ext_delay'
p3330
I2
sS'source_ratio'
p3331
F1
sg3301
S'ROCKET_FUEL'
p3332
sS'asn'
p3333
I3257
ssg11
(tRp3334
S'CACHE_HIT_RATIO'
p3335
g11
(tRp3336
S'MEAN_NETWORK_HITS'
p3337
F0.039756933829373946
sS'MEAN_USER_HITS'
p3338
F0.051223561615487002
sS'MEAN'
p3339
F0.090980495444860948
ssS'OVERHEAD'
p3340
g11
(tRp3341
g3339
F0.44008562880429175
ssS'ABS'
p3342
g11
(tRp3343
S'MEAN_ABS_TIME'
p3344
F769.60664440942878
sS'NUM_ABS'
p3345
I8442
sstp3346
a(g11
(tRp3347
S'workload'
p3348
g11
(tRp3349
S'n_contents'
p3350
I10000
sS'disconnection_rate'
p3351
F0.0025000000000000001
sS'name'
p3352
S'STATIONARY_SIT'
p3353
sS'n_warmup'
p3354
I36000
sS'rate'
p3355
I100
sS'n_measured'
p3356
I108000
sS'alpha'
p3357
F0.69999999999999996
ssS'cache_policy'
p3358
g11
(tRp3359
g3352
S'LRU'
p3360
ssS'desc'
p3361
S'strategy: SIT_WITH_SCOPED_FLOODING caching probability: 0.1'
p3362
sS'strategy'
p3363
g11
(tRp3364
S'fan_out'
p3365
I100
sg3352
S'SIT_WITH_SCOPED_FLOODING'
p3366
sS'p'
F0.10000000000000001
sS'scope'
p3367
I2
ssS'content_placement'
p3368
g11
(tRp3369
g3352
S'UNIFORM'
p3370
ssS'joint_cache_rsn_placement'
p3371
g11
(tRp3372
S'network_cache'
p3373
F1
sS'network_rsn'
p3374
F64
sg3352
S'CACHE_ALL_RSN_ALL_SIT'
p3375
sS'rsn_cache_ratio'
p3376
I64
ssS'warmup_strategy'
p3377
g11
(tRp3378
S'p'
F0.10000000000000001
sg3352
S'NDN'
p3379
ssS'topology'
p3380
g11
(tRp3381
S'ext_delay'
p3382
I2
sS'source_ratio'
p3383
F1
sg3352
S'ROCKET_FUEL'
p3384
sS'asn'
p3385
I3257
ssg11
(tRp3386
S'CACHE_HIT_RATIO'
p3387
g11
(tRp3388
S'MEAN_NETWORK_HITS'
p3389
F0.10605125983547505
sS'MEAN_USER_HITS'
p3390
F0.22527299182084015
sS'MEAN'
p3391
F0.33132425165631518
ssS'OVERHEAD'
p3392
g11
(tRp3393
g3391
F0.68338021126320392
ssS'ABS'
p3394
g11
(tRp3395
S'MEAN_ABS_TIME'
p3396
F780.24719717508651
sS'NUM_ABS'
p3397
I7552
sstp3398
a(g11
(tRp3399
S'workload'
p3400
g11
(tRp3401
S'n_contents'
p3402
I10000
sS'disconnection_rate'
p3403
F0.0025000000000000001
sS'name'
p3404
S'STATIONARY_SIT'
p3405
sS'n_warmup'
p3406
I36000
sS'rate'
p3407
I100
sS'n_measured'
p3408
I108000
sS'alpha'
p3409
F0.69999999999999996
ssS'cache_policy'
p3410
g11
(tRp3411
g3404
S'LRU'
p3412
ssS'desc'
p3413
S'strategy: SCOPED_FLOODING caching probability: 0.6'
p3414
sS'strategy'
p3415
g11
(tRp3416
S'scope'
p3417
I1
sg3404
S'SCOPED_FLOODING'
p3418
sS'p'
F0.59999999999999998
ssS'content_placement'
p3419
g11
(tRp3420
g3404
S'UNIFORM'
p3421
ssS'joint_cache_rsn_placement'
p3422
g11
(tRp3423
S'network_cache'
p3424
F1
sS'network_rsn'
p3425
F64
sg3404
S'CACHE_ALL_RSN_ALL_SIT'
p3426
sS'rsn_cache_ratio'
p3427
I64
ssS'warmup_strategy'
p3428
g11
(tRp3429
S'p'
F0.10000000000000001
sg3404
S'NDN'
p3430
ssS'topology'
p3431
g11
(tRp3432
S'ext_delay'
p3433
I2
sS'source_ratio'
p3434
F1
sg3404
S'ROCKET_FUEL'
p3435
sS'asn'
p3436
I3257
ssg11
(tRp3437
S'CACHE_HIT_RATIO'
p3438
g11
(tRp3439
S'MEAN_NETWORK_HITS'
p3440
F0.040545957902382197
sS'MEAN_USER_HITS'
p3441
F0.05122835811744509
sS'MEAN'
p3442
F0.091774316019827287
ssS'OVERHEAD'
p3443
g11
(tRp3444
g3442
F0.44175419107251063
ssS'ABS'
p3445
g11
(tRp3446
S'MEAN_ABS_TIME'
p3447
F758.73723048292095
sS'NUM_ABS'
p3448
I8473
sstp3449
a(g11
(tRp3450
S'workload'
p3451
g11
(tRp3452
S'n_contents'
p3453
I10000
sS'disconnection_rate'
p3454
F0.0025000000000000001
sS'name'
p3455
S'STATIONARY_SIT'
p3456
sS'n_warmup'
p3457
I36000
sS'rate'
p3458
I100
sS'n_measured'
p3459
I108000
sS'alpha'
p3460
F0.69999999999999996
ssS'cache_policy'
p3461
g11
(tRp3462
g3455
S'LRU'
p3463
ssS'desc'
p3464
S'strategy: SCOPED_FLOODING caching probability: 0.7'
p3465
sS'strategy'
p3466
g11
(tRp3467
S'scope'
p3468
I1
sg3455
S'SCOPED_FLOODING'
p3469
sS'p'
F0.69999999999999996
ssS'content_placement'
p3470
g11
(tRp3471
g3455
S'UNIFORM'
p3472
ssS'joint_cache_rsn_placement'
p3473
g11
(tRp3474
S'network_cache'
p3475
F1
sS'network_rsn'
p3476
F64
sg3455
S'CACHE_ALL_RSN_ALL_SIT'
p3477
sS'rsn_cache_ratio'
p3478
I64
ssS'warmup_strategy'
p3479
g11
(tRp3480
S'p'
F0.10000000000000001
sg3455
S'NDN'
p3481
ssS'topology'
p3482
g11
(tRp3483
S'ext_delay'
p3484
I2
sS'source_ratio'
p3485
F1
sg3455
S'ROCKET_FUEL'
p3486
sS'asn'
p3487
I3257
ssg11
(tRp3488
S'CACHE_HIT_RATIO'
p3489
g11
(tRp3490
S'MEAN_NETWORK_HITS'
p3491
F0.043285233398460486
sS'MEAN_USER_HITS'
p3492
F0.051029872178150235
sS'MEAN'
p3493
F0.094315105576610714
ssS'OVERHEAD'
p3494
g11
(tRp3495
g3493
F0.44947263397947551
ssS'ABS'
p3496
g11
(tRp3497
S'MEAN_ABS_TIME'
p3498
F760.92264053667702
sS'NUM_ABS'
p3499
I8456
sstp3500
a(g11
(tRp3501
S'workload'
p3502
g11
(tRp3503
S'n_contents'
p3504
I10000
sS'disconnection_rate'
p3505
F0.0025000000000000001
sS'name'
p3506
S'STATIONARY_SIT'
p3507
sS'n_warmup'
p3508
I36000
sS'rate'
p3509
I100
sS'n_measured'
p3510
I108000
sS'alpha'
p3511
F0.69999999999999996
ssS'cache_policy'
p3512
g11
(tRp3513
g3506
S'LRU'
p3514
ssS'desc'
p3515
S'strategy: SCOPED_FLOODING caching probability: 0.8'
p3516
sS'strategy'
p3517
g11
(tRp3518
S'scope'
p3519
I1
sg3506
S'SCOPED_FLOODING'
p3520
sS'p'
F0.80000000000000004
ssS'content_placement'
p3521
g11
(tRp3522
g3506
S'UNIFORM'
p3523
ssS'joint_cache_rsn_placement'
p3524
g11
(tRp3525
S'network_cache'
p3526
F1
sS'network_rsn'
p3527
F64
sg3506
S'CACHE_ALL_RSN_ALL_SIT'
p3528
sS'rsn_cache_ratio'
p3529
I64
ssS'warmup_strategy'
p3530
g11
(tRp3531
S'p'
F0.10000000000000001
sg3506
S'NDN'
p3532
ssS'topology'
p3533
g11
(tRp3534
S'ext_delay'
p3535
I2
sS'source_ratio'
p3536
F1
sg3506
S'ROCKET_FUEL'
p3537
sS'asn'
p3538
I3257
ssg11
(tRp3539
S'CACHE_HIT_RATIO'
p3540
g11
(tRp3541
S'MEAN_NETWORK_HITS'
p3542
F0.043066208649004754
sS'MEAN_USER_HITS'
p3543
F0.050407039668721475
sS'MEAN'
p3544
F0.093473248317726229
ssS'OVERHEAD'
p3545
g11
(tRp3546
g3544
F0.44995108449259108
ssS'ABS'
p3547
g11
(tRp3548
S'MEAN_ABS_TIME'
p3549
F760.58734682682655
sS'NUM_ABS'
p3550
I8456
sstp3551
a(g11
(tRp3552
S'workload'
p3553
g11
(tRp3554
S'n_contents'
p3555
I10000
sS'disconnection_rate'
p3556
F0.0025000000000000001
sS'name'
p3557
S'STATIONARY_SIT'
p3558
sS'n_warmup'
p3559
I36000
sS'rate'
p3560
I100
sS'n_measured'
p3561
I108000
sS'alpha'
p3562
F0.69999999999999996
ssS'cache_policy'
p3563
g11
(tRp3564
g3557
S'LRU'
p3565
ssS'desc'
p3566
S'strategy: SIT_WITH_SCOPED_FLOODING caching probability: 0.2'
p3567
sS'strategy'
p3568
g11
(tRp3569
S'fan_out'
p3570
I100
sg3557
S'SIT_WITH_SCOPED_FLOODING'
p3571
sS'p'
F0.20000000000000001
sS'scope'
p3572
I2
ssS'content_placement'
p3573
g11
(tRp3574
g3557
S'UNIFORM'
p3575
ssS'joint_cache_rsn_placement'
p3576
g11
(tRp3577
S'network_cache'
p3578
F1
sS'network_rsn'
p3579
F64
sg3557
S'CACHE_ALL_RSN_ALL_SIT'
p3580
sS'rsn_cache_ratio'
p3581
I64
ssS'warmup_strategy'
p3582
g11
(tRp3583
S'p'
F0.10000000000000001
sg3557
S'NDN'
p3584
ssS'topology'
p3585
g11
(tRp3586
S'ext_delay'
p3587
I2
sS'source_ratio'
p3588
F1
sg3557
S'ROCKET_FUEL'
p3589
sS'asn'
p3590
I3257
ssg11
(tRp3591
S'CACHE_HIT_RATIO'
p3592
g11
(tRp3593
S'MEAN_NETWORK_HITS'
p3594
F0.11797975041205556
sS'MEAN_USER_HITS'
p3595
F0.21110901813044503
sS'MEAN'
p3596
F0.32908876854250058
ssS'OVERHEAD'
p3597
g11
(tRp3598
g3596
F0.67796750488661506
ssS'ABS'
p3599
g11
(tRp3600
S'MEAN_ABS_TIME'
p3601
F774.42907513389412
sS'NUM_ABS'
p3602
I7566
sstp3603
a(g11
(tRp3604
S'workload'
p3605
g11
(tRp3606
S'n_contents'
p3607
I10000
sS'disconnection_rate'
p3608
F0.0025000000000000001
sS'name'
p3609
S'STATIONARY_SIT'
p3610
sS'n_warmup'
p3611
I36000
sS'rate'
p3612
I100
sS'n_measured'
p3613
I108000
sS'alpha'
p3614
F0.69999999999999996
ssS'cache_policy'
p3615
g11
(tRp3616
g3609
S'LRU'
p3617
ssS'desc'
p3618
S'strategy: SCOPED_FLOODING caching probability: 0.9'
p3619
sS'strategy'
p3620
g11
(tRp3621
S'scope'
p3622
I1
sg3609
S'SCOPED_FLOODING'
p3623
sS'p'
F0.90000000000000002
ssS'content_placement'
p3624
g11
(tRp3625
g3609
S'UNIFORM'
p3626
ssS'joint_cache_rsn_placement'
p3627
g11
(tRp3628
S'network_cache'
p3629
F1
sS'network_rsn'
p3630
F64
sg3609
S'CACHE_ALL_RSN_ALL_SIT'
p3631
sS'rsn_cache_ratio'
p3632
I64
ssS'warmup_strategy'
p3633
g11
(tRp3634
S'p'
F0.10000000000000001
sg3609
S'NDN'
p3635
ssS'topology'
p3636
g11
(tRp3637
S'ext_delay'
p3638
I2
sS'source_ratio'
p3639
F1
sg3609
S'ROCKET_FUEL'
p3640
sS'asn'
p3641
I3257
ssg11
(tRp3642
S'CACHE_HIT_RATIO'
p3643
g11
(tRp3644
S'MEAN_NETWORK_HITS'
p3645
F0.043398642350748022
sS'MEAN_USER_HITS'
p3646
F0.051481457072109819
sS'MEAN'
p3647
F0.094880099422857841
ssS'OVERHEAD'
p3648
g11
(tRp3649
g3647
F0.44861855088807445
ssS'ABS'
p3650
g11
(tRp3651
S'MEAN_ABS_TIME'
p3652
F761.91263855395107
sS'NUM_ABS'
p3653
I8518
sstp3654
a(g11
(tRp3655
S'workload'
p3656
g11
(tRp3657
S'n_contents'
p3658
I10000
sS'disconnection_rate'
p3659
F0.0025000000000000001
sS'name'
p3660
S'STATIONARY_SIT'
p3661
sS'n_warmup'
p3662
I36000
sS'rate'
p3663
I100
sS'n_measured'
p3664
I108000
sS'alpha'
p3665
F0.69999999999999996
ssS'cache_policy'
p3666
g11
(tRp3667
g3660
S'LRU'
p3668
ssS'desc'
p3669
S'strategy: SCOPED_FLOODING caching probability: 1.0'
p3670
sS'strategy'
p3671
g11
(tRp3672
S'scope'
p3673
I1
sg3660
S'SCOPED_FLOODING'
p3674
sS'p'
F1
ssS'content_placement'
p3675
g11
(tRp3676
g3660
S'UNIFORM'
p3677
ssS'joint_cache_rsn_placement'
p3678
g11
(tRp3679
S'network_cache'
p3680
F1
sS'network_rsn'
p3681
F64
sg3660
S'CACHE_ALL_RSN_ALL_SIT'
p3682
sS'rsn_cache_ratio'
p3683
I64
ssS'warmup_strategy'
p3684
g11
(tRp3685
S'p'
F0.10000000000000001
sg3660
S'NDN'
p3686
ssS'topology'
p3687
g11
(tRp3688
S'ext_delay'
p3689
I2
sS'source_ratio'
p3690
F1
sg3660
S'ROCKET_FUEL'
p3691
sS'asn'
p3692
I3257
ssg11
(tRp3693
S'CACHE_HIT_RATIO'
p3694
g11
(tRp3695
S'MEAN_NETWORK_HITS'
p3696
F0.04381589121701903
sS'MEAN_USER_HITS'
p3697
F0.051378647002244308
sS'MEAN'
p3698
F0.095194538219263339
ssS'OVERHEAD'
p3699
g11
(tRp3700
g3698
F0.44784315558255833
ssS'ABS'
p3701
g11
(tRp3702
S'MEAN_ABS_TIME'
p3703
F766.51333729529085
sS'NUM_ABS'
p3704
I8417
sstp3705
a(g11
(tRp3706
S'workload'
p3707
g11
(tRp3708
S'n_contents'
p3709
I10000
sS'disconnection_rate'
p3710
F0.0025000000000000001
sS'name'
p3711
S'STATIONARY_SIT'
p3712
sS'n_warmup'
p3713
I36000
sS'rate'
p3714
I100
sS'n_measured'
p3715
I108000
sS'alpha'
p3716
F0.69999999999999996
ssS'cache_policy'
p3717
g11
(tRp3718
g3711
S'LRU'
p3719
ssS'desc'
p3720
S'strategy: SCOPED_FLOODING caching probability: 0.1'
p3721
sS'strategy'
p3722
g11
(tRp3723
S'scope'
p3724
I2
sg3711
S'SCOPED_FLOODING'
p3725
sS'p'
F0.10000000000000001
ssS'content_placement'
p3726
g11
(tRp3727
g3711
S'UNIFORM'
p3728
ssS'joint_cache_rsn_placement'
p3729
g11
(tRp3730
S'network_cache'
p3731
F1
sS'network_rsn'
p3732
F64
sg3711
S'CACHE_ALL_RSN_ALL_SIT'
p3733
sS'rsn_cache_ratio'
p3734
I64
ssS'warmup_strategy'
p3735
g11
(tRp3736
S'p'
F0.10000000000000001
sg3711
S'NDN'
p3737
ssS'topology'
p3738
g11
(tRp3739
S'ext_delay'
p3740
I2
sS'source_ratio'
p3741
F1
sg3711
S'ROCKET_FUEL'
p3742
sS'asn'
p3743
I3257
ssg11
(tRp3744
S'CACHE_HIT_RATIO'
p3745
g11
(tRp3746
S'MEAN_NETWORK_HITS'
p3747
F0.094964591470855689
sS'MEAN_USER_HITS'
p3748
F0.080966089795841439
sS'MEAN'
p3749
F0.17593068126669714
ssS'OVERHEAD'
p3750
g11
(tRp3751
g3749
F0.60248708366839587
ssS'ABS'
p3752
g11
(tRp3753
S'MEAN_ABS_TIME'
p3754
F810.02560635700218
sS'NUM_ABS'
p3755
I8624
sstp3756
a(g11
(tRp3757
S'workload'
p3758
g11
(tRp3759
S'n_contents'
p3760
I10000
sS'disconnection_rate'
p3761
F0.0025000000000000001
sS'name'
p3762
S'STATIONARY_SIT'
p3763
sS'n_warmup'
p3764
I36000
sS'rate'
p3765
I100
sS'n_measured'
p3766
I108000
sS'alpha'
p3767
F0.69999999999999996
ssS'cache_policy'
p3768
g11
(tRp3769
g3762
S'LRU'
p3770
ssS'desc'
p3771
S'strategy: SIT_WITH_SCOPED_FLOODING caching probability: 0.3'
p3772
sS'strategy'
p3773
g11
(tRp3774
S'fan_out'
p3775
I100
sg3762
S'SIT_WITH_SCOPED_FLOODING'
p3776
sS'p'
F0.29999999999999999
sS'scope'
p3777
I2
ssS'content_placement'
p3778
g11
(tRp3779
g3762
S'UNIFORM'
p3780
ssS'joint_cache_rsn_placement'
p3781
g11
(tRp3782
S'network_cache'
p3783
F1
sS'network_rsn'
p3784
F64
sg3762
S'CACHE_ALL_RSN_ALL_SIT'
p3785
sS'rsn_cache_ratio'
p3786
I64
ssS'warmup_strategy'
p3787
g11
(tRp3788
S'p'
F0.10000000000000001
sg3762
S'NDN'
p3789
ssS'topology'
p3790
g11
(tRp3791
S'ext_delay'
p3792
I2
sS'source_ratio'
p3793
F1
sg3762
S'ROCKET_FUEL'
p3794
sS'asn'
p3795
I3257
ssg11
(tRp3796
S'CACHE_HIT_RATIO'
p3797
g11
(tRp3798
S'MEAN_NETWORK_HITS'
p3799
F0.12384188352387863
sS'MEAN_USER_HITS'
p3800
F0.2031593134713805
sS'MEAN'
p3801
F0.32700119699525915
ssS'OVERHEAD'
p3802
g11
(tRp3803
g3801
F0.67796790006436969
ssS'ABS'
p3804
g11
(tRp3805
S'MEAN_ABS_TIME'
p3806
F763.54982508734918
sS'NUM_ABS'
p3807
I7572
sstp3808
a(g11
(tRp3809
S'workload'
p3810
g11
(tRp3811
S'n_contents'
p3812
I10000
sS'disconnection_rate'
p3813
F0.0025000000000000001
sS'name'
p3814
S'STATIONARY_SIT'
p3815
sS'n_warmup'
p3816
I36000
sS'rate'
p3817
I100
sS'n_measured'
p3818
I108000
sS'alpha'
p3819
F0.69999999999999996
ssS'cache_policy'
p3820
g11
(tRp3821
g3814
S'LRU'
p3822
ssS'desc'
p3823
S'strategy: SCOPED_FLOODING caching probability: 0.2'
p3824
sS'strategy'
p3825
g11
(tRp3826
S'scope'
p3827
I2
sg3814
S'SCOPED_FLOODING'
p3828
sS'p'
F0.20000000000000001
ssS'content_placement'
p3829
g11
(tRp3830
g3814
S'UNIFORM'
p3831
ssS'joint_cache_rsn_placement'
p3832
g11
(tRp3833
S'network_cache'
p3834
F1
sS'network_rsn'
p3835
F64
sg3814
S'CACHE_ALL_RSN_ALL_SIT'
p3836
sS'rsn_cache_ratio'
p3837
I64
ssS'warmup_strategy'
p3838
g11
(tRp3839
S'p'
F0.10000000000000001
sg3814
S'NDN'
p3840
ssS'topology'
p3841
g11
(tRp3842
S'ext_delay'
p3843
I2
sS'source_ratio'
p3844
F1
sg3814
S'ROCKET_FUEL'
p3845
sS'asn'
p3846
I3257
ssg11
(tRp3847
S'CACHE_HIT_RATIO'
p3848
g11
(tRp3849
S'MEAN_NETWORK_HITS'
p3850
F0.092440934493125126
sS'MEAN_USER_HITS'
p3851
F0.078823119186512233
sS'MEAN'
p3852
F0.17126405367963737
ssS'OVERHEAD'
p3853
g11
(tRp3854
g3852
F0.59324191817813121
ssS'ABS'
p3855
g11
(tRp3856
S'MEAN_ABS_TIME'
p3857
F800.03373838188361
sS'NUM_ABS'
p3858
I8624
sstp3859
a(g11
(tRp3860
S'workload'
p3861
g11
(tRp3862
S'n_contents'
p3863
I10000
sS'disconnection_rate'
p3864
F0.0025000000000000001
sS'name'
p3865
S'STATIONARY_SIT'
p3866
sS'n_warmup'
p3867
I36000
sS'rate'
p3868
I100
sS'n_measured'
p3869
I108000
sS'alpha'
p3870
F0.69999999999999996
ssS'cache_policy'
p3871
g11
(tRp3872
g3865
S'LRU'
p3873
ssS'desc'
p3874
S'strategy: SIT_WITH_SCOPED_FLOODING caching probability: 0.4'
p3875
sS'strategy'
p3876
g11
(tRp3877
S'fan_out'
p3878
I100
sg3865
S'SIT_WITH_SCOPED_FLOODING'
p3879
sS'p'
F0.40000000000000002
sS'scope'
p3880
I2
ssS'content_placement'
p3881
g11
(tRp3882
g3865
S'UNIFORM'
p3883
ssS'joint_cache_rsn_placement'
p3884
g11
(tRp3885
S'network_cache'
p3886
F1
sS'network_rsn'
p3887
F64
sg3865
S'CACHE_ALL_RSN_ALL_SIT'
p3888
sS'rsn_cache_ratio'
p3889
I64
ssS'warmup_strategy'
p3890
g11
(tRp3891
S'p'
F0.10000000000000001
sg3865
S'NDN'
p3892
ssS'topology'
p3893
g11
(tRp3894
S'ext_delay'
p3895
I2
sS'source_ratio'
p3896
F1
sg3865
S'ROCKET_FUEL'
p3897
sS'asn'
p3898
I3257
ssg11
(tRp3899
S'CACHE_HIT_RATIO'
p3900
g11
(tRp3901
S'MEAN_NETWORK_HITS'
p3902
F0.12576977178530602
sS'MEAN_USER_HITS'
p3903
F0.19987486062955453
sS'MEAN'
p3904
F0.32564463241486052
ssS'OVERHEAD'
p3905
g11
(tRp3906
g3904
F0.67786373487577689
ssS'ABS'
p3907
g11
(tRp3908
S'MEAN_ABS_TIME'
p3909
F756.27687484796195
sS'NUM_ABS'
p3910
I7444
sstp3911
a(g11
(tRp3912
S'workload'
p3913
g11
(tRp3914
S'n_contents'
p3915
I10000
sS'disconnection_rate'
p3916
F0.0025000000000000001
sS'name'
p3917
S'STATIONARY_SIT'
p3918
sS'n_warmup'
p3919
I36000
sS'rate'
p3920
I100
sS'n_measured'
p3921
I108000
sS'alpha'
p3922
F0.69999999999999996
ssS'cache_policy'
p3923
g11
(tRp3924
g3917
S'LRU'
p3925
ssS'desc'
p3926
S'strategy: SCOPED_FLOODING caching probability: 0.4'
p3927
sS'strategy'
p3928
g11
(tRp3929
S'scope'
p3930
I2
sg3917
S'SCOPED_FLOODING'
p3931
sS'p'
F0.40000000000000002
ssS'content_placement'
p3932
g11
(tRp3933
g3917
S'UNIFORM'
p3934
ssS'joint_cache_rsn_placement'
p3935
g11
(tRp3936
S'network_cache'
p3937
F1
sS'network_rsn'
p3938
F64
sg3917
S'CACHE_ALL_RSN_ALL_SIT'
p3939
sS'rsn_cache_ratio'
p3940
I64
ssS'warmup_strategy'
p3941
g11
(tRp3942
S'p'
F0.10000000000000001
sg3917
S'NDN'
p3943
ssS'topology'
p3944
g11
(tRp3945
S'ext_delay'
p3946
I2
sS'source_ratio'
p3947
F1
sg3917
S'ROCKET_FUEL'
p3948
sS'asn'
p3949
I3257
ssg11
(tRp3950
S'CACHE_HIT_RATIO'
p3951
g11
(tRp3952
S'MEAN_NETWORK_HITS'
p3953
F0.090010904404718636
sS'MEAN_USER_HITS'
p3954
F0.079550228709267798
sS'MEAN'
p3955
F0.16956113311398643
ssS'OVERHEAD'
p3956
g11
(tRp3957
g3955
F0.58630851926671135
ssS'ABS'
p3958
g11
(tRp3959
S'MEAN_ABS_TIME'
p3960
F780.39905908645824
sS'NUM_ABS'
p3961
I8658
sstp3962
a(g11
(tRp3963
S'workload'
p3964
g11
(tRp3965
S'n_contents'
p3966
I10000
sS'disconnection_rate'
p3967
F0.0025000000000000001
sS'name'
p3968
S'STATIONARY_SIT'
p3969
sS'n_warmup'
p3970
I36000
sS'rate'
p3971
I100
sS'n_measured'
p3972
I108000
sS'alpha'
p3973
F0.69999999999999996
ssS'cache_policy'
p3974
g11
(tRp3975
g3968
S'LRU'
p3976
ssS'desc'
p3977
S'strategy: SIT_WITH_SCOPED_FLOODING caching probability: 0.5'
p3978
sS'strategy'
p3979
g11
(tRp3980
S'fan_out'
p3981
I100
sg3968
S'SIT_WITH_SCOPED_FLOODING'
p3982
sS'p'
F0.5
sS'scope'
p3983
I2
ssS'content_placement'
p3984
g11
(tRp3985
g3968
S'UNIFORM'
p3986
ssS'joint_cache_rsn_placement'
p3987
g11
(tRp3988
S'network_cache'
p3989
F1
sS'network_rsn'
p3990
F64
sg3968
S'CACHE_ALL_RSN_ALL_SIT'
p3991
sS'rsn_cache_ratio'
p3992
I64
ssS'warmup_strategy'
p3993
g11
(tRp3994
S'p'
F0.10000000000000001
sg3968
S'NDN'
p3995
ssS'topology'
p3996
g11
(tRp3997
S'ext_delay'
p3998
I2
sS'source_ratio'
p3999
F1
sg3968
S'ROCKET_FUEL'
p4000
sS'asn'
p4001
I3257
ssg11
(tRp4002
S'CACHE_HIT_RATIO'
p4003
g11
(tRp4004
S'MEAN_NETWORK_HITS'
p4005
F0.12765736950449155
sS'MEAN_USER_HITS'
p4006
F0.20064817911600805
sS'MEAN'
p4007
F0.3283055486204996
ssS'OVERHEAD'
p4008
g11
(tRp4009
g4007
F0.67759410634500161
ssS'ABS'
p4010
g11
(tRp4011
S'MEAN_ABS_TIME'
p4012
F733.22177725871882
sS'NUM_ABS'
p4013
I7256
sstp4014
a(g11
(tRp4015
S'workload'
p4016
g11
(tRp4017
S'n_contents'
p4018
I10000
sS'disconnection_rate'
p4019
F0.0025000000000000001
sS'name'
p4020
S'STATIONARY_SIT'
p4021
sS'n_warmup'
p4022
I36000
sS'rate'
p4023
I100
sS'n_measured'
p4024
I108000
sS'alpha'
p4025
F0.69999999999999996
ssS'cache_policy'
p4026
g11
(tRp4027
g4020
S'LRU'
p4028
ssS'desc'
p4029
S'strategy: SCOPED_FLOODING caching probability: 0.3'
p4030
sS'strategy'
p4031
g11
(tRp4032
S'scope'
p4033
I2
sg4020
S'SCOPED_FLOODING'
p4034
sS'p'
F0.29999999999999999
ssS'content_placement'
p4035
g11
(tRp4036
g4020
S'UNIFORM'
p4037
ssS'joint_cache_rsn_placement'
p4038
g11
(tRp4039
S'network_cache'
p4040
F1
sS'network_rsn'
p4041
F64
sg4020
S'CACHE_ALL_RSN_ALL_SIT'
p4042
sS'rsn_cache_ratio'
p4043
I64
ssS'warmup_strategy'
p4044
g11
(tRp4045
S'p'
F0.10000000000000001
sg4020
S'NDN'
p4046
ssS'topology'
p4047
g11
(tRp4048
S'ext_delay'
p4049
I2
sS'source_ratio'
p4050
F1
sg4020
S'ROCKET_FUEL'
p4051
sS'asn'
p4052
I3257
ssg11
(tRp4053
S'CACHE_HIT_RATIO'
p4054
g11
(tRp4055
S'MEAN_NETWORK_HITS'
p4056
F0.09171728795653486
sS'MEAN_USER_HITS'
p4057
F0.077030825535768191
sS'MEAN'
p4058
F0.16874811349230304
ssS'OVERHEAD'
p4059
g11
(tRp4060
g4058
F0.58932914908418765
ssS'ABS'
p4061
g11
(tRp4062
S'MEAN_ABS_TIME'
p4063
F781.57091556100636
sS'NUM_ABS'
p4064
I8602
sstp4065
a(g11
(tRp4066
S'workload'
p4067
g11
(tRp4068
S'n_contents'
p4069
I10000
sS'disconnection_rate'
p4070
F0.0025000000000000001
sS'name'
p4071
S'STATIONARY_SIT'
p4072
sS'n_warmup'
p4073
I36000
sS'rate'
p4074
I100
sS'n_measured'
p4075
I108000
sS'alpha'
p4076
F0.69999999999999996
ssS'cache_policy'
p4077
g11
(tRp4078
g4071
S'LRU'
p4079
ssS'desc'
p4080
S'strategy: SCOPED_FLOODING caching probability: 0.5'
p4081
sS'strategy'
p4082
g11
(tRp4083
S'scope'
p4084
I2
sg4071
S'SCOPED_FLOODING'
p4085
sS'p'
F0.5
ssS'content_placement'
p4086
g11
(tRp4087
g4071
S'UNIFORM'
p4088
ssS'joint_cache_rsn_placement'
p4089
g11
(tRp4090
S'network_cache'
p4091
F1
sS'network_rsn'
p4092
F64
sg4071
S'CACHE_ALL_RSN_ALL_SIT'
p4093
sS'rsn_cache_ratio'
p4094
I64
ssS'warmup_strategy'
p4095
g11
(tRp4096
S'p'
F0.10000000000000001
sg4071
S'NDN'
p4097
ssS'topology'
p4098
g11
(tRp4099
S'ext_delay'
p4100
I2
sS'source_ratio'
p4101
F1
sg4071
S'ROCKET_FUEL'
p4102
sS'asn'
p4103
I3257
ssg11
(tRp4104
S'CACHE_HIT_RATIO'
p4105
g11
(tRp4106
S'MEAN_NETWORK_HITS'
p4107
F0.091627983694243506
sS'MEAN_USER_HITS'
p4108
F0.076283607059544289
sS'MEAN'
p4109
F0.16791159075378778
ssS'OVERHEAD'
p4110
g11
(tRp4111
g4109
F0.58569104243629111
ssS'ABS'
p4112
g11
(tRp4113
S'MEAN_ABS_TIME'
p4114
F769.77503973730234
sS'NUM_ABS'
p4115
I8554
sstp4116
a(g11
(tRp4117
S'workload'
p4118
g11
(tRp4119
S'n_contents'
p4120
I10000
sS'disconnection_rate'
p4121
F0.0025000000000000001
sS'name'
p4122
S'STATIONARY_SIT'
p4123
sS'n_warmup'
p4124
I36000
sS'rate'
p4125
I100
sS'n_measured'
p4126
I108000
sS'alpha'
p4127
F0.69999999999999996
ssS'cache_policy'
p4128
g11
(tRp4129
g4122
S'LRU'
p4130
ssS'desc'
p4131
S'strategy: SIT_WITH_SCOPED_FLOODING caching probability: 0.6'
p4132
sS'strategy'
p4133
g11
(tRp4134
S'fan_out'
p4135
I100
sg4122
S'SIT_WITH_SCOPED_FLOODING'
p4136
sS'p'
F0.59999999999999998
sS'scope'
p4137
I2
ssS'content_placement'
p4138
g11
(tRp4139
g4122
S'UNIFORM'
p4140
ssS'joint_cache_rsn_placement'
p4141
g11
(tRp4142
S'network_cache'
p4143
F1
sS'network_rsn'
p4144
F64
sg4122
S'CACHE_ALL_RSN_ALL_SIT'
p4145
sS'rsn_cache_ratio'
p4146
I64
ssS'warmup_strategy'
p4147
g11
(tRp4148
S'p'
F0.10000000000000001
sg4122
S'NDN'
p4149
ssS'topology'
p4150
g11
(tRp4151
S'ext_delay'
p4152
I2
sS'source_ratio'
p4153
F1
sg4122
S'ROCKET_FUEL'
p4154
sS'asn'
p4155
I3257
ssg11
(tRp4156
S'CACHE_HIT_RATIO'
p4157
g11
(tRp4158
S'MEAN_NETWORK_HITS'
p4159
F0.13033037266788852
sS'MEAN_USER_HITS'
p4160
F0.19453451759951126
sS'MEAN'
p4161
F0.32486489026739979
ssS'OVERHEAD'
p4162
g11
(tRp4163
g4161
F0.67654359337204717
ssS'ABS'
p4164
g11
(tRp4165
S'MEAN_ABS_TIME'
p4166
F718.2087775554769
sS'NUM_ABS'
p4167
I7188
sstp4168
a(g11
(tRp4169
S'workload'
p4170
g11
(tRp4171
S'n_contents'
p4172
I10000
sS'disconnection_rate'
p4173
F0.0025000000000000001
sS'name'
p4174
S'STATIONARY_SIT'
p4175
sS'n_warmup'
p4176
I36000
sS'rate'
p4177
I100
sS'n_measured'
p4178
I108000
sS'alpha'
p4179
F0.69999999999999996
ssS'cache_policy'
p4180
g11
(tRp4181
g4174
S'LRU'
p4182
ssS'desc'
p4183
S'strategy: SCOPED_FLOODING caching probability: 0.8'
p4184
sS'strategy'
p4185
g11
(tRp4186
S'scope'
p4187
I2
sg4174
S'SCOPED_FLOODING'
p4188
sS'p'
F0.80000000000000004
ssS'content_placement'
p4189
g11
(tRp4190
g4174
S'UNIFORM'
p4191
ssS'joint_cache_rsn_placement'
p4192
g11
(tRp4193
S'network_cache'
p4194
F1
sS'network_rsn'
p4195
F64
sg4174
S'CACHE_ALL_RSN_ALL_SIT'
p4196
sS'rsn_cache_ratio'
p4197
I64
ssS'warmup_strategy'
p4198
g11
(tRp4199
S'p'
F0.10000000000000001
sg4174
S'NDN'
p4200
ssS'topology'
p4201
g11
(tRp4202
S'ext_delay'
p4203
I2
sS'source_ratio'
p4204
F1
sg4174
S'ROCKET_FUEL'
p4205
sS'asn'
p4206
I3257
ssg11
(tRp4207
S'CACHE_HIT_RATIO'
p4208
g11
(tRp4209
S'MEAN_NETWORK_HITS'
p4210
F0.08838673845922132
sS'MEAN_USER_HITS'
p4211
F0.077415468032231344
sS'MEAN'
p4212
F0.16580220649145266
ssS'OVERHEAD'
p4213
g11
(tRp4214
g4212
F0.58190452239004686
ssS'ABS'
p4215
g11
(tRp4216
S'MEAN_ABS_TIME'
p4217
F753.61558407236259
sS'NUM_ABS'
p4218
I8601
sstp4219
a(g11
(tRp4220
S'workload'
p4221
g11
(tRp4222
S'n_contents'
p4223
I10000
sS'disconnection_rate'
p4224
F0.0025000000000000001
sS'name'
p4225
S'STATIONARY_SIT'
p4226
sS'n_warmup'
p4227
I36000
sS'rate'
p4228
I100
sS'n_measured'
p4229
I108000
sS'alpha'
p4230
F0.69999999999999996
ssS'cache_policy'
p4231
g11
(tRp4232
g4225
S'LRU'
p4233
ssS'desc'
p4234
S'strategy: SCOPED_FLOODING caching probability: 0.7'
p4235
sS'strategy'
p4236
g11
(tRp4237
S'scope'
p4238
I2
sg4225
S'SCOPED_FLOODING'
p4239
sS'p'
F0.69999999999999996
ssS'content_placement'
p4240
g11
(tRp4241
g4225
S'UNIFORM'
p4242
ssS'joint_cache_rsn_placement'
p4243
g11
(tRp4244
S'network_cache'
p4245
F1
sS'network_rsn'
p4246
F64
sg4225
S'CACHE_ALL_RSN_ALL_SIT'
p4247
sS'rsn_cache_ratio'
p4248
I64
ssS'warmup_strategy'
p4249
g11
(tRp4250
S'p'
F0.10000000000000001
sg4225
S'NDN'
p4251
ssS'topology'
p4252
g11
(tRp4253
S'ext_delay'
p4254
I2
sS'source_ratio'
p4255
F1
sg4225
S'ROCKET_FUEL'
p4256
sS'asn'
p4257
I3257
ssg11
(tRp4258
S'CACHE_HIT_RATIO'
p4259
g11
(tRp4260
S'MEAN_NETWORK_HITS'
p4261
F0.088083218745879557
sS'MEAN_USER_HITS'
p4262
F0.075006121795475528
sS'MEAN'
p4263
F0.16308934054135507
ssS'OVERHEAD'
p4264
g11
(tRp4265
g4263
F0.5835077666107491
ssS'ABS'
p4266
g11
(tRp4267
S'MEAN_ABS_TIME'
p4268
F754.62978824018614
sS'NUM_ABS'
p4269
I8569
sstp4270
a(g11
(tRp4271
S'workload'
p4272
g11
(tRp4273
S'n_contents'
p4274
I10000
sS'disconnection_rate'
p4275
F0.0025000000000000001
sS'name'
p4276
S'STATIONARY_SIT'
p4277
sS'n_warmup'
p4278
I36000
sS'rate'
p4279
I100
sS'n_measured'
p4280
I108000
sS'alpha'
p4281
F0.69999999999999996
ssS'cache_policy'
p4282
g11
(tRp4283
g4276
S'LRU'
p4284
ssS'desc'
p4285
S'strategy: SCOPED_FLOODING caching probability: 0.9'
p4286
sS'strategy'
p4287
g11
(tRp4288
S'scope'
p4289
I2
sg4276
S'SCOPED_FLOODING'
p4290
sS'p'
F0.90000000000000002
ssS'content_placement'
p4291
g11
(tRp4292
g4276
S'UNIFORM'
p4293
ssS'joint_cache_rsn_placement'
p4294
g11
(tRp4295
S'network_cache'
p4296
F1
sS'network_rsn'
p4297
F64
sg4276
S'CACHE_ALL_RSN_ALL_SIT'
p4298
sS'rsn_cache_ratio'
p4299
I64
ssS'warmup_strategy'
p4300
g11
(tRp4301
S'p'
F0.10000000000000001
sg4276
S'NDN'
p4302
ssS'topology'
p4303
g11
(tRp4304
S'ext_delay'
p4305
I2
sS'source_ratio'
p4306
F1
sg4276
S'ROCKET_FUEL'
p4307
sS'asn'
p4308
I3257
ssg11
(tRp4309
S'CACHE_HIT_RATIO'
p4310
g11
(tRp4311
S'MEAN_NETWORK_HITS'
p4312
F0.086240374011480492
sS'MEAN_USER_HITS'
p4313
F0.077832656254418292
sS'MEAN'
p4314
F0.16407303026589878
ssS'OVERHEAD'
p4315
g11
(tRp4316
g4314
F0.58171918593876004
ssS'ABS'
p4317
g11
(tRp4318
S'MEAN_ABS_TIME'
p4319
F756.68439739887197
sS'NUM_ABS'
p4320
I8583
sstp4321
a(g11
(tRp4322
S'workload'
p4323
g11
(tRp4324
S'n_contents'
p4325
I10000
sS'disconnection_rate'
p4326
F0.0025000000000000001
sS'name'
p4327
S'STATIONARY_SIT'
p4328
sS'n_warmup'
p4329
I36000
sS'rate'
p4330
I100
sS'n_measured'
p4331
I108000
sS'alpha'
p4332
F0.69999999999999996
ssS'cache_policy'
p4333
g11
(tRp4334
g4327
S'LRU'
p4335
ssS'desc'
p4336
S'strategy: SCOPED_FLOODING caching probability: 0.6'
p4337
sS'strategy'
p4338
g11
(tRp4339
S'scope'
p4340
I2
sg4327
S'SCOPED_FLOODING'
p4341
sS'p'
F0.59999999999999998
ssS'content_placement'
p4342
g11
(tRp4343
g4327
S'UNIFORM'
p4344
ssS'joint_cache_rsn_placement'
p4345
g11
(tRp4346
S'network_cache'
p4347
F1
sS'network_rsn'
p4348
F64
sg4327
S'CACHE_ALL_RSN_ALL_SIT'
p4349
sS'rsn_cache_ratio'
p4350
I64
ssS'warmup_strategy'
p4351
g11
(tRp4352
S'p'
F0.10000000000000001
sg4327
S'NDN'
p4353
ssS'topology'
p4354
g11
(tRp4355
S'ext_delay'
p4356
I2
sS'source_ratio'
p4357
F1
sg4327
S'ROCKET_FUEL'
p4358
sS'asn'
p4359
I3257
ssg11
(tRp4360
S'CACHE_HIT_RATIO'
p4361
g11
(tRp4362
S'MEAN_NETWORK_HITS'
p4363
F0.088915234143449914
sS'MEAN_USER_HITS'
p4364
F0.077172777824822875
sS'MEAN'
p4365
F0.16608801196827278
ssS'OVERHEAD'
p4366
g11
(tRp4367
g4365
F0.58274858373731919
ssS'ABS'
p4368
g11
(tRp4369
S'MEAN_ABS_TIME'
p4370
F765.45082918081744
sS'NUM_ABS'
p4371
I8609
sstp4372
a(g11
(tRp4373
S'workload'
p4374
g11
(tRp4375
S'n_contents'
p4376
I10000
sS'disconnection_rate'
p4377
F0.0025000000000000001
sS'name'
p4378
S'STATIONARY_SIT'
p4379
sS'n_warmup'
p4380
I36000
sS'rate'
p4381
I100
sS'n_measured'
p4382
I108000
sS'alpha'
p4383
F0.69999999999999996
ssS'cache_policy'
p4384
g11
(tRp4385
g4378
S'LRU'
p4386
ssS'desc'
p4387
S'strategy: SIT_WITH_SCOPED_FLOODING caching probability: 0.7'
p4388
sS'strategy'
p4389
g11
(tRp4390
S'fan_out'
p4391
I100
sg4378
S'SIT_WITH_SCOPED_FLOODING'
p4392
sS'p'
F0.69999999999999996
sS'scope'
p4393
I2
ssS'content_placement'
p4394
g11
(tRp4395
g4378
S'UNIFORM'
p4396
ssS'joint_cache_rsn_placement'
p4397
g11
(tRp4398
S'network_cache'
p4399
F1
sS'network_rsn'
p4400
F64
sg4378
S'CACHE_ALL_RSN_ALL_SIT'
p4401
sS'rsn_cache_ratio'
p4402
I64
ssS'warmup_strategy'
p4403
g11
(tRp4404
S'p'
F0.10000000000000001
sg4378
S'NDN'
p4405
ssS'topology'
p4406
g11
(tRp4407
S'ext_delay'
p4408
I2
sS'source_ratio'
p4409
F1
sg4378
S'ROCKET_FUEL'
p4410
sS'asn'
p4411
I3257
ssg11
(tRp4412
S'CACHE_HIT_RATIO'
p4413
g11
(tRp4414
S'MEAN_NETWORK_HITS'
p4415
F0.13012701180573555
sS'MEAN_USER_HITS'
p4416
F0.19669156632184179
sS'MEAN'
p4417
F0.32681857812757736
ssS'OVERHEAD'
p4418
g11
(tRp4419
g4417
F0.67873715860686545
ssS'ABS'
p4420
g11
(tRp4421
S'MEAN_ABS_TIME'
p4422
F682.4206382770451
sS'NUM_ABS'
p4423
I6906
sstp4424
a(g11
(tRp4425
S'workload'
p4426
g11
(tRp4427
S'n_contents'
p4428
I10000
sS'disconnection_rate'
p4429
F0.0025000000000000001
sS'name'
p4430
S'STATIONARY_SIT'
p4431
sS'n_warmup'
p4432
I36000
sS'rate'
p4433
I100
sS'n_measured'
p4434
I108000
sS'alpha'
p4435
F0.69999999999999996
ssS'cache_policy'
p4436
g11
(tRp4437
g4430
S'LRU'
p4438
ssS'desc'
p4439
S'strategy: SIT_WITH_SCOPED_FLOODING caching probability: 0.8'
p4440
sS'strategy'
p4441
g11
(tRp4442
S'fan_out'
p4443
I100
sg4430
S'SIT_WITH_SCOPED_FLOODING'
p4444
sS'p'
F0.80000000000000004
sS'scope'
p4445
I2
ssS'content_placement'
p4446
g11
(tRp4447
g4430
S'UNIFORM'
p4448
ssS'joint_cache_rsn_placement'
p4449
g11
(tRp4450
S'network_cache'
p4451
F1
sS'network_rsn'
p4452
F64
sg4430
S'CACHE_ALL_RSN_ALL_SIT'
p4453
sS'rsn_cache_ratio'
p4454
I64
ssS'warmup_strategy'
p4455
g11
(tRp4456
S'p'
F0.10000000000000001
sg4430
S'NDN'
p4457
ssS'topology'
p4458
g11
(tRp4459
S'ext_delay'
p4460
I2
sS'source_ratio'
p4461
F1
sg4430
S'ROCKET_FUEL'
p4462
sS'asn'
p4463
I3257
ssg11
(tRp4464
S'CACHE_HIT_RATIO'
p4465
g11
(tRp4466
S'MEAN_NETWORK_HITS'
p4467
F0.12997391275633194
sS'MEAN_USER_HITS'
p4468
F0.19824418226161777
sS'MEAN'
p4469
F0.32821809501794974
ssS'OVERHEAD'
p4470
g11
(tRp4471
g4469
F0.678528433084571
ssS'ABS'
p4472
g11
(tRp4473
S'MEAN_ABS_TIME'
p4474
F652.67407431220374
sS'NUM_ABS'
p4475
I6663
sstp4476
a(g11
(tRp4477
S'workload'
p4478
g11
(tRp4479
S'n_contents'
p4480
I10000
sS'disconnection_rate'
p4481
F0.0025000000000000001
sS'name'
p4482
S'STATIONARY_SIT'
p4483
sS'n_warmup'
p4484
I36000
sS'rate'
p4485
I100
sS'n_measured'
p4486
I108000
sS'alpha'
p4487
F0.69999999999999996
ssS'cache_policy'
p4488
g11
(tRp4489
g4482
S'LRU'
p4490
ssS'desc'
p4491
S'strategy: SCOPED_FLOODING caching probability: 1.0'
p4492
sS'strategy'
p4493
g11
(tRp4494
S'scope'
p4495
I2
sg4482
S'SCOPED_FLOODING'
p4496
sS'p'
F1
ssS'content_placement'
p4497
g11
(tRp4498
g4482
S'UNIFORM'
p4499
ssS'joint_cache_rsn_placement'
p4500
g11
(tRp4501
S'network_cache'
p4502
F1
sS'network_rsn'
p4503
F64
sg4482
S'CACHE_ALL_RSN_ALL_SIT'
p4504
sS'rsn_cache_ratio'
p4505
I64
ssS'warmup_strategy'
p4506
g11
(tRp4507
S'p'
F0.10000000000000001
sg4482
S'NDN'
p4508
ssS'topology'
p4509
g11
(tRp4510
S'ext_delay'
p4511
I2
sS'source_ratio'
p4512
F1
sg4482
S'ROCKET_FUEL'
p4513
sS'asn'
p4514
I3257
ssg11
(tRp4515
S'CACHE_HIT_RATIO'
p4516
g11
(tRp4517
S'MEAN_NETWORK_HITS'
p4518
F0.087676955865125403
sS'MEAN_USER_HITS'
p4519
F0.077458328040535776
sS'MEAN'
p4520
F0.16513528390566118
ssS'OVERHEAD'
p4521
g11
(tRp4522
g4520
F0.58120398867413514
ssS'ABS'
p4523
g11
(tRp4524
S'MEAN_ABS_TIME'
p4525
F744.14448259893004
sS'NUM_ABS'
p4526
I8549
sstp4527
a(g11
(tRp4528
S'workload'
p4529
g11
(tRp4530
S'n_contents'
p4531
I10000
sS'disconnection_rate'
p4532
F0.0025000000000000001
sS'name'
p4533
S'STATIONARY_SIT'
p4534
sS'n_warmup'
p4535
I36000
sS'rate'
p4536
I100
sS'n_measured'
p4537
I108000
sS'alpha'
p4538
F0.69999999999999996
ssS'cache_policy'
p4539
g11
(tRp4540
g4533
S'LRU'
p4541
ssS'desc'
p4542
S'strategy: SIT_WITH_SCOPED_FLOODING caching probability: 1.0'
p4543
sS'strategy'
p4544
g11
(tRp4545
S'fan_out'
p4546
I100
sg4533
S'SIT_WITH_SCOPED_FLOODING'
p4547
sS'p'
F1
sS'scope'
p4548
I2
ssS'content_placement'
p4549
g11
(tRp4550
g4533
S'UNIFORM'
p4551
ssS'joint_cache_rsn_placement'
p4552
g11
(tRp4553
S'network_cache'
p4554
F1
sS'network_rsn'
p4555
F64
sg4533
S'CACHE_ALL_RSN_ALL_SIT'
p4556
sS'rsn_cache_ratio'
p4557
I64
ssS'warmup_strategy'
p4558
g11
(tRp4559
S'p'
F0.10000000000000001
sg4533
S'NDN'
p4560
ssS'topology'
p4561
g11
(tRp4562
S'ext_delay'
p4563
I2
sS'source_ratio'
p4564
F1
sg4533
S'ROCKET_FUEL'
p4565
sS'asn'
p4566
I3257
ssg11
(tRp4567
S'CACHE_HIT_RATIO'
p4568
g11
(tRp4569
S'MEAN_NETWORK_HITS'
p4570
F0.13056523787093735
sS'MEAN_USER_HITS'
p4571
F0.1972538860103627
sS'MEAN'
p4572
F0.32781912388130002
ssS'OVERHEAD'
p4573
g11
(tRp4574
g4572
F0.67753934273727123
ssS'ABS'
p4575
g11
(tRp4576
S'MEAN_ABS_TIME'
p4577
F598.90861815502183
sS'NUM_ABS'
p4578
I6226
sstp4579
a(g11
(tRp4580
S'workload'
p4581
g11
(tRp4582
S'n_contents'
p4583
I10000
sS'disconnection_rate'
p4584
F0.0025000000000000001
sS'name'
p4585
S'STATIONARY_SIT'
p4586
sS'n_warmup'
p4587
I36000
sS'rate'
p4588
I100
sS'n_measured'
p4589
I108000
sS'alpha'
p4590
F0.69999999999999996
ssS'cache_policy'
p4591
g11
(tRp4592
g4585
S'LRU'
p4593
ssS'desc'
p4594
S'strategy: SIT_WITH_SCOPED_FLOODING caching probability: 0.9'
p4595
sS'strategy'
p4596
g11
(tRp4597
S'fan_out'
p4598
I100
sg4585
S'SIT_WITH_SCOPED_FLOODING'
p4599
sS'p'
F0.90000000000000002
sS'scope'
p4600
I2
ssS'content_placement'
p4601
g11
(tRp4602
g4585
S'UNIFORM'
p4603
ssS'joint_cache_rsn_placement'
p4604
g11
(tRp4605
S'network_cache'
p4606
F1
sS'network_rsn'
p4607
F64
sg4585
S'CACHE_ALL_RSN_ALL_SIT'
p4608
sS'rsn_cache_ratio'
p4609
I64
ssS'warmup_strategy'
p4610
g11
(tRp4611
S'p'
F0.10000000000000001
sg4585
S'NDN'
p4612
ssS'topology'
p4613
g11
(tRp4614
S'ext_delay'
p4615
I2
sS'source_ratio'
p4616
F1
sg4585
S'ROCKET_FUEL'
p4617
sS'asn'
p4618
I3257
ssg11
(tRp4619
S'CACHE_HIT_RATIO'
p4620
g11
(tRp4621
S'MEAN_NETWORK_HITS'
p4622
F0.13115936563012692
sS'MEAN_USER_HITS'
p4623
F0.19696298251899905
sS'MEAN'
p4624
F0.32812234814912594
ssS'OVERHEAD'
p4625
g11
(tRp4626
g4624
F0.67754187474252181
ssS'ABS'
p4627
g11
(tRp4628
S'MEAN_ABS_TIME'
p4629
F630.77731586369077
sS'NUM_ABS'
p4630
I6484
sstp4631
atRp4632
sb.