ccopy_reg
_reconstructor
p1
(cicarus.results.readwrite
ResultSet
p2
c__builtin__
object
p3
NtRp4
(dp5
S'attr'
p6
(dp7
sS'_results'
p8
ccollections
deque
p9
((lp10
(cicarus.util
Tree
p11
(tRp12
S'workload'
p13
g11
(tRp14
S'n_contents'
p15
I10000
sS'name'
p16
S'STATIONARY'
p17
sS'n_warmup'
p18
I360000
sS'rate'
p19
I1000
sS'n_measured'
p20
I3600000
sS'alpha'
p21
F0.80000000000000004
ssS'cache_policy'
p22
g11
(tRp23
g16
S'LRU'
p24
ssS'desc'
p25
S'caching probability: 0.5'
p26
sS'strategy'
p27
g11
(tRp28
S'extra_quota'
p29
I3
sS'rsn_fresh'
p30
F5
sg16
S'LIRA_BC_HYBRID'
p31
sS'p'
F0.5
ssS'content_placement'
p32
g11
(tRp33
g16
S'LOWEST_DEGREE'
p34
ssS'joint_cache_rsn_placement'
p35
g11
(tRp36
S'network_cache'
p37
F0.94999999999999996
sS'network_rsn'
p38
F60.799999999999997
sg16
S'CACHE_ALL_RSN_ALL'
p39
sS'rsn_cache_ratio'
p40
I64
ssS'warmup_strategy'
p41
g11
(tRp42
S'p'
F0.10000000000000001
sg16
S'NDN'
p43
ssS'topology'
p44
g11
(tRp45
S'ext_delay'
p46
I5
sS'source_ratio'
p47
F0.10000000000000001
sg16
S'ROCKET_FUEL'
p48
sS'asn'
p49
I3257
ssg11
(tRp50
S'SAT_RATE'
p51
g11
(tRp52
S'MEAN_CACHE_HIT'
p53
F0.71945388888888884
sS'MEAN_SERVER_HIT'
p54
F0.28002083333333333
sS'MEAN'
p55
F0.99947472222222222
ssS'CACHE_HIT_RATIO'
p56
g11
(tRp57
S'MEAN_OFF_PATH'
p58
F0.56825557598929044
sS'MEAN_ON_PATH'
p59
F0.1511983128995984
sg55
F0.71945388888888884
ssS'OVERHEAD'
p60
g11
(tRp61
g55
F6.5940124999999998
ssS'LATENCY'
p62
g11
(tRp63
g55
F49.044334943261376
sstp64
a(g11
(tRp65
S'workload'
p66
g11
(tRp67
S'n_contents'
p68
I10000
sS'name'
p69
S'STATIONARY'
p70
sS'n_warmup'
p71
I360000
sS'rate'
p72
I1000
sS'n_measured'
p73
I3600000
sS'alpha'
p74
F0.80000000000000004
ssS'cache_policy'
p75
g11
(tRp76
g69
S'LRU'
p77
ssS'desc'
p78
S'caching probability: 0.5'
p79
sS'strategy'
p80
g11
(tRp81
S'extra_quota'
p82
I5
sS'rsn_fresh'
p83
F5
sg69
S'LIRA_BC_HYBRID'
p84
sS'p'
F0.5
ssS'content_placement'
p85
g11
(tRp86
g69
S'LOWEST_DEGREE'
p87
ssS'joint_cache_rsn_placement'
p88
g11
(tRp89
S'network_cache'
p90
F0.94999999999999996
sS'network_rsn'
p91
F60.799999999999997
sg69
S'CACHE_ALL_RSN_ALL'
p92
sS'rsn_cache_ratio'
p93
I64
ssS'warmup_strategy'
p94
g11
(tRp95
S'p'
F0.10000000000000001
sg69
S'NDN'
p96
ssS'topology'
p97
g11
(tRp98
S'ext_delay'
p99
I5
sS'source_ratio'
p100
F0.10000000000000001
sg69
S'ROCKET_FUEL'
p101
sS'asn'
p102
I3257
ssg11
(tRp103
S'SAT_RATE'
p104
g11
(tRp105
S'MEAN_CACHE_HIT'
p106
F0.71942416666666664
sS'MEAN_SERVER_HIT'
p107
F0.2804402777777778
sS'MEAN'
p108
F0.99986444444444444
ssS'CACHE_HIT_RATIO'
p109
g11
(tRp110
S'MEAN_OFF_PATH'
p111
F0.56728367292450721
sS'MEAN_ON_PATH'
p112
F0.15214049374215943
sg108
F0.71942416666666664
ssS'OVERHEAD'
p113
g11
(tRp114
g108
F6.6065152777777776
ssS'LATENCY'
p115
g11
(tRp116
g108
F49.1692961985162
sstp117
a(g11
(tRp118
S'workload'
p119
g11
(tRp120
S'n_contents'
p121
I10000
sS'name'
p122
S'STATIONARY'
p123
sS'n_warmup'
p124
I360000
sS'rate'
p125
I1000
sS'n_measured'
p126
I3600000
sS'alpha'
p127
F0.80000000000000004
ssS'cache_policy'
p128
g11
(tRp129
g122
S'LRU'
p130
ssS'desc'
p131
S'caching probability: 0.5'
p132
sS'strategy'
p133
g11
(tRp134
S'extra_quota'
p135
I4
sS'rsn_fresh'
p136
F5
sg122
S'LIRA_BC_HYBRID'
p137
sS'p'
F0.5
ssS'content_placement'
p138
g11
(tRp139
g122
S'LOWEST_DEGREE'
p140
ssS'joint_cache_rsn_placement'
p141
g11
(tRp142
S'network_cache'
p143
F0.94999999999999996
sS'network_rsn'
p144
F60.799999999999997
sg122
S'CACHE_ALL_RSN_ALL'
p145
sS'rsn_cache_ratio'
p146
I64
ssS'warmup_strategy'
p147
g11
(tRp148
S'p'
F0.10000000000000001
sg122
S'NDN'
p149
ssS'topology'
p150
g11
(tRp151
S'ext_delay'
p152
I5
sS'source_ratio'
p153
F0.10000000000000001
sg122
S'ROCKET_FUEL'
p154
sS'asn'
p155
I3257
ssg11
(tRp156
S'SAT_RATE'
p157
g11
(tRp158
S'MEAN_CACHE_HIT'
p159
F0.71972194444444448
sS'MEAN_SERVER_HIT'
p160
F0.28002166666666667
sS'MEAN'
p161
F0.9997436111111111
ssS'CACHE_HIT_RATIO'
p162
g11
(tRp163
S'MEAN_OFF_PATH'
p164
F0.56768617624409712
sS'MEAN_ON_PATH'
p165
F0.15203576820034737
sg161
F0.71972194444444448
ssS'OVERHEAD'
p166
g11
(tRp167
g161
F6.6042016666666665
ssS'LATENCY'
p168
g11
(tRp169
g161
F49.294018282282813
sstp170
a(g11
(tRp171
S'workload'
p172
g11
(tRp173
S'n_contents'
p174
I10000
sS'name'
p175
S'STATIONARY'
p176
sS'n_warmup'
p177
I360000
sS'rate'
p178
I1000
sS'n_measured'
p179
I3600000
sS'alpha'
p180
F0.80000000000000004
ssS'cache_policy'
p181
g11
(tRp182
g175
S'LRU'
p183
ssS'desc'
p184
S'caching probability: 0.66'
p185
sS'strategy'
p186
g11
(tRp187
S'extra_quota'
p188
I3
sS'rsn_fresh'
p189
F5
sg175
S'LIRA_BC_HYBRID'
p190
sS'p'
F0.66000000000000003
ssS'content_placement'
p191
g11
(tRp192
g175
S'LOWEST_DEGREE'
p193
ssS'joint_cache_rsn_placement'
p194
g11
(tRp195
S'network_cache'
p196
F0.94999999999999996
sS'network_rsn'
p197
F60.799999999999997
sg175
S'CACHE_ALL_RSN_ALL'
p198
sS'rsn_cache_ratio'
p199
I64
ssS'warmup_strategy'
p200
g11
(tRp201
S'p'
F0.10000000000000001
sg175
S'NDN'
p202
ssS'topology'
p203
g11
(tRp204
S'ext_delay'
p205
I5
sS'source_ratio'
p206
F0.10000000000000001
sg175
S'ROCKET_FUEL'
p207
sS'asn'
p208
I3257
ssg11
(tRp209
S'SAT_RATE'
p210
g11
(tRp211
S'MEAN_CACHE_HIT'
p212
F0.72901027777777783
sS'MEAN_SERVER_HIT'
p213
F0.27048250000000001
sS'MEAN'
p214
F0.99949277777777779
ssS'CACHE_HIT_RATIO'
p215
g11
(tRp216
S'MEAN_OFF_PATH'
p217
F0.58310701505930196
sS'MEAN_ON_PATH'
p218
F0.14590326271847587
sg214
F0.72901027777777783
ssS'OVERHEAD'
p219
g11
(tRp220
g214
F6.6959675000000001
ssS'LATENCY'
p221
g11
(tRp222
g214
F48.266375742304987
sstp223
a(g11
(tRp224
S'workload'
p225
g11
(tRp226
S'n_contents'
p227
I10000
sS'name'
p228
S'STATIONARY'
p229
sS'n_warmup'
p230
I360000
sS'rate'
p231
I1000
sS'n_measured'
p232
I3600000
sS'alpha'
p233
F0.80000000000000004
ssS'cache_policy'
p234
g11
(tRp235
g228
S'LRU'
p236
ssS'desc'
p237
S'caching probability: 0.1'
p238
sS'strategy'
p239
g11
(tRp240
S'extra_quota'
p241
I4
sS'rsn_fresh'
p242
F5
sg228
S'LIRA_BC_HYBRID'
p243
sS'p'
F0.10000000000000001
ssS'content_placement'
p244
g11
(tRp245
g228
S'LOWEST_DEGREE'
p246
ssS'joint_cache_rsn_placement'
p247
g11
(tRp248
S'network_cache'
p249
F0.94999999999999996
sS'network_rsn'
p250
F60.799999999999997
sg228
S'CACHE_ALL_RSN_ALL'
p251
sS'rsn_cache_ratio'
p252
I64
ssS'warmup_strategy'
p253
g11
(tRp254
S'p'
F0.10000000000000001
sg228
S'NDN'
p255
ssS'topology'
p256
g11
(tRp257
S'ext_delay'
p258
I5
sS'source_ratio'
p259
F0.10000000000000001
sg228
S'ROCKET_FUEL'
p260
sS'asn'
p261
I3257
ssg11
(tRp262
S'SAT_RATE'
p263
g11
(tRp264
S'MEAN_CACHE_HIT'
p265
F0.6561405555555555
sS'MEAN_SERVER_HIT'
p266
F0.34362277777777778
sS'MEAN'
p267
F0.99976333333333334
ssS'CACHE_HIT_RATIO'
p268
g11
(tRp269
S'MEAN_OFF_PATH'
p270
F0.46289791500639949
sS'MEAN_ON_PATH'
p271
F0.19324264054915602
sg267
F0.6561405555555555
ssS'OVERHEAD'
p272
g11
(tRp273
g267
F6.3088322222222226
ssS'LATENCY'
p274
g11
(tRp275
g267
F56.229118416672584
sstp276
a(g11
(tRp277
S'workload'
p278
g11
(tRp279
S'n_contents'
p280
I10000
sS'name'
p281
S'STATIONARY'
p282
sS'n_warmup'
p283
I360000
sS'rate'
p284
I1000
sS'n_measured'
p285
I3600000
sS'alpha'
p286
F0.80000000000000004
ssS'cache_policy'
p287
g11
(tRp288
g281
S'LRU'
p289
ssS'desc'
p290
S'caching probability: 0.33'
p291
sS'strategy'
p292
g11
(tRp293
S'extra_quota'
p294
I5
sS'rsn_fresh'
p295
F5
sg281
S'LIRA_BC_HYBRID'
p296
sS'p'
F0.33000000000000002
ssS'content_placement'
p297
g11
(tRp298
g281
S'LOWEST_DEGREE'
p299
ssS'joint_cache_rsn_placement'
p300
g11
(tRp301
S'network_cache'
p302
F0.94999999999999996
sS'network_rsn'
p303
F60.799999999999997
sg281
S'CACHE_ALL_RSN_ALL'
p304
sS'rsn_cache_ratio'
p305
I64
ssS'warmup_strategy'
p306
g11
(tRp307
S'p'
F0.10000000000000001
sg281
S'NDN'
p308
ssS'topology'
p309
g11
(tRp310
S'ext_delay'
p311
I5
sS'source_ratio'
p312
F0.10000000000000001
sg281
S'ROCKET_FUEL'
p313
sS'asn'
p314
I3257
ssg11
(tRp315
S'SAT_RATE'
p316
g11
(tRp317
S'MEAN_CACHE_HIT'
p318
F0.70455972222222218
sS'MEAN_SERVER_HIT'
p319
F0.29531249999999998
sS'MEAN'
p320
F0.99987222222222227
ssS'CACHE_HIT_RATIO'
p321
g11
(tRp322
S'MEAN_OFF_PATH'
p323
F0.54072702250056037
sS'MEAN_ON_PATH'
p324
F0.16383269972166181
sg320
F0.70455972222222218
ssS'OVERHEAD'
p325
g11
(tRp326
g320
F6.5088719444444445
ssS'LATENCY'
p327
g11
(tRp328
g320
F50.747297483591353
sstp329
a(g11
(tRp330
S'workload'
p331
g11
(tRp332
S'n_contents'
p333
I10000
sS'name'
p334
S'STATIONARY'
p335
sS'n_warmup'
p336
I360000
sS'rate'
p337
I1000
sS'n_measured'
p338
I3600000
sS'alpha'
p339
F0.80000000000000004
ssS'cache_policy'
p340
g11
(tRp341
g334
S'LRU'
p342
ssS'desc'
p343
S'caching probability: 0.25'
p344
sS'strategy'
p345
g11
(tRp346
S'extra_quota'
p347
I2
sS'rsn_fresh'
p348
F5
sg334
S'LIRA_BC_HYBRID'
p349
sS'p'
F0.25
ssS'content_placement'
p350
g11
(tRp351
g334
S'LOWEST_DEGREE'
p352
ssS'joint_cache_rsn_placement'
p353
g11
(tRp354
S'network_cache'
p355
F0.94999999999999996
sS'network_rsn'
p356
F60.799999999999997
sg334
S'CACHE_ALL_RSN_ALL'
p357
sS'rsn_cache_ratio'
p358
I64
ssS'warmup_strategy'
p359
g11
(tRp360
S'p'
F0.10000000000000001
sg334
S'NDN'
p361
ssS'topology'
p362
g11
(tRp363
S'ext_delay'
p364
I5
sS'source_ratio'
p365
F0.10000000000000001
sg334
S'ROCKET_FUEL'
p366
sS'asn'
p367
I3257
ssg11
(tRp368
S'SAT_RATE'
p369
g11
(tRp370
S'MEAN_CACHE_HIT'
p371
F0.6922625
sS'MEAN_SERVER_HIT'
p372
F0.30573972222222223
sS'MEAN'
p373
F0.99800222222222224
ssS'CACHE_HIT_RATIO'
p374
g11
(tRp375
S'MEAN_OFF_PATH'
p376
F0.52439762560585512
sS'MEAN_ON_PATH'
p377
F0.16786487439414488
sg373
F0.6922625
ssS'OVERHEAD'
p378
g11
(tRp379
g373
F6.4297250000000004
ssS'LATENCY'
p380
g11
(tRp381
g373
F51.855058518834745
sstp382
a(g11
(tRp383
S'workload'
p384
g11
(tRp385
S'n_contents'
p386
I10000
sS'name'
p387
S'STATIONARY'
p388
sS'n_warmup'
p389
I360000
sS'rate'
p390
I1000
sS'n_measured'
p391
I3600000
sS'alpha'
p392
F0.80000000000000004
ssS'cache_policy'
p393
g11
(tRp394
g387
S'LRU'
p395
ssS'desc'
p396
S'caching probability: 0.1'
p397
sS'strategy'
p398
g11
(tRp399
S'extra_quota'
p400
I3
sS'rsn_fresh'
p401
F5
sg387
S'LIRA_BC_HYBRID'
p402
sS'p'
F0.10000000000000001
ssS'content_placement'
p403
g11
(tRp404
g387
S'LOWEST_DEGREE'
p405
ssS'joint_cache_rsn_placement'
p406
g11
(tRp407
S'network_cache'
p408
F0.94999999999999996
sS'network_rsn'
p409
F60.799999999999997
sg387
S'CACHE_ALL_RSN_ALL'
p410
sS'rsn_cache_ratio'
p411
I64
ssS'warmup_strategy'
p412
g11
(tRp413
S'p'
F0.10000000000000001
sg387
S'NDN'
p414
ssS'topology'
p415
g11
(tRp416
S'ext_delay'
p417
I5
sS'source_ratio'
p418
F0.10000000000000001
sg387
S'ROCKET_FUEL'
p419
sS'asn'
p420
I3257
ssg11
(tRp421
S'SAT_RATE'
p422
g11
(tRp423
S'MEAN_CACHE_HIT'
p424
F0.65512833333333331
sS'MEAN_SERVER_HIT'
p425
F0.34425833333333333
sS'MEAN'
p426
F0.99938666666666665
ssS'CACHE_HIT_RATIO'
p427
g11
(tRp428
S'MEAN_OFF_PATH'
p429
F0.46287091665361391
sS'MEAN_ON_PATH'
p430
F0.19225741667971941
sg426
F0.65512833333333331
ssS'OVERHEAD'
p431
g11
(tRp432
g426
F6.314753333333333
ssS'LATENCY'
p433
g11
(tRp434
g426
F56.443320566040221
sstp435
a(g11
(tRp436
S'workload'
p437
g11
(tRp438
S'n_contents'
p439
I10000
sS'name'
p440
S'STATIONARY'
p441
sS'n_warmup'
p442
I360000
sS'rate'
p443
I1000
sS'n_measured'
p444
I3600000
sS'alpha'
p445
F0.80000000000000004
ssS'cache_policy'
p446
g11
(tRp447
g440
S'LRU'
p448
ssS'desc'
p449
S'caching probability: 0.1'
p450
sS'strategy'
p451
g11
(tRp452
S'extra_quota'
p453
I2
sS'rsn_fresh'
p454
F5
sg440
S'LIRA_BC_HYBRID'
p455
sS'p'
F0.10000000000000001
ssS'content_placement'
p456
g11
(tRp457
g440
S'LOWEST_DEGREE'
p458
ssS'joint_cache_rsn_placement'
p459
g11
(tRp460
S'network_cache'
p461
F0.94999999999999996
sS'network_rsn'
p462
F60.799999999999997
sg440
S'CACHE_ALL_RSN_ALL'
p463
sS'rsn_cache_ratio'
p464
I64
ssS'warmup_strategy'
p465
g11
(tRp466
S'p'
F0.10000000000000001
sg440
S'NDN'
p467
ssS'topology'
p468
g11
(tRp469
S'ext_delay'
p470
I5
sS'source_ratio'
p471
F0.10000000000000001
sg440
S'ROCKET_FUEL'
p472
sS'asn'
p473
I3257
ssg11
(tRp474
S'SAT_RATE'
p475
g11
(tRp476
S'MEAN_CACHE_HIT'
p477
F0.65418861111111115
sS'MEAN_SERVER_HIT'
p478
F0.34320527777777776
sS'MEAN'
p479
F0.99739388888888891
ssS'CACHE_HIT_RATIO'
p480
g11
(tRp481
S'MEAN_OFF_PATH'
p482
F0.46404459471899906
sS'MEAN_ON_PATH'
p483
F0.19014401639211209
sg479
F0.65418861111111115
ssS'OVERHEAD'
p484
g11
(tRp485
g479
F6.2600277777777782
ssS'LATENCY'
p486
g11
(tRp487
g479
F56.228910082234393
sstp488
a(g11
(tRp489
S'workload'
p490
g11
(tRp491
S'n_contents'
p492
I10000
sS'name'
p493
S'STATIONARY'
p494
sS'n_warmup'
p495
I360000
sS'rate'
p496
I1000
sS'n_measured'
p497
I3600000
sS'alpha'
p498
F0.80000000000000004
ssS'cache_policy'
p499
g11
(tRp500
g493
S'LRU'
p501
ssS'desc'
p502
S'caching probability: 0.33'
p503
sS'strategy'
p504
g11
(tRp505
S'extra_quota'
p506
I3
sS'rsn_fresh'
p507
F5
sg493
S'LIRA_BC_HYBRID'
p508
sS'p'
F0.33000000000000002
ssS'content_placement'
p509
g11
(tRp510
g493
S'LOWEST_DEGREE'
p511
ssS'joint_cache_rsn_placement'
p512
g11
(tRp513
S'network_cache'
p514
F0.94999999999999996
sS'network_rsn'
p515
F60.799999999999997
sg493
S'CACHE_ALL_RSN_ALL'
p516
sS'rsn_cache_ratio'
p517
I64
ssS'warmup_strategy'
p518
g11
(tRp519
S'p'
F0.10000000000000001
sg493
S'NDN'
p520
ssS'topology'
p521
g11
(tRp522
S'ext_delay'
p523
I5
sS'source_ratio'
p524
F0.10000000000000001
sg493
S'ROCKET_FUEL'
p525
sS'asn'
p526
I3257
ssg11
(tRp527
S'SAT_RATE'
p528
g11
(tRp529
S'MEAN_CACHE_HIT'
p530
F0.70483361111111109
sS'MEAN_SERVER_HIT'
p531
F0.29464361111111109
sS'MEAN'
p532
F0.99947722222222224
ssS'CACHE_HIT_RATIO'
p533
g11
(tRp534
S'MEAN_OFF_PATH'
p535
F0.543582260269732
sS'MEAN_ON_PATH'
p536
F0.16125135084137909
sg532
F0.70483361111111109
ssS'OVERHEAD'
p537
g11
(tRp538
g532
F6.5344472222222221
ssS'LATENCY'
p539
g11
(tRp540
g532
F50.713878047547048
sstp541
a(g11
(tRp542
S'workload'
p543
g11
(tRp544
S'n_contents'
p545
I10000
sS'name'
p546
S'STATIONARY'
p547
sS'n_warmup'
p548
I360000
sS'rate'
p549
I1000
sS'n_measured'
p550
I3600000
sS'alpha'
p551
F0.80000000000000004
ssS'cache_policy'
p552
g11
(tRp553
g546
S'LRU'
p554
ssS'desc'
p555
S'caching probability: 0.25'
p556
sS'strategy'
p557
g11
(tRp558
S'extra_quota'
p559
I4
sS'rsn_fresh'
p560
F5
sg546
S'LIRA_BC_HYBRID'
p561
sS'p'
F0.25
ssS'content_placement'
p562
g11
(tRp563
g546
S'LOWEST_DEGREE'
p564
ssS'joint_cache_rsn_placement'
p565
g11
(tRp566
S'network_cache'
p567
F0.94999999999999996
sS'network_rsn'
p568
F60.799999999999997
sg546
S'CACHE_ALL_RSN_ALL'
p569
sS'rsn_cache_ratio'
p570
I64
ssS'warmup_strategy'
p571
g11
(tRp572
S'p'
F0.10000000000000001
sg546
S'NDN'
p573
ssS'topology'
p574
g11
(tRp575
S'ext_delay'
p576
I5
sS'source_ratio'
p577
F0.10000000000000001
sg546
S'ROCKET_FUEL'
p578
sS'asn'
p579
I3257
ssg11
(tRp580
S'SAT_RATE'
p581
g11
(tRp582
S'MEAN_CACHE_HIT'
p583
F0.6937416666666667
sS'MEAN_SERVER_HIT'
p584
F0.30601222222222224
sS'MEAN'
p585
F0.99975388888888894
ssS'CACHE_HIT_RATIO'
p586
g11
(tRp587
S'MEAN_OFF_PATH'
p588
F0.52390040799380266
sS'MEAN_ON_PATH'
p589
F0.16984125867286404
sg585
F0.6937416666666667
ssS'OVERHEAD'
p590
g11
(tRp591
g585
F6.4680222222222223
ssS'LATENCY'
p592
g11
(tRp593
g585
F51.923194171472332
sstp594
a(g11
(tRp595
S'workload'
p596
g11
(tRp597
S'n_contents'
p598
I10000
sS'name'
p599
S'STATIONARY'
p600
sS'n_warmup'
p601
I360000
sS'rate'
p602
I1000
sS'n_measured'
p603
I3600000
sS'alpha'
p604
F0.80000000000000004
ssS'cache_policy'
p605
g11
(tRp606
g599
S'LRU'
p607
ssS'desc'
p608
S'caching probability: 0.33'
p609
sS'strategy'
p610
g11
(tRp611
S'extra_quota'
p612
I2
sS'rsn_fresh'
p613
F5
sg599
S'LIRA_BC_HYBRID'
p614
sS'p'
F0.33000000000000002
ssS'content_placement'
p615
g11
(tRp616
g599
S'LOWEST_DEGREE'
p617
ssS'joint_cache_rsn_placement'
p618
g11
(tRp619
S'network_cache'
p620
F0.94999999999999996
sS'network_rsn'
p621
F60.799999999999997
sg599
S'CACHE_ALL_RSN_ALL'
p622
sS'rsn_cache_ratio'
p623
I64
ssS'warmup_strategy'
p624
g11
(tRp625
S'p'
F0.10000000000000001
sg599
S'NDN'
p626
ssS'topology'
p627
g11
(tRp628
S'ext_delay'
p629
I5
sS'source_ratio'
p630
F0.10000000000000001
sg599
S'ROCKET_FUEL'
p631
sS'asn'
p632
I3257
ssg11
(tRp633
S'SAT_RATE'
p634
g11
(tRp635
S'MEAN_CACHE_HIT'
p636
F0.70267444444444449
sS'MEAN_SERVER_HIT'
p637
F0.29547250000000003
sS'MEAN'
p638
F0.99814694444444441
ssS'CACHE_HIT_RATIO'
p639
g11
(tRp640
S'MEAN_OFF_PATH'
p641
F0.54256402077647958
sS'MEAN_ON_PATH'
p642
F0.16011042366796491
sg638
F0.70267444444444449
ssS'OVERHEAD'
p643
g11
(tRp644
g638
F6.4789469444444441
ssS'LATENCY'
p645
g11
(tRp646
g638
F50.832139583499746
sstp647
a(g11
(tRp648
S'workload'
p649
g11
(tRp650
S'n_contents'
p651
I10000
sS'name'
p652
S'STATIONARY'
p653
sS'n_warmup'
p654
I360000
sS'rate'
p655
I1000
sS'n_measured'
p656
I3600000
sS'alpha'
p657
F0.80000000000000004
ssS'cache_policy'
p658
g11
(tRp659
g652
S'LRU'
p660
ssS'desc'
p661
S'caching probability: 0.66'
p662
sS'strategy'
p663
g11
(tRp664
S'extra_quota'
p665
I4
sS'rsn_fresh'
p666
F5
sg652
S'LIRA_BC_HYBRID'
p667
sS'p'
F0.66000000000000003
ssS'content_placement'
p668
g11
(tRp669
g652
S'LOWEST_DEGREE'
p670
ssS'joint_cache_rsn_placement'
p671
g11
(tRp672
S'network_cache'
p673
F0.94999999999999996
sS'network_rsn'
p674
F60.799999999999997
sg652
S'CACHE_ALL_RSN_ALL'
p675
sS'rsn_cache_ratio'
p676
I64
ssS'warmup_strategy'
p677
g11
(tRp678
S'p'
F0.10000000000000001
sg652
S'NDN'
p679
ssS'topology'
p680
g11
(tRp681
S'ext_delay'
p682
I5
sS'source_ratio'
p683
F0.10000000000000001
sg652
S'ROCKET_FUEL'
p684
sS'asn'
p685
I3257
ssg11
(tRp686
S'SAT_RATE'
p687
g11
(tRp688
S'MEAN_CACHE_HIT'
p689
F0.72920527777777777
sS'MEAN_SERVER_HIT'
p690
F0.27054499999999998
sS'MEAN'
p691
F0.99975027777777781
ssS'CACHE_HIT_RATIO'
p692
g11
(tRp693
S'MEAN_OFF_PATH'
p694
F0.5842775674883165
sS'MEAN_ON_PATH'
p695
F0.14492771028946128
sg691
F0.72920527777777777
ssS'OVERHEAD'
p696
g11
(tRp697
g691
F6.6531961111111109
ssS'LATENCY'
p698
g11
(tRp699
g691
F48.294187280893354
sstp700
a(g11
(tRp701
S'workload'
p702
g11
(tRp703
S'n_contents'
p704
I10000
sS'name'
p705
S'STATIONARY'
p706
sS'n_warmup'
p707
I360000
sS'rate'
p708
I1000
sS'n_measured'
p709
I3600000
sS'alpha'
p710
F0.80000000000000004
ssS'cache_policy'
p711
g11
(tRp712
g705
S'LRU'
p713
ssS'desc'
p714
S'caching probability: 0.25'
p715
sS'strategy'
p716
g11
(tRp717
S'extra_quota'
p718
I5
sS'rsn_fresh'
p719
F5
sg705
S'LIRA_BC_HYBRID'
p720
sS'p'
F0.25
ssS'content_placement'
p721
g11
(tRp722
g705
S'LOWEST_DEGREE'
p723
ssS'joint_cache_rsn_placement'
p724
g11
(tRp725
S'network_cache'
p726
F0.94999999999999996
sS'network_rsn'
p727
F60.799999999999997
sg705
S'CACHE_ALL_RSN_ALL'
p728
sS'rsn_cache_ratio'
p729
I64
ssS'warmup_strategy'
p730
g11
(tRp731
S'p'
F0.10000000000000001
sg705
S'NDN'
p732
ssS'topology'
p733
g11
(tRp734
S'ext_delay'
p735
I5
sS'source_ratio'
p736
F0.10000000000000001
sg705
S'ROCKET_FUEL'
p737
sS'asn'
p738
I3257
ssg11
(tRp739
S'SAT_RATE'
p740
g11
(tRp741
S'MEAN_CACHE_HIT'
p742
F0.69390833333333335
sS'MEAN_SERVER_HIT'
p743
F0.30598083333333331
sS'MEAN'
p744
F0.99988916666666672
ssS'CACHE_HIT_RATIO'
p745
g11
(tRp746
S'MEAN_OFF_PATH'
p747
F0.52260895418990794
sS'MEAN_ON_PATH'
p748
F0.17129937914342541
sg744
F0.69390833333333335
ssS'OVERHEAD'
p749
g11
(tRp750
g744
F6.4621891666666667
ssS'LATENCY'
p751
g11
(tRp752
g744
F51.851352461992839
sstp753
a(g11
(tRp754
S'workload'
p755
g11
(tRp756
S'n_contents'
p757
I10000
sS'name'
p758
S'STATIONARY'
p759
sS'n_warmup'
p760
I360000
sS'rate'
p761
I1000
sS'n_measured'
p762
I3600000
sS'alpha'
p763
F0.80000000000000004
ssS'cache_policy'
p764
g11
(tRp765
g758
S'LRU'
p766
ssS'desc'
p767
S'caching probability: 0.66'
p768
sS'strategy'
p769
g11
(tRp770
S'extra_quota'
p771
I2
sS'rsn_fresh'
p772
F5
sg758
S'LIRA_BC_HYBRID'
p773
sS'p'
F0.66000000000000003
ssS'content_placement'
p774
g11
(tRp775
g758
S'LOWEST_DEGREE'
p776
ssS'joint_cache_rsn_placement'
p777
g11
(tRp778
S'network_cache'
p779
F0.94999999999999996
sS'network_rsn'
p780
F60.799999999999997
sg758
S'CACHE_ALL_RSN_ALL'
p781
sS'rsn_cache_ratio'
p782
I64
ssS'warmup_strategy'
p783
g11
(tRp784
S'p'
F0.10000000000000001
sg758
S'NDN'
p785
ssS'topology'
p786
g11
(tRp787
S'ext_delay'
p788
I5
sS'source_ratio'
p789
F0.10000000000000001
sg758
S'ROCKET_FUEL'
p790
sS'asn'
p791
I3257
ssg11
(tRp792
S'SAT_RATE'
p793
g11
(tRp794
S'MEAN_CACHE_HIT'
p795
F0.72819833333333328
sS'MEAN_SERVER_HIT'
p796
F0.27031027777777777
sS'MEAN'
p797
F0.99850861111111111
ssS'CACHE_HIT_RATIO'
p798
g11
(tRp799
S'MEAN_OFF_PATH'
p800
F0.58551862837625279
sS'MEAN_ON_PATH'
p801
F0.14267970495708049
sg797
F0.72819833333333328
ssS'OVERHEAD'
p802
g11
(tRp803
g797
F6.6712536111111111
ssS'LATENCY'
p804
g11
(tRp805
g797
F48.155602963387174
sstp806
a(g11
(tRp807
S'workload'
p808
g11
(tRp809
S'n_contents'
p810
I10000
sS'name'
p811
S'STATIONARY'
p812
sS'n_warmup'
p813
I360000
sS'rate'
p814
I1000
sS'n_measured'
p815
I3600000
sS'alpha'
p816
F0.80000000000000004
ssS'cache_policy'
p817
g11
(tRp818
g811
S'LRU'
p819
ssS'desc'
p820
S'caching probability: 0.33'
p821
sS'strategy'
p822
g11
(tRp823
S'extra_quota'
p824
I4
sS'rsn_fresh'
p825
F5
sg811
S'LIRA_BC_HYBRID'
p826
sS'p'
F0.33000000000000002
ssS'content_placement'
p827
g11
(tRp828
g811
S'LOWEST_DEGREE'
p829
ssS'joint_cache_rsn_placement'
p830
g11
(tRp831
S'network_cache'
p832
F0.94999999999999996
sS'network_rsn'
p833
F60.799999999999997
sg811
S'CACHE_ALL_RSN_ALL'
p834
sS'rsn_cache_ratio'
p835
I64
ssS'warmup_strategy'
p836
g11
(tRp837
S'p'
F0.10000000000000001
sg811
S'NDN'
p838
ssS'topology'
p839
g11
(tRp840
S'ext_delay'
p841
I5
sS'source_ratio'
p842
F0.10000000000000001
sg811
S'ROCKET_FUEL'
p843
sS'asn'
p844
I3257
ssg11
(tRp845
S'SAT_RATE'
p846
g11
(tRp847
S'MEAN_CACHE_HIT'
p848
F0.70442027777777783
sS'MEAN_SERVER_HIT'
p849
F0.29534361111111113
sS'MEAN'
p850
F0.9997638888888889
ssS'CACHE_HIT_RATIO'
p851
g11
(tRp852
S'MEAN_OFF_PATH'
p853
F0.5406654133545018
sS'MEAN_ON_PATH'
p854
F0.16375486442327603
sg850
F0.70442027777777783
ssS'OVERHEAD'
p855
g11
(tRp856
g850
F6.5287338888888886
ssS'LATENCY'
p857
g11
(tRp858
g850
F50.77756376659741
sstp859
a(g11
(tRp860
S'workload'
p861
g11
(tRp862
S'n_contents'
p863
I10000
sS'name'
p864
S'STATIONARY'
p865
sS'n_warmup'
p866
I360000
sS'rate'
p867
I1000
sS'n_measured'
p868
I3600000
sS'alpha'
p869
F0.80000000000000004
ssS'cache_policy'
p870
g11
(tRp871
g864
S'LRU'
p872
ssS'desc'
p873
S'caching probability: 0.5'
p874
sS'strategy'
p875
g11
(tRp876
S'extra_quota'
p877
I2
sS'rsn_fresh'
p878
F5
sg864
S'LIRA_BC_HYBRID'
p879
sS'p'
F0.5
ssS'content_placement'
p880
g11
(tRp881
g864
S'LOWEST_DEGREE'
p882
ssS'joint_cache_rsn_placement'
p883
g11
(tRp884
S'network_cache'
p885
F0.94999999999999996
sS'network_rsn'
p886
F60.799999999999997
sg864
S'CACHE_ALL_RSN_ALL'
p887
sS'rsn_cache_ratio'
p888
I64
ssS'warmup_strategy'
p889
g11
(tRp890
S'p'
F0.10000000000000001
sg864
S'NDN'
p891
ssS'topology'
p892
g11
(tRp893
S'ext_delay'
p894
I5
sS'source_ratio'
p895
F0.10000000000000001
sg864
S'ROCKET_FUEL'
p896
sS'asn'
p897
I3257
ssg11
(tRp898
S'SAT_RATE'
p899
g11
(tRp900
S'MEAN_CACHE_HIT'
p901
F0.71858027777777778
sS'MEAN_SERVER_HIT'
p902
F0.27973333333333333
sS'MEAN'
p903
F0.99831361111111117
ssS'CACHE_HIT_RATIO'
p904
g11
(tRp905
S'MEAN_OFF_PATH'
p906
F0.56991294992366948
sS'MEAN_ON_PATH'
p907
F0.1486673278541083
sg903
F0.71858027777777778
ssS'OVERHEAD'
p908
g11
(tRp909
g903
F6.5856686111111111
ssS'LATENCY'
p910
g11
(tRp911
g903
F49.141618874527943
sstp912
a(g11
(tRp913
S'workload'
p914
g11
(tRp915
S'n_contents'
p916
I10000
sS'name'
p917
S'STATIONARY'
p918
sS'n_warmup'
p919
I360000
sS'rate'
p920
I1000
sS'n_measured'
p921
I3600000
sS'alpha'
p922
F0.80000000000000004
ssS'cache_policy'
p923
g11
(tRp924
g917
S'LRU'
p925
ssS'desc'
p926
S'caching probability: 0.1'
p927
sS'strategy'
p928
g11
(tRp929
S'extra_quota'
p930
I5
sS'rsn_fresh'
p931
F5
sg917
S'LIRA_BC_HYBRID'
p932
sS'p'
F0.10000000000000001
ssS'content_placement'
p933
g11
(tRp934
g917
S'LOWEST_DEGREE'
p935
ssS'joint_cache_rsn_placement'
p936
g11
(tRp937
S'network_cache'
p938
F0.94999999999999996
sS'network_rsn'
p939
F60.799999999999997
sg917
S'CACHE_ALL_RSN_ALL'
p940
sS'rsn_cache_ratio'
p941
I64
ssS'warmup_strategy'
p942
g11
(tRp943
S'p'
F0.10000000000000001
sg917
S'NDN'
p944
ssS'topology'
p945
g11
(tRp946
S'ext_delay'
p947
I5
sS'source_ratio'
p948
F0.10000000000000001
sg917
S'ROCKET_FUEL'
p949
sS'asn'
p950
I3257
ssg11
(tRp951
S'SAT_RATE'
p952
g11
(tRp953
S'MEAN_CACHE_HIT'
p954
F0.65607527777777774
sS'MEAN_SERVER_HIT'
p955
F0.34380277777777779
sS'MEAN'
p956
F0.99987805555555553
ssS'CACHE_HIT_RATIO'
p957
g11
(tRp958
S'MEAN_OFF_PATH'
p959
F0.46299299701190622
sS'MEAN_ON_PATH'
p960
F0.19308228076587153
sg956
F0.65607527777777774
ssS'OVERHEAD'
p961
g11
(tRp962
g956
F6.3132227777777778
ssS'LATENCY'
p963
g11
(tRp964
g956
F56.246068642751588
sstp965
a(g11
(tRp966
S'workload'
p967
g11
(tRp968
S'n_contents'
p969
I10000
sS'name'
p970
S'STATIONARY'
p971
sS'n_warmup'
p972
I360000
sS'rate'
p973
I1000
sS'n_measured'
p974
I3600000
sS'alpha'
p975
F0.80000000000000004
ssS'cache_policy'
p976
g11
(tRp977
g970
S'LRU'
p978
ssS'desc'
p979
S'caching probability: 0.25'
p980
sS'strategy'
p981
g11
(tRp982
S'extra_quota'
p983
I3
sS'rsn_fresh'
p984
F5
sg970
S'LIRA_BC_HYBRID'
p985
sS'p'
F0.25
ssS'content_placement'
p986
g11
(tRp987
g970
S'LOWEST_DEGREE'
p988
ssS'joint_cache_rsn_placement'
p989
g11
(tRp990
S'network_cache'
p991
F0.94999999999999996
sS'network_rsn'
p992
F60.799999999999997
sg970
S'CACHE_ALL_RSN_ALL'
p993
sS'rsn_cache_ratio'
p994
I64
ssS'warmup_strategy'
p995
g11
(tRp996
S'p'
F0.10000000000000001
sg970
S'NDN'
p997
ssS'topology'
p998
g11
(tRp999
S'ext_delay'
p1000
I5
sS'source_ratio'
p1001
F0.10000000000000001
sg970
S'ROCKET_FUEL'
p1002
sS'asn'
p1003
I3257
ssg11
(tRp1004
S'SAT_RATE'
p1005
g11
(tRp1006
S'MEAN_CACHE_HIT'
p1007
F0.69259499999999996
sS'MEAN_SERVER_HIT'
p1008
F0.30686333333333332
sS'MEAN'
p1009
F0.99945833333333334
ssS'CACHE_HIT_RATIO'
p1010
g11
(tRp1011
S'MEAN_OFF_PATH'
p1012
F0.52314503214284047
sS'MEAN_ON_PATH'
p1013
F0.16944996785715949
sg1009
F0.69259499999999996
ssS'OVERHEAD'
p1014
g11
(tRp1015
g1009
F6.4686113888888892
ssS'LATENCY'
p1016
g11
(tRp1017
g1009
F52.133948672212711
sstp1018
a(g11
(tRp1019
S'workload'
p1020
g11
(tRp1021
S'n_contents'
p1022
I10000
sS'name'
p1023
S'STATIONARY'
p1024
sS'n_warmup'
p1025
I360000
sS'rate'
p1026
I1000
sS'n_measured'
p1027
I3600000
sS'alpha'
p1028
F0.80000000000000004
ssS'cache_policy'
p1029
g11
(tRp1030
g1023
S'LRU'
p1031
ssS'desc'
p1032
S'caching probability: 0.66'
p1033
sS'strategy'
p1034
g11
(tRp1035
S'extra_quota'
p1036
I5
sS'rsn_fresh'
p1037
F5
sg1023
S'LIRA_BC_HYBRID'
p1038
sS'p'
F0.66000000000000003
ssS'content_placement'
p1039
g11
(tRp1040
g1023
S'LOWEST_DEGREE'
p1041
ssS'joint_cache_rsn_placement'
p1042
g11
(tRp1043
S'network_cache'
p1044
F0.94999999999999996
sS'network_rsn'
p1045
F60.799999999999997
sg1023
S'CACHE_ALL_RSN_ALL'
p1046
sS'rsn_cache_ratio'
p1047
I64
ssS'warmup_strategy'
p1048
g11
(tRp1049
S'p'
F0.10000000000000001
sg1023
S'NDN'
p1050
ssS'topology'
p1051
g11
(tRp1052
S'ext_delay'
p1053
I5
sS'source_ratio'
p1054
F0.10000000000000001
sg1023
S'ROCKET_FUEL'
p1055
sS'asn'
p1056
I3257
ssg11
(tRp1057
S'SAT_RATE'
p1058
g11
(tRp1059
S'MEAN_CACHE_HIT'
p1060
F0.72895305555555556
sS'MEAN_SERVER_HIT'
p1061
F0.27091277777777778
sS'MEAN'
p1062
F0.99986583333333334
ssS'CACHE_HIT_RATIO'
p1063
g11
(tRp1064
S'MEAN_OFF_PATH'
p1065
F0.58376381231603047
sS'MEAN_ON_PATH'
p1066
F0.14518924323952509
sg1062
F0.72895305555555556
ssS'OVERHEAD'
p1067
g11
(tRp1068
g1062
F6.6703291666666669
ssS'LATENCY'
p1069
g11
(tRp1070
g1062
F48.313565557736247
sstp1071
a(g11
(tRp1072
S'workload'
p1073
g11
(tRp1074
S'n_contents'
p1075
I10000
sS'name'
p1076
S'STATIONARY'
p1077
sS'n_warmup'
p1078
I360000
sS'rate'
p1079
I1000
sS'n_measured'
p1080
I3600000
sS'alpha'
p1081
F0.80000000000000004
ssS'cache_policy'
p1082
g11
(tRp1083
g1076
S'LRU'
p1084
ssS'desc'
p1085
S'caching probability: 0.75'
p1086
sS'strategy'
p1087
g11
(tRp1088
S'extra_quota'
p1089
I3
sS'rsn_fresh'
p1090
F5
sg1076
S'LIRA_BC_HYBRID'
p1091
sS'p'
F0.75
ssS'content_placement'
p1092
g11
(tRp1093
g1076
S'LOWEST_DEGREE'
p1094
ssS'joint_cache_rsn_placement'
p1095
g11
(tRp1096
S'network_cache'
p1097
F0.94999999999999996
sS'network_rsn'
p1098
F60.799999999999997
sg1076
S'CACHE_ALL_RSN_ALL'
p1099
sS'rsn_cache_ratio'
p1100
I64
ssS'warmup_strategy'
p1101
g11
(tRp1102
S'p'
F0.10000000000000001
sg1076
S'NDN'
p1103
ssS'topology'
p1104
g11
(tRp1105
S'ext_delay'
p1106
I5
sS'source_ratio'
p1107
F0.10000000000000001
sg1076
S'ROCKET_FUEL'
p1108
sS'asn'
p1109
I3257
ssg11
(tRp1110
S'SAT_RATE'
p1111
g11
(tRp1112
S'MEAN_CACHE_HIT'
p1113
F0.73275194444444447
sS'MEAN_SERVER_HIT'
p1114
F0.26671111111111112
sS'MEAN'
p1115
F0.99946305555555559
ssS'CACHE_HIT_RATIO'
p1116
g11
(tRp1117
S'MEAN_OFF_PATH'
p1118
F0.59198073675865015
sS'MEAN_ON_PATH'
p1119
F0.14077120768579432
sg1115
F0.73275194444444447
ssS'OVERHEAD'
p1120
g11
(tRp1121
g1115
F6.7046902777777779
ssS'LATENCY'
p1122
g11
(tRp1123
g1115
F47.906732210246915
sstp1124
a(g11
(tRp1125
S'workload'
p1126
g11
(tRp1127
S'n_contents'
p1128
I10000
sS'name'
p1129
S'STATIONARY'
p1130
sS'n_warmup'
p1131
I360000
sS'rate'
p1132
I1000
sS'n_measured'
p1133
I3600000
sS'alpha'
p1134
F0.80000000000000004
ssS'cache_policy'
p1135
g11
(tRp1136
g1129
S'LRU'
p1137
ssS'desc'
p1138
S'caching probability: 0.75'
p1139
sS'strategy'
p1140
g11
(tRp1141
S'extra_quota'
p1142
I2
sS'rsn_fresh'
p1143
F5
sg1129
S'LIRA_BC_HYBRID'
p1144
sS'p'
F0.75
ssS'content_placement'
p1145
g11
(tRp1146
g1129
S'LOWEST_DEGREE'
p1147
ssS'joint_cache_rsn_placement'
p1148
g11
(tRp1149
S'network_cache'
p1150
F0.94999999999999996
sS'network_rsn'
p1151
F60.799999999999997
sg1129
S'CACHE_ALL_RSN_ALL'
p1152
sS'rsn_cache_ratio'
p1153
I64
ssS'warmup_strategy'
p1154
g11
(tRp1155
S'p'
F0.10000000000000001
sg1129
S'NDN'
p1156
ssS'topology'
p1157
g11
(tRp1158
S'ext_delay'
p1159
I5
sS'source_ratio'
p1160
F0.10000000000000001
sg1129
S'ROCKET_FUEL'
p1161
sS'asn'
p1162
I3257
ssg11
(tRp1163
S'SAT_RATE'
p1164
g11
(tRp1165
S'MEAN_CACHE_HIT'
p1166
F0.73238555555555551
sS'MEAN_SERVER_HIT'
p1167
F0.26611805555555557
sS'MEAN'
p1168
F0.99850361111111108
ssS'CACHE_HIT_RATIO'
p1169
g11
(tRp1170
S'MEAN_OFF_PATH'
p1171
F0.59348179716428839
sS'MEAN_ON_PATH'
p1172
F0.13890375839126712
sg1168
F0.73238555555555551
ssS'OVERHEAD'
p1173
g11
(tRp1174
g1168
F6.7155966666666664
ssS'LATENCY'
p1175
g11
(tRp1176
g1168
F47.931052514102284
sstp1177
a(g11
(tRp1178
S'workload'
p1179
g11
(tRp1180
S'n_contents'
p1181
I10000
sS'name'
p1182
S'STATIONARY'
p1183
sS'n_warmup'
p1184
I360000
sS'rate'
p1185
I1000
sS'n_measured'
p1186
I3600000
sS'alpha'
p1187
F0.80000000000000004
ssS'cache_policy'
p1188
g11
(tRp1189
g1182
S'LRU'
p1190
ssS'desc'
p1191
S'caching probability: 0.75'
p1192
sS'strategy'
p1193
g11
(tRp1194
S'extra_quota'
p1195
I4
sS'rsn_fresh'
p1196
F5
sg1182
S'LIRA_BC_HYBRID'
p1197
sS'p'
F0.75
ssS'content_placement'
p1198
g11
(tRp1199
g1182
S'LOWEST_DEGREE'
p1200
ssS'joint_cache_rsn_placement'
p1201
g11
(tRp1202
S'network_cache'
p1203
F0.94999999999999996
sS'network_rsn'
p1204
F60.799999999999997
sg1182
S'CACHE_ALL_RSN_ALL'
p1205
sS'rsn_cache_ratio'
p1206
I64
ssS'warmup_strategy'
p1207
g11
(tRp1208
S'p'
F0.10000000000000001
sg1182
S'NDN'
p1209
ssS'topology'
p1210
g11
(tRp1211
S'ext_delay'
p1212
I5
sS'source_ratio'
p1213
F0.10000000000000001
sg1182
S'ROCKET_FUEL'
p1214
sS'asn'
p1215
I3257
ssg11
(tRp1216
S'SAT_RATE'
p1217
g11
(tRp1218
S'MEAN_CACHE_HIT'
p1219
F0.73333861111111109
sS'MEAN_SERVER_HIT'
p1220
F0.2664036111111111
sS'MEAN'
p1221
F0.9997422222222222
ssS'CACHE_HIT_RATIO'
p1222
g11
(tRp1223
S'MEAN_OFF_PATH'
p1224
F0.59089554748910733
sS'MEAN_ON_PATH'
p1225
F0.14244306362200376
sg1221
F0.73333861111111109
ssS'OVERHEAD'
p1226
g11
(tRp1227
g1221
F6.7133786111111107
ssS'LATENCY'
p1228
g11
(tRp1229
g1221
F47.902007627874227
sstp1230
a(g11
(tRp1231
S'workload'
p1232
g11
(tRp1233
S'n_contents'
p1234
I10000
sS'name'
p1235
S'STATIONARY'
p1236
sS'n_warmup'
p1237
I360000
sS'rate'
p1238
I1000
sS'n_measured'
p1239
I3600000
sS'alpha'
p1240
F0.80000000000000004
ssS'cache_policy'
p1241
g11
(tRp1242
g1235
S'LRU'
p1243
ssS'desc'
p1244
S'caching probability: 0.75'
p1245
sS'strategy'
p1246
g11
(tRp1247
S'extra_quota'
p1248
I5
sS'rsn_fresh'
p1249
F5
sg1235
S'LIRA_BC_HYBRID'
p1250
sS'p'
F0.75
ssS'content_placement'
p1251
g11
(tRp1252
g1235
S'LOWEST_DEGREE'
p1253
ssS'joint_cache_rsn_placement'
p1254
g11
(tRp1255
S'network_cache'
p1256
F0.94999999999999996
sS'network_rsn'
p1257
F60.799999999999997
sg1235
S'CACHE_ALL_RSN_ALL'
p1258
sS'rsn_cache_ratio'
p1259
I64
ssS'warmup_strategy'
p1260
g11
(tRp1261
S'p'
F0.10000000000000001
sg1235
S'NDN'
p1262
ssS'topology'
p1263
g11
(tRp1264
S'ext_delay'
p1265
I5
sS'source_ratio'
p1266
F0.10000000000000001
sg1235
S'ROCKET_FUEL'
p1267
sS'asn'
p1268
I3257
ssg11
(tRp1269
S'SAT_RATE'
p1270
g11
(tRp1271
S'MEAN_CACHE_HIT'
p1272
F0.73322916666666671
sS'MEAN_SERVER_HIT'
p1273
F0.26662916666666664
sS'MEAN'
p1274
F0.99985833333333329
ssS'CACHE_HIT_RATIO'
p1275
g11
(tRp1276
S'MEAN_OFF_PATH'
p1277
F0.59137272719541956
sS'MEAN_ON_PATH'
p1278
F0.14185643947124715
sg1274
F0.73322916666666671
ssS'OVERHEAD'
p1279
g11
(tRp1280
g1274
F6.7080772222222222
ssS'LATENCY'
p1281
g11
(tRp1282
g1274
F47.852470560033147
sstp1283
a(g11
(tRp1284
S'workload'
p1285
g11
(tRp1286
S'n_contents'
p1287
I10000
sS'name'
p1288
S'STATIONARY'
p1289
sS'n_warmup'
p1290
I360000
sS'rate'
p1291
I1000
sS'n_measured'
p1292
I3600000
sS'alpha'
p1293
F0.80000000000000004
ssS'cache_policy'
p1294
g11
(tRp1295
g1288
S'LRU'
p1296
ssS'desc'
p1297
S'caching probability: 1.0'
p1298
sS'strategy'
p1299
g11
(tRp1300
S'extra_quota'
p1301
I3
sS'rsn_fresh'
p1302
F5
sg1288
S'LIRA_BC_HYBRID'
p1303
sS'p'
F1
ssS'content_placement'
p1304
g11
(tRp1305
g1288
S'LOWEST_DEGREE'
p1306
ssS'joint_cache_rsn_placement'
p1307
g11
(tRp1308
S'network_cache'
p1309
F0.94999999999999996
sS'network_rsn'
p1310
F60.799999999999997
sg1288
S'CACHE_ALL_RSN_ALL'
p1311
sS'rsn_cache_ratio'
p1312
I64
ssS'warmup_strategy'
p1313
g11
(tRp1314
S'p'
F0.10000000000000001
sg1288
S'NDN'
p1315
ssS'topology'
p1316
g11
(tRp1317
S'ext_delay'
p1318
I5
sS'source_ratio'
p1319
F0.10000000000000001
sg1288
S'ROCKET_FUEL'
p1320
sS'asn'
p1321
I3257
ssg11
(tRp1322
S'SAT_RATE'
p1323
g11
(tRp1324
S'MEAN_CACHE_HIT'
p1325
F0.74221777777777775
sS'MEAN_SERVER_HIT'
p1326
F0.25721944444444444
sS'MEAN'
p1327
F0.9994372222222222
ssS'CACHE_HIT_RATIO'
p1328
g11
(tRp1329
S'MEAN_OFF_PATH'
p1330
F0.60705633989805718
sS'MEAN_ON_PATH'
p1331
F0.13516143787972057
sg1327
F0.74221777777777775
ssS'OVERHEAD'
p1332
g11
(tRp1333
g1327
F6.789226666666667
ssS'LATENCY'
p1334
g11
(tRp1335
g1327
F47.284340006937214
sstp1336
a(g11
(tRp1337
S'workload'
p1338
g11
(tRp1339
S'n_contents'
p1340
I10000
sS'name'
p1341
S'STATIONARY'
p1342
sS'n_warmup'
p1343
I360000
sS'rate'
p1344
I1000
sS'n_measured'
p1345
I3600000
sS'alpha'
p1346
F0.80000000000000004
ssS'cache_policy'
p1347
g11
(tRp1348
g1341
S'LRU'
p1349
ssS'desc'
p1350
S'caching probability: 1.0'
p1351
sS'strategy'
p1352
g11
(tRp1353
S'extra_quota'
p1354
I4
sS'rsn_fresh'
p1355
F5
sg1341
S'LIRA_BC_HYBRID'
p1356
sS'p'
F1
ssS'content_placement'
p1357
g11
(tRp1358
g1341
S'LOWEST_DEGREE'
p1359
ssS'joint_cache_rsn_placement'
p1360
g11
(tRp1361
S'network_cache'
p1362
F0.94999999999999996
sS'network_rsn'
p1363
F60.799999999999997
sg1341
S'CACHE_ALL_RSN_ALL'
p1364
sS'rsn_cache_ratio'
p1365
I64
ssS'warmup_strategy'
p1366
g11
(tRp1367
S'p'
F0.10000000000000001
sg1341
S'NDN'
p1368
ssS'topology'
p1369
g11
(tRp1370
S'ext_delay'
p1371
I5
sS'source_ratio'
p1372
F0.10000000000000001
sg1341
S'ROCKET_FUEL'
p1373
sS'asn'
p1374
I3257
ssg11
(tRp1375
S'SAT_RATE'
p1376
g11
(tRp1377
S'MEAN_CACHE_HIT'
p1378
F0.74188944444444449
sS'MEAN_SERVER_HIT'
p1379
F0.25785055555555558
sS'MEAN'
p1380
F0.99973999999999996
ssS'CACHE_HIT_RATIO'
p1381
g11
(tRp1382
S'MEAN_OFF_PATH'
p1383
F0.60683425961379212
sS'MEAN_ON_PATH'
p1384
F0.13505518483065238
sg1380
F0.74188944444444449
ssS'OVERHEAD'
p1385
g11
(tRp1386
g1380
F6.8027655555555553
ssS'LATENCY'
p1387
g11
(tRp1388
g1380
F47.264621734320862
sstp1389
a(g11
(tRp1390
S'workload'
p1391
g11
(tRp1392
S'n_contents'
p1393
I10000
sS'name'
p1394
S'STATIONARY'
p1395
sS'n_warmup'
p1396
I360000
sS'rate'
p1397
I1000
sS'n_measured'
p1398
I3600000
sS'alpha'
p1399
F0.80000000000000004
ssS'cache_policy'
p1400
g11
(tRp1401
g1394
S'LRU'
p1402
ssS'desc'
p1403
S'caching probability: 1.0'
p1404
sS'strategy'
p1405
g11
(tRp1406
S'extra_quota'
p1407
I5
sS'rsn_fresh'
p1408
F5
sg1394
S'LIRA_BC_HYBRID'
p1409
sS'p'
F1
ssS'content_placement'
p1410
g11
(tRp1411
g1394
S'LOWEST_DEGREE'
p1412
ssS'joint_cache_rsn_placement'
p1413
g11
(tRp1414
S'network_cache'
p1415
F0.94999999999999996
sS'network_rsn'
p1416
F60.799999999999997
sg1394
S'CACHE_ALL_RSN_ALL'
p1417
sS'rsn_cache_ratio'
p1418
I64
ssS'warmup_strategy'
p1419
g11
(tRp1420
S'p'
F0.10000000000000001
sg1394
S'NDN'
p1421
ssS'topology'
p1422
g11
(tRp1423
S'ext_delay'
p1424
I5
sS'source_ratio'
p1425
F0.10000000000000001
sg1394
S'ROCKET_FUEL'
p1426
sS'asn'
p1427
I3257
ssg11
(tRp1428
S'SAT_RATE'
p1429
g11
(tRp1430
S'MEAN_CACHE_HIT'
p1431
F0.74156972222222217
sS'MEAN_SERVER_HIT'
p1432
F0.25828555555555555
sS'MEAN'
p1433
F0.99985527777777783
ssS'CACHE_HIT_RATIO'
p1434
g11
(tRp1435
S'MEAN_OFF_PATH'
p1436
F0.60661950608714887
sS'MEAN_ON_PATH'
p1437
F0.1349502161350733
sg1433
F0.74156972222222217
ssS'OVERHEAD'
p1438
g11
(tRp1439
g1433
F6.7955038888888888
ssS'LATENCY'
p1440
g11
(tRp1441
g1433
F47.302297264428034
sstp1442
a(g11
(tRp1443
S'workload'
p1444
g11
(tRp1445
S'n_contents'
p1446
I10000
sS'name'
p1447
S'STATIONARY'
p1448
sS'n_warmup'
p1449
I360000
sS'rate'
p1450
I1000
sS'n_measured'
p1451
I3600000
sS'alpha'
p1452
F0.80000000000000004
ssS'cache_policy'
p1453
g11
(tRp1454
g1447
S'LRU'
p1455
ssS'desc'
p1456
S'caching probability: 1.0'
p1457
sS'strategy'
p1458
g11
(tRp1459
S'extra_quota'
p1460
I2
sS'rsn_fresh'
p1461
F5
sg1447
S'LIRA_BC_HYBRID'
p1462
sS'p'
F1
ssS'content_placement'
p1463
g11
(tRp1464
g1447
S'LOWEST_DEGREE'
p1465
ssS'joint_cache_rsn_placement'
p1466
g11
(tRp1467
S'network_cache'
p1468
F0.94999999999999996
sS'network_rsn'
p1469
F60.799999999999997
sg1447
S'CACHE_ALL_RSN_ALL'
p1470
sS'rsn_cache_ratio'
p1471
I64
ssS'warmup_strategy'
p1472
g11
(tRp1473
S'p'
F0.10000000000000001
sg1447
S'NDN'
p1474
ssS'topology'
p1475
g11
(tRp1476
S'ext_delay'
p1477
I5
sS'source_ratio'
p1478
F0.10000000000000001
sg1447
S'ROCKET_FUEL'
p1479
sS'asn'
p1480
I3257
ssg11
(tRp1481
S'SAT_RATE'
p1482
g11
(tRp1483
S'MEAN_CACHE_HIT'
p1484
F0.74045555555555553
sS'MEAN_SERVER_HIT'
p1485
F0.25813166666666665
sS'MEAN'
p1486
F0.99858722222222218
ssS'CACHE_HIT_RATIO'
p1487
g11
(tRp1488
S'MEAN_OFF_PATH'
p1489
F0.60901403047003078
sS'MEAN_ON_PATH'
p1490
F0.13144152508552476
sg1486
F0.74045555555555553
ssS'OVERHEAD'
p1491
g11
(tRp1492
g1486
F6.7867488888888889
ssS'LATENCY'
p1493
g11
(tRp1494
g1486
F47.442268429922429
sstp1495
a(g11
(tRp1496
S'workload'
p1497
g11
(tRp1498
S'n_contents'
p1499
I10000
sS'name'
p1500
S'STATIONARY'
p1501
sS'n_warmup'
p1502
I360000
sS'rate'
p1503
I1000
sS'n_measured'
p1504
I3600000
sS'alpha'
p1505
F0.80000000000000004
ssS'cache_policy'
p1506
g11
(tRp1507
g1500
S'LRU'
p1508
ssS'desc'
p1509
S'caching probability: 0.1'
p1510
sS'strategy'
p1511
g11
(tRp1512
S'extra_quota'
p1513
I2
sS'rsn_fresh'
p1514
F5
sg1500
S'LIRA_DFIB'
p1515
sS'p'
F0.10000000000000001
ssS'content_placement'
p1516
g11
(tRp1517
g1500
S'LOWEST_DEGREE'
p1518
ssS'joint_cache_rsn_placement'
p1519
g11
(tRp1520
S'network_cache'
p1521
F0.94999999999999996
sS'network_rsn'
p1522
F60.799999999999997
sg1500
S'CACHE_ALL_RSN_ALL'
p1523
sS'rsn_cache_ratio'
p1524
I64
ssS'warmup_strategy'
p1525
g11
(tRp1526
S'p'
F0.10000000000000001
sg1500
S'NDN'
p1527
ssS'topology'
p1528
g11
(tRp1529
S'ext_delay'
p1530
I5
sS'source_ratio'
p1531
F0.10000000000000001
sg1500
S'ROCKET_FUEL'
p1532
sS'asn'
p1533
I3257
ssg11
(tRp1534
S'SAT_RATE'
p1535
g11
(tRp1536
S'MEAN_CACHE_HIT'
p1537
F0.56939583333333332
sS'MEAN_SERVER_HIT'
p1538
F0.41155861111111108
sS'MEAN'
p1539
F0.98095444444444446
ssS'CACHE_HIT_RATIO'
p1540
g11
(tRp1541
S'MEAN_OFF_PATH'
p1542
F0.33427455495214364
sS'MEAN_ON_PATH'
p1543
F0.23512127838118968
sg1539
F0.56939583333333332
ssS'OVERHEAD'
p1544
g11
(tRp1545
g1539
F5.9931986111111115
ssS'LATENCY'
p1546
g11
(tRp1547
g1539
F62.077272780289022
sstp1548
a(g11
(tRp1549
S'workload'
p1550
g11
(tRp1551
S'n_contents'
p1552
I10000
sS'name'
p1553
S'STATIONARY'
p1554
sS'n_warmup'
p1555
I360000
sS'rate'
p1556
I1000
sS'n_measured'
p1557
I3600000
sS'alpha'
p1558
F0.80000000000000004
ssS'cache_policy'
p1559
g11
(tRp1560
g1553
S'LRU'
p1561
ssS'desc'
p1562
S'caching probability: 0.25'
p1563
sS'strategy'
p1564
g11
(tRp1565
S'extra_quota'
p1566
I2
sS'rsn_fresh'
p1567
F5
sg1553
S'LIRA_DFIB'
p1568
sS'p'
F0.25
ssS'content_placement'
p1569
g11
(tRp1570
g1553
S'LOWEST_DEGREE'
p1571
ssS'joint_cache_rsn_placement'
p1572
g11
(tRp1573
S'network_cache'
p1574
F0.94999999999999996
sS'network_rsn'
p1575
F60.799999999999997
sg1553
S'CACHE_ALL_RSN_ALL'
p1576
sS'rsn_cache_ratio'
p1577
I64
ssS'warmup_strategy'
p1578
g11
(tRp1579
S'p'
F0.10000000000000001
sg1553
S'NDN'
p1580
ssS'topology'
p1581
g11
(tRp1582
S'ext_delay'
p1583
I5
sS'source_ratio'
p1584
F0.10000000000000001
sg1553
S'ROCKET_FUEL'
p1585
sS'asn'
p1586
I3257
ssg11
(tRp1587
S'SAT_RATE'
p1588
g11
(tRp1589
S'MEAN_CACHE_HIT'
p1590
F0.5767052777777778
sS'MEAN_SERVER_HIT'
p1591
F0.39739805555555557
sS'MEAN'
p1592
F0.97410333333333332
ssS'CACHE_HIT_RATIO'
p1593
g11
(tRp1594
S'MEAN_OFF_PATH'
p1595
F0.3539233834279798
sS'MEAN_ON_PATH'
p1596
F0.222781894349798
sg1592
F0.5767052777777778
ssS'OVERHEAD'
p1597
g11
(tRp1598
g1592
F6.0845786111111115
ssS'LATENCY'
p1599
g11
(tRp1600
g1592
F60.715367666293481
sstp1601
a(g11
(tRp1602
S'workload'
p1603
g11
(tRp1604
S'n_contents'
p1605
I10000
sS'name'
p1606
S'STATIONARY'
p1607
sS'n_warmup'
p1608
I360000
sS'rate'
p1609
I1000
sS'n_measured'
p1610
I3600000
sS'alpha'
p1611
F0.80000000000000004
ssS'cache_policy'
p1612
g11
(tRp1613
g1606
S'LRU'
p1614
ssS'desc'
p1615
S'caching probability: 0.1'
p1616
sS'strategy'
p1617
g11
(tRp1618
S'extra_quota'
p1619
I3
sS'rsn_fresh'
p1620
F5
sg1606
S'LIRA_DFIB'
p1621
sS'p'
F0.10000000000000001
ssS'content_placement'
p1622
g11
(tRp1623
g1606
S'LOWEST_DEGREE'
p1624
ssS'joint_cache_rsn_placement'
p1625
g11
(tRp1626
S'network_cache'
p1627
F0.94999999999999996
sS'network_rsn'
p1628
F60.799999999999997
sg1606
S'CACHE_ALL_RSN_ALL'
p1629
sS'rsn_cache_ratio'
p1630
I64
ssS'warmup_strategy'
p1631
g11
(tRp1632
S'p'
F0.10000000000000001
sg1606
S'NDN'
p1633
ssS'topology'
p1634
g11
(tRp1635
S'ext_delay'
p1636
I5
sS'source_ratio'
p1637
F0.10000000000000001
sg1606
S'ROCKET_FUEL'
p1638
sS'asn'
p1639
I3257
ssg11
(tRp1640
S'SAT_RATE'
p1641
g11
(tRp1642
S'MEAN_CACHE_HIT'
p1643
F0.57298666666666664
sS'MEAN_SERVER_HIT'
p1644
F0.42258138888888891
sS'MEAN'
p1645
F0.99556805555555561
ssS'CACHE_HIT_RATIO'
p1646
g11
(tRp1647
S'MEAN_OFF_PATH'
p1648
F0.30976805217323927
sS'MEAN_ON_PATH'
p1649
F0.26321861449342737
sg1645
F0.57298666666666664
ssS'OVERHEAD'
p1650
g11
(tRp1651
g1645
F6.3592966666666664
ssS'LATENCY'
p1652
g11
(tRp1653
g1645
F63.783107164852929
sstp1654
a(g11
(tRp1655
S'workload'
p1656
g11
(tRp1657
S'n_contents'
p1658
I10000
sS'name'
p1659
S'STATIONARY'
p1660
sS'n_warmup'
p1661
I360000
sS'rate'
p1662
I1000
sS'n_measured'
p1663
I3600000
sS'alpha'
p1664
F0.80000000000000004
ssS'cache_policy'
p1665
g11
(tRp1666
g1659
S'LRU'
p1667
ssS'desc'
p1668
S'caching probability: 0.1'
p1669
sS'strategy'
p1670
g11
(tRp1671
S'extra_quota'
p1672
I4
sS'rsn_fresh'
p1673
F5
sg1659
S'LIRA_DFIB'
p1674
sS'p'
F0.10000000000000001
ssS'content_placement'
p1675
g11
(tRp1676
g1659
S'LOWEST_DEGREE'
p1677
ssS'joint_cache_rsn_placement'
p1678
g11
(tRp1679
S'network_cache'
p1680
F0.94999999999999996
sS'network_rsn'
p1681
F60.799999999999997
sg1659
S'CACHE_ALL_RSN_ALL'
p1682
sS'rsn_cache_ratio'
p1683
I64
ssS'warmup_strategy'
p1684
g11
(tRp1685
S'p'
F0.10000000000000001
sg1659
S'NDN'
p1686
ssS'topology'
p1687
g11
(tRp1688
S'ext_delay'
p1689
I5
sS'source_ratio'
p1690
F0.10000000000000001
sg1659
S'ROCKET_FUEL'
p1691
sS'asn'
p1692
I3257
ssg11
(tRp1693
S'SAT_RATE'
p1694
g11
(tRp1695
S'MEAN_CACHE_HIT'
p1696
F0.56948583333333336
sS'MEAN_SERVER_HIT'
p1697
F0.42944166666666667
sS'MEAN'
p1698
F0.99892749999999997
ssS'CACHE_HIT_RATIO'
p1699
g11
(tRp1700
S'MEAN_OFF_PATH'
p1701
F0.29172002961947813
sS'MEAN_ON_PATH'
p1702
F0.27776580371385523
sg1698
F0.56948583333333336
ssS'OVERHEAD'
p1703
g11
(tRp1704
g1698
F6.5115436111111107
ssS'LATENCY'
p1705
g11
(tRp1706
g1698
F64.703817898209181
sstp1707
a(g11
(tRp1708
S'workload'
p1709
g11
(tRp1710
S'n_contents'
p1711
I10000
sS'name'
p1712
S'STATIONARY'
p1713
sS'n_warmup'
p1714
I360000
sS'rate'
p1715
I1000
sS'n_measured'
p1716
I3600000
sS'alpha'
p1717
F0.80000000000000004
ssS'cache_policy'
p1718
g11
(tRp1719
g1712
S'LRU'
p1720
ssS'desc'
p1721
S'caching probability: 0.1'
p1722
sS'strategy'
p1723
g11
(tRp1724
S'extra_quota'
p1725
I5
sS'rsn_fresh'
p1726
F5
sg1712
S'LIRA_DFIB'
p1727
sS'p'
F0.10000000000000001
ssS'content_placement'
p1728
g11
(tRp1729
g1712
S'LOWEST_DEGREE'
p1730
ssS'joint_cache_rsn_placement'
p1731
g11
(tRp1732
S'network_cache'
p1733
F0.94999999999999996
sS'network_rsn'
p1734
F60.799999999999997
sg1712
S'CACHE_ALL_RSN_ALL'
p1735
sS'rsn_cache_ratio'
p1736
I64
ssS'warmup_strategy'
p1737
g11
(tRp1738
S'p'
F0.10000000000000001
sg1712
S'NDN'
p1739
ssS'topology'
p1740
g11
(tRp1741
S'ext_delay'
p1742
I5
sS'source_ratio'
p1743
F0.10000000000000001
sg1712
S'ROCKET_FUEL'
p1744
sS'asn'
p1745
I3257
ssg11
(tRp1746
S'SAT_RATE'
p1747
g11
(tRp1748
S'MEAN_CACHE_HIT'
p1749
F0.56670055555555554
sS'MEAN_SERVER_HIT'
p1750
F0.43301555555555554
sS'MEAN'
p1751
F0.99971611111111114
ssS'CACHE_HIT_RATIO'
p1752
g11
(tRp1753
S'MEAN_OFF_PATH'
p1754
F0.28321230206457459
sS'MEAN_ON_PATH'
p1755
F0.28348825349098095
sg1751
F0.56670055555555554
ssS'OVERHEAD'
p1756
g11
(tRp1757
g1751
F6.5720005555555554
ssS'LATENCY'
p1758
g11
(tRp1759
g1751
F65.16645760927419
sstp1760
a(g11
(tRp1761
S'workload'
p1762
g11
(tRp1763
S'n_contents'
p1764
I10000
sS'name'
p1765
S'STATIONARY'
p1766
sS'n_warmup'
p1767
I360000
sS'rate'
p1768
I1000
sS'n_measured'
p1769
I3600000
sS'alpha'
p1770
F0.80000000000000004
ssS'cache_policy'
p1771
g11
(tRp1772
g1765
S'LRU'
p1773
ssS'desc'
p1774
S'caching probability: 0.33'
p1775
sS'strategy'
p1776
g11
(tRp1777
S'extra_quota'
p1778
I2
sS'rsn_fresh'
p1779
F5
sg1765
S'LIRA_DFIB'
p1780
sS'p'
F0.33000000000000002
ssS'content_placement'
p1781
g11
(tRp1782
g1765
S'LOWEST_DEGREE'
p1783
ssS'joint_cache_rsn_placement'
p1784
g11
(tRp1785
S'network_cache'
p1786
F0.94999999999999996
sS'network_rsn'
p1787
F60.799999999999997
sg1765
S'CACHE_ALL_RSN_ALL'
p1788
sS'rsn_cache_ratio'
p1789
I64
ssS'warmup_strategy'
p1790
g11
(tRp1791
S'p'
F0.10000000000000001
sg1765
S'NDN'
p1792
ssS'topology'
p1793
g11
(tRp1794
S'ext_delay'
p1795
I5
sS'source_ratio'
p1796
F0.10000000000000001
sg1765
S'ROCKET_FUEL'
p1797
sS'asn'
p1798
I3257
ssg11
(tRp1799
S'SAT_RATE'
p1800
g11
(tRp1801
S'MEAN_CACHE_HIT'
p1802
F0.57582027777777778
sS'MEAN_SERVER_HIT'
p1803
F0.39555527777777777
sS'MEAN'
p1804
F0.97137555555555555
ssS'CACHE_HIT_RATIO'
p1805
g11
(tRp1806
S'MEAN_OFF_PATH'
p1807
F0.35759001513124644
sS'MEAN_ON_PATH'
p1808
F0.21823026264653134
sg1804
F0.57582027777777778
ssS'OVERHEAD'
p1809
g11
(tRp1810
g1804
F6.1194336111111109
ssS'LATENCY'
p1811
g11
(tRp1812
g1804
F60.642718177722934
sstp1813
a(g11
(tRp1814
S'workload'
p1815
g11
(tRp1816
S'n_contents'
p1817
I10000
sS'name'
p1818
S'STATIONARY'
p1819
sS'n_warmup'
p1820
I360000
sS'rate'
p1821
I1000
sS'n_measured'
p1822
I3600000
sS'alpha'
p1823
F0.80000000000000004
ssS'cache_policy'
p1824
g11
(tRp1825
g1818
S'LRU'
p1826
ssS'desc'
p1827
S'caching probability: 0.25'
p1828
sS'strategy'
p1829
g11
(tRp1830
S'extra_quota'
p1831
I3
sS'rsn_fresh'
p1832
F5
sg1818
S'LIRA_DFIB'
p1833
sS'p'
F0.25
ssS'content_placement'
p1834
g11
(tRp1835
g1818
S'LOWEST_DEGREE'
p1836
ssS'joint_cache_rsn_placement'
p1837
g11
(tRp1838
S'network_cache'
p1839
F0.94999999999999996
sS'network_rsn'
p1840
F60.799999999999997
sg1818
S'CACHE_ALL_RSN_ALL'
p1841
sS'rsn_cache_ratio'
p1842
I64
ssS'warmup_strategy'
p1843
g11
(tRp1844
S'p'
F0.10000000000000001
sg1818
S'NDN'
p1845
ssS'topology'
p1846
g11
(tRp1847
S'ext_delay'
p1848
I5
sS'source_ratio'
p1849
F0.10000000000000001
sg1818
S'ROCKET_FUEL'
p1850
sS'asn'
p1851
I3257
ssg11
(tRp1852
S'SAT_RATE'
p1853
g11
(tRp1854
S'MEAN_CACHE_HIT'
p1855
F0.58075694444444448
sS'MEAN_SERVER_HIT'
p1856
F0.41246416666666669
sS'MEAN'
p1857
F0.99322111111111111
ssS'CACHE_HIT_RATIO'
p1858
g11
(tRp1859
S'MEAN_OFF_PATH'
p1860
F0.32667632334140195
sS'MEAN_ON_PATH'
p1861
F0.25408062110304253
sg1857
F0.58075694444444448
ssS'OVERHEAD'
p1862
g11
(tRp1863
g1857
F6.4949897222222219
ssS'LATENCY'
p1864
g11
(tRp1865
g1857
F63.044868892900546
sstp1866
a(g11
(tRp1867
S'workload'
p1868
g11
(tRp1869
S'n_contents'
p1870
I10000
sS'name'
p1871
S'STATIONARY'
p1872
sS'n_warmup'
p1873
I360000
sS'rate'
p1874
I1000
sS'n_measured'
p1875
I3600000
sS'alpha'
p1876
F0.80000000000000004
ssS'cache_policy'
p1877
g11
(tRp1878
g1871
S'LRU'
p1879
ssS'desc'
p1880
S'caching probability: 0.33'
p1881
sS'strategy'
p1882
g11
(tRp1883
S'extra_quota'
p1884
I3
sS'rsn_fresh'
p1885
F5
sg1871
S'LIRA_DFIB'
p1886
sS'p'
F0.33000000000000002
ssS'content_placement'
p1887
g11
(tRp1888
g1871
S'LOWEST_DEGREE'
p1889
ssS'joint_cache_rsn_placement'
p1890
g11
(tRp1891
S'network_cache'
p1892
F0.94999999999999996
sS'network_rsn'
p1893
F60.799999999999997
sg1871
S'CACHE_ALL_RSN_ALL'
p1894
sS'rsn_cache_ratio'
p1895
I64
ssS'warmup_strategy'
p1896
g11
(tRp1897
S'p'
F0.10000000000000001
sg1871
S'NDN'
p1898
ssS'topology'
p1899
g11
(tRp1900
S'ext_delay'
p1901
I5
sS'source_ratio'
p1902
F0.10000000000000001
sg1871
S'ROCKET_FUEL'
p1903
sS'asn'
p1904
I3257
ssg11
(tRp1905
S'SAT_RATE'
p1906
g11
(tRp1907
S'MEAN_CACHE_HIT'
p1908
F0.58229861111111114
sS'MEAN_SERVER_HIT'
p1909
F0.40991666666666665
sS'MEAN'
p1910
F0.99221527777777774
ssS'CACHE_HIT_RATIO'
p1911
g11
(tRp1912
S'MEAN_OFF_PATH'
p1913
F0.33092524248903277
sS'MEAN_ON_PATH'
p1914
F0.25137336862207837
sg1910
F0.58229861111111114
ssS'OVERHEAD'
p1915
g11
(tRp1916
g1910
F6.5458238888888891
ssS'LATENCY'
p1917
g11
(tRp1918
g1910
F62.902606487795815
sstp1919
a(g11
(tRp1920
S'workload'
p1921
g11
(tRp1922
S'n_contents'
p1923
I10000
sS'name'
p1924
S'STATIONARY'
p1925
sS'n_warmup'
p1926
I360000
sS'rate'
p1927
I1000
sS'n_measured'
p1928
I3600000
sS'alpha'
p1929
F0.80000000000000004
ssS'cache_policy'
p1930
g11
(tRp1931
g1924
S'LRU'
p1932
ssS'desc'
p1933
S'caching probability: 0.25'
p1934
sS'strategy'
p1935
g11
(tRp1936
S'extra_quota'
p1937
I5
sS'rsn_fresh'
p1938
F5
sg1924
S'LIRA_DFIB'
p1939
sS'p'
F0.25
ssS'content_placement'
p1940
g11
(tRp1941
g1924
S'LOWEST_DEGREE'
p1942
ssS'joint_cache_rsn_placement'
p1943
g11
(tRp1944
S'network_cache'
p1945
F0.94999999999999996
sS'network_rsn'
p1946
F60.799999999999997
sg1924
S'CACHE_ALL_RSN_ALL'
p1947
sS'rsn_cache_ratio'
p1948
I64
ssS'warmup_strategy'
p1949
g11
(tRp1950
S'p'
F0.10000000000000001
sg1924
S'NDN'
p1951
ssS'topology'
p1952
g11
(tRp1953
S'ext_delay'
p1954
I5
sS'source_ratio'
p1955
F0.10000000000000001
sg1924
S'ROCKET_FUEL'
p1956
sS'asn'
p1957
I3257
ssg11
(tRp1958
S'SAT_RATE'
p1959
g11
(tRp1960
S'MEAN_CACHE_HIT'
p1961
F0.5777538888888889
sS'MEAN_SERVER_HIT'
p1962
F0.42182666666666668
sS'MEAN'
p1963
F0.99958055555555558
ssS'CACHE_HIT_RATIO'
p1964
g11
(tRp1965
S'MEAN_OFF_PATH'
p1966
F0.2986564704995594
sS'MEAN_ON_PATH'
p1967
F0.2790974183893295
sg1963
F0.5777538888888889
ssS'OVERHEAD'
p1968
g11
(tRp1969
g1963
F6.767493611111111
ssS'LATENCY'
p1970
g11
(tRp1971
g1963
F64.348445042835692
sstp1972
a(g11
(tRp1973
S'workload'
p1974
g11
(tRp1975
S'n_contents'
p1976
I10000
sS'name'
p1977
S'STATIONARY'
p1978
sS'n_warmup'
p1979
I360000
sS'rate'
p1980
I1000
sS'n_measured'
p1981
I3600000
sS'alpha'
p1982
F0.80000000000000004
ssS'cache_policy'
p1983
g11
(tRp1984
g1977
S'LRU'
p1985
ssS'desc'
p1986
S'caching probability: 0.25'
p1987
sS'strategy'
p1988
g11
(tRp1989
S'extra_quota'
p1990
I4
sS'rsn_fresh'
p1991
F5
sg1977
S'LIRA_DFIB'
p1992
sS'p'
F0.25
ssS'content_placement'
p1993
g11
(tRp1994
g1977
S'LOWEST_DEGREE'
p1995
ssS'joint_cache_rsn_placement'
p1996
g11
(tRp1997
S'network_cache'
p1998
F0.94999999999999996
sS'network_rsn'
p1999
F60.799999999999997
sg1977
S'CACHE_ALL_RSN_ALL'
p2000
sS'rsn_cache_ratio'
p2001
I64
ssS'warmup_strategy'
p2002
g11
(tRp2003
S'p'
F0.10000000000000001
sg1977
S'NDN'
p2004
ssS'topology'
p2005
g11
(tRp2006
S'ext_delay'
p2007
I5
sS'source_ratio'
p2008
F0.10000000000000001
sg1977
S'ROCKET_FUEL'
p2009
sS'asn'
p2010
I3257
ssg11
(tRp2011
S'SAT_RATE'
p2012
g11
(tRp2013
S'MEAN_CACHE_HIT'
p2014
F0.57983111111111107
sS'MEAN_SERVER_HIT'
p2015
F0.4185025
sS'MEAN'
p2016
F0.99833361111111107
ssS'CACHE_HIT_RATIO'
p2017
g11
(tRp2018
S'MEAN_OFF_PATH'
p2019
F0.30764232966877381
sS'MEAN_ON_PATH'
p2020
F0.27218878144233727
sg2016
F0.57983111111111107
ssS'OVERHEAD'
p2021
g11
(tRp2022
g2016
F6.683206666666667
ssS'LATENCY'
p2023
g11
(tRp2024
g2016
F63.908526688225692
sstp2025
a(g11
(tRp2026
S'workload'
p2027
g11
(tRp2028
S'n_contents'
p2029
I10000
sS'name'
p2030
S'STATIONARY'
p2031
sS'n_warmup'
p2032
I360000
sS'rate'
p2033
I1000
sS'n_measured'
p2034
I3600000
sS'alpha'
p2035
F0.80000000000000004
ssS'cache_policy'
p2036
g11
(tRp2037
g2030
S'LRU'
p2038
ssS'desc'
p2039
S'caching probability: 0.33'
p2040
sS'strategy'
p2041
g11
(tRp2042
S'extra_quota'
p2043
I4
sS'rsn_fresh'
p2044
F5
sg2030
S'LIRA_DFIB'
p2045
sS'p'
F0.33000000000000002
ssS'content_placement'
p2046
g11
(tRp2047
g2030
S'LOWEST_DEGREE'
p2048
ssS'joint_cache_rsn_placement'
p2049
g11
(tRp2050
S'network_cache'
p2051
F0.94999999999999996
sS'network_rsn'
p2052
F60.799999999999997
sg2030
S'CACHE_ALL_RSN_ALL'
p2053
sS'rsn_cache_ratio'
p2054
I64
ssS'warmup_strategy'
p2055
g11
(tRp2056
S'p'
F0.10000000000000001
sg2030
S'NDN'
p2057
ssS'topology'
p2058
g11
(tRp2059
S'ext_delay'
p2060
I5
sS'source_ratio'
p2061
F0.10000000000000001
sg2030
S'ROCKET_FUEL'
p2062
sS'asn'
p2063
I3257
ssg11
(tRp2064
S'SAT_RATE'
p2065
g11
(tRp2066
S'MEAN_CACHE_HIT'
p2067
F0.57963138888888888
sS'MEAN_SERVER_HIT'
p2068
F0.41844194444444444
sS'MEAN'
p2069
F0.99807333333333337
ssS'CACHE_HIT_RATIO'
p2070
g11
(tRp2071
S'MEAN_OFF_PATH'
p2072
F0.31081569614757421
sS'MEAN_ON_PATH'
p2073
F0.26881569274131467
sg2069
F0.57963138888888888
ssS'OVERHEAD'
p2074
g11
(tRp2075
g2069
F6.7458905555555555
ssS'LATENCY'
p2076
g11
(tRp2077
g2069
F64.116351510194605
sstp2078
a(g11
(tRp2079
S'workload'
p2080
g11
(tRp2081
S'n_contents'
p2082
I10000
sS'name'
p2083
S'STATIONARY'
p2084
sS'n_warmup'
p2085
I360000
sS'rate'
p2086
I1000
sS'n_measured'
p2087
I3600000
sS'alpha'
p2088
F0.80000000000000004
ssS'cache_policy'
p2089
g11
(tRp2090
g2083
S'LRU'
p2091
ssS'desc'
p2092
S'caching probability: 0.33'
p2093
sS'strategy'
p2094
g11
(tRp2095
S'extra_quota'
p2096
I5
sS'rsn_fresh'
p2097
F5
sg2083
S'LIRA_DFIB'
p2098
sS'p'
F0.33000000000000002
ssS'content_placement'
p2099
g11
(tRp2100
g2083
S'LOWEST_DEGREE'
p2101
ssS'joint_cache_rsn_placement'
p2102
g11
(tRp2103
S'network_cache'
p2104
F0.94999999999999996
sS'network_rsn'
p2105
F60.799999999999997
sg2083
S'CACHE_ALL_RSN_ALL'
p2106
sS'rsn_cache_ratio'
p2107
I64
ssS'warmup_strategy'
p2108
g11
(tRp2109
S'p'
F0.10000000000000001
sg2083
S'NDN'
p2110
ssS'topology'
p2111
g11
(tRp2112
S'ext_delay'
p2113
I5
sS'source_ratio'
p2114
F0.10000000000000001
sg2083
S'ROCKET_FUEL'
p2115
sS'asn'
p2116
I3257
ssg11
(tRp2117
S'SAT_RATE'
p2118
g11
(tRp2119
S'MEAN_CACHE_HIT'
p2120
F0.57805555555555554
sS'MEAN_SERVER_HIT'
p2121
F0.4214661111111111
sS'MEAN'
p2122
F0.99952166666666664
ssS'CACHE_HIT_RATIO'
p2123
g11
(tRp2124
S'MEAN_OFF_PATH'
p2125
F0.30107525975612837
sS'MEAN_ON_PATH'
p2126
F0.27698029579942718
sg2122
F0.57805555555555554
ssS'OVERHEAD'
p2127
g11
(tRp2128
g2122
F6.8273438888888887
ssS'LATENCY'
p2129
g11
(tRp2130
g2122
F64.501595540096787
sstp2131
a(g11
(tRp2132
S'workload'
p2133
g11
(tRp2134
S'n_contents'
p2135
I10000
sS'name'
p2136
S'STATIONARY'
p2137
sS'n_warmup'
p2138
I360000
sS'rate'
p2139
I1000
sS'n_measured'
p2140
I3600000
sS'alpha'
p2141
F0.80000000000000004
ssS'cache_policy'
p2142
g11
(tRp2143
g2136
S'LRU'
p2144
ssS'desc'
p2145
S'caching probability: 0.5'
p2146
sS'strategy'
p2147
g11
(tRp2148
S'extra_quota'
p2149
I2
sS'rsn_fresh'
p2150
F5
sg2136
S'LIRA_DFIB'
p2151
sS'p'
F0.5
ssS'content_placement'
p2152
g11
(tRp2153
g2136
S'LOWEST_DEGREE'
p2154
ssS'joint_cache_rsn_placement'
p2155
g11
(tRp2156
S'network_cache'
p2157
F0.94999999999999996
sS'network_rsn'
p2158
F60.799999999999997
sg2136
S'CACHE_ALL_RSN_ALL'
p2159
sS'rsn_cache_ratio'
p2160
I64
ssS'warmup_strategy'
p2161
g11
(tRp2162
S'p'
F0.10000000000000001
sg2136
S'NDN'
p2163
ssS'topology'
p2164
g11
(tRp2165
S'ext_delay'
p2166
I5
sS'source_ratio'
p2167
F0.10000000000000001
sg2136
S'ROCKET_FUEL'
p2168
sS'asn'
p2169
I3257
ssg11
(tRp2170
S'SAT_RATE'
p2171
g11
(tRp2172
S'MEAN_CACHE_HIT'
p2173
F0.57354638888888887
sS'MEAN_SERVER_HIT'
p2174
F0.39316722222222222
sS'MEAN'
p2175
F0.96671361111111109
ssS'CACHE_HIT_RATIO'
p2176
g11
(tRp2177
S'MEAN_OFF_PATH'
p2178
F0.36223226085553994
sS'MEAN_ON_PATH'
p2179
F0.21131412803334892
sg2175
F0.57354638888888887
ssS'OVERHEAD'
p2180
g11
(tRp2181
g2175
F6.177968611111111
ssS'LATENCY'
p2182
g11
(tRp2183
g2175
F60.552984946470175
sstp2184
a(g11
(tRp2185
S'workload'
p2186
g11
(tRp2187
S'n_contents'
p2188
I10000
sS'name'
p2189
S'STATIONARY'
p2190
sS'n_warmup'
p2191
I360000
sS'rate'
p2192
I1000
sS'n_measured'
p2193
I3600000
sS'alpha'
p2194
F0.80000000000000004
ssS'cache_policy'
p2195
g11
(tRp2196
g2189
S'LRU'
p2197
ssS'desc'
p2198
S'caching probability: 0.5'
p2199
sS'strategy'
p2200
g11
(tRp2201
S'extra_quota'
p2202
I3
sS'rsn_fresh'
p2203
F5
sg2189
S'LIRA_DFIB'
p2204
sS'p'
F0.5
ssS'content_placement'
p2205
g11
(tRp2206
g2189
S'LOWEST_DEGREE'
p2207
ssS'joint_cache_rsn_placement'
p2208
g11
(tRp2209
S'network_cache'
p2210
F0.94999999999999996
sS'network_rsn'
p2211
F60.799999999999997
sg2189
S'CACHE_ALL_RSN_ALL'
p2212
sS'rsn_cache_ratio'
p2213
I64
ssS'warmup_strategy'
p2214
g11
(tRp2215
S'p'
F0.10000000000000001
sg2189
S'NDN'
p2216
ssS'topology'
p2217
g11
(tRp2218
S'ext_delay'
p2219
I5
sS'source_ratio'
p2220
F0.10000000000000001
sg2189
S'ROCKET_FUEL'
p2221
sS'asn'
p2222
I3257
ssg11
(tRp2223
S'SAT_RATE'
p2224
g11
(tRp2225
S'MEAN_CACHE_HIT'
p2226
F0.57863388888888889
sS'MEAN_SERVER_HIT'
p2227
F0.41169250000000002
sS'MEAN'
p2228
F0.99032638888888891
ssS'CACHE_HIT_RATIO'
p2229
g11
(tRp2230
S'MEAN_OFF_PATH'
p2231
F0.33345960761593091
sS'MEAN_ON_PATH'
p2232
F0.24517428127295798
sg2228
F0.57863388888888889
ssS'OVERHEAD'
p2233
g11
(tRp2234
g2228
F6.6296391666666663
ssS'LATENCY'
p2235
g11
(tRp2236
g2228
F63.341058619926898
sstp2237
a(g11
(tRp2238
S'workload'
p2239
g11
(tRp2240
S'n_contents'
p2241
I10000
sS'name'
p2242
S'STATIONARY'
p2243
sS'n_warmup'
p2244
I360000
sS'rate'
p2245
I1000
sS'n_measured'
p2246
I3600000
sS'alpha'
p2247
F0.80000000000000004
ssS'cache_policy'
p2248
g11
(tRp2249
g2242
S'LRU'
p2250
ssS'desc'
p2251
S'caching probability: 0.1'
p2252
sS'strategy'
p2253
g11
(tRp2254
S'extra_quota'
p2255
I2
sS'rsn_fresh'
p2256
F5
sg2242
S'LIRA_DFIB_OPH'
p2257
sS'p'
F0.10000000000000001
ssS'content_placement'
p2258
g11
(tRp2259
g2242
S'LOWEST_DEGREE'
p2260
ssS'joint_cache_rsn_placement'
p2261
g11
(tRp2262
S'network_cache'
p2263
F0.94999999999999996
sS'network_rsn'
p2264
F60.799999999999997
sg2242
S'CACHE_ALL_RSN_ALL'
p2265
sS'rsn_cache_ratio'
p2266
I64
ssS'warmup_strategy'
p2267
g11
(tRp2268
S'p'
F0.10000000000000001
sg2242
S'NDN'
p2269
ssS'topology'
p2270
g11
(tRp2271
S'ext_delay'
p2272
I5
sS'source_ratio'
p2273
F0.10000000000000001
sg2242
S'ROCKET_FUEL'
p2274
sS'asn'
p2275
I3257
ssg11
(tRp2276
S'SAT_RATE'
p2277
g11
(tRp2278
S'MEAN_CACHE_HIT'
p2279
F0.65868611111111108
sS'MEAN_SERVER_HIT'
p2280
F0.3387613888888889
sS'MEAN'
p2281
F0.99744750000000004
ssS'CACHE_HIT_RATIO'
p2282
g11
(tRp2283
S'MEAN_OFF_PATH'
p2284
F0.37890331513753234
sS'MEAN_ON_PATH'
p2285
F0.27978279597357875
sg2281
F0.65868611111111108
ssS'OVERHEAD'
p2286
g11
(tRp2287
g2281
F7.3507947222222221
ssS'LATENCY'
p2288
g11
(tRp2289
g2281
F54.314120443641073
sstp2290
a(g11
(tRp2291
S'workload'
p2292
g11
(tRp2293
S'n_contents'
p2294
I10000
sS'name'
p2295
S'STATIONARY'
p2296
sS'n_warmup'
p2297
I360000
sS'rate'
p2298
I1000
sS'n_measured'
p2299
I3600000
sS'alpha'
p2300
F0.80000000000000004
ssS'cache_policy'
p2301
g11
(tRp2302
g2295
S'LRU'
p2303
ssS'desc'
p2304
S'caching probability: 0.5'
p2305
sS'strategy'
p2306
g11
(tRp2307
S'extra_quota'
p2308
I4
sS'rsn_fresh'
p2309
F5
sg2295
S'LIRA_DFIB'
p2310
sS'p'
F0.5
ssS'content_placement'
p2311
g11
(tRp2312
g2295
S'LOWEST_DEGREE'
p2313
ssS'joint_cache_rsn_placement'
p2314
g11
(tRp2315
S'network_cache'
p2316
F0.94999999999999996
sS'network_rsn'
p2317
F60.799999999999997
sg2295
S'CACHE_ALL_RSN_ALL'
p2318
sS'rsn_cache_ratio'
p2319
I64
ssS'warmup_strategy'
p2320
g11
(tRp2321
S'p'
F0.10000000000000001
sg2295
S'NDN'
p2322
ssS'topology'
p2323
g11
(tRp2324
S'ext_delay'
p2325
I5
sS'source_ratio'
p2326
F0.10000000000000001
sg2295
S'ROCKET_FUEL'
p2327
sS'asn'
p2328
I3257
ssg11
(tRp2329
S'SAT_RATE'
p2330
g11
(tRp2331
S'MEAN_CACHE_HIT'
p2332
F0.57733277777777781
sS'MEAN_SERVER_HIT'
p2333
F0.42017333333333334
sS'MEAN'
p2334
F0.99750611111111109
ssS'CACHE_HIT_RATIO'
p2335
g11
(tRp2336
S'MEAN_OFF_PATH'
p2337
F0.31383627059021302
sS'MEAN_ON_PATH'
p2338
F0.26349650718756479
sg2334
F0.57733277777777781
ssS'OVERHEAD'
p2339
g11
(tRp2340
g2334
F6.8456088888888891
ssS'LATENCY'
p2341
g11
(tRp2342
g2334
F64.535877488841095
sstp2343
a(g11
(tRp2344
S'workload'
p2345
g11
(tRp2346
S'n_contents'
p2347
I10000
sS'name'
p2348
S'STATIONARY'
p2349
sS'n_warmup'
p2350
I360000
sS'rate'
p2351
I1000
sS'n_measured'
p2352
I3600000
sS'alpha'
p2353
F0.80000000000000004
ssS'cache_policy'
p2354
g11
(tRp2355
g2348
S'LRU'
p2356
ssS'desc'
p2357
S'caching probability: 0.75'
p2358
sS'strategy'
p2359
g11
(tRp2360
S'extra_quota'
p2361
I2
sS'rsn_fresh'
p2362
F5
sg2348
S'LIRA_DFIB'
p2363
sS'p'
F0.75
ssS'content_placement'
p2364
g11
(tRp2365
g2348
S'LOWEST_DEGREE'
p2366
ssS'joint_cache_rsn_placement'
p2367
g11
(tRp2368
S'network_cache'
p2369
F0.94999999999999996
sS'network_rsn'
p2370
F60.799999999999997
sg2348
S'CACHE_ALL_RSN_ALL'
p2371
sS'rsn_cache_ratio'
p2372
I64
ssS'warmup_strategy'
p2373
g11
(tRp2374
S'p'
F0.10000000000000001
sg2348
S'NDN'
p2375
ssS'topology'
p2376
g11
(tRp2377
S'ext_delay'
p2378
I5
sS'source_ratio'
p2379
F0.10000000000000001
sg2348
S'ROCKET_FUEL'
p2380
sS'asn'
p2381
I3257
ssg11
(tRp2382
S'SAT_RATE'
p2383
g11
(tRp2384
S'MEAN_CACHE_HIT'
p2385
F0.56489638888888893
sS'MEAN_SERVER_HIT'
p2386
F0.39590083333333331
sS'MEAN'
p2387
F0.96079722222222219
ssS'CACHE_HIT_RATIO'
p2388
g11
(tRp2389
S'MEAN_OFF_PATH'
p2390
F0.36174641113626804
sS'MEAN_ON_PATH'
p2391
F0.20314997775262089
sg2387
F0.56489638888888893
ssS'OVERHEAD'
p2392
g11
(tRp2393
g2387
F6.233084166666667
ssS'LATENCY'
p2394
g11
(tRp2395
g2387
F61.07780626881457
sstp2396
a(g11
(tRp2397
S'workload'
p2398
g11
(tRp2399
S'n_contents'
p2400
I10000
sS'name'
p2401
S'STATIONARY'
p2402
sS'n_warmup'
p2403
I360000
sS'rate'
p2404
I1000
sS'n_measured'
p2405
I3600000
sS'alpha'
p2406
F0.80000000000000004
ssS'cache_policy'
p2407
g11
(tRp2408
g2401
S'LRU'
p2409
ssS'desc'
p2410
S'caching probability: 0.66'
p2411
sS'strategy'
p2412
g11
(tRp2413
S'extra_quota'
p2414
I2
sS'rsn_fresh'
p2415
F5
sg2401
S'LIRA_DFIB'
p2416
sS'p'
F0.66000000000000003
ssS'content_placement'
p2417
g11
(tRp2418
g2401
S'LOWEST_DEGREE'
p2419
ssS'joint_cache_rsn_placement'
p2420
g11
(tRp2421
S'network_cache'
p2422
F0.94999999999999996
sS'network_rsn'
p2423
F60.799999999999997
sg2401
S'CACHE_ALL_RSN_ALL'
p2424
sS'rsn_cache_ratio'
p2425
I64
ssS'warmup_strategy'
p2426
g11
(tRp2427
S'p'
F0.10000000000000001
sg2401
S'NDN'
p2428
ssS'topology'
p2429
g11
(tRp2430
S'ext_delay'
p2431
I5
sS'source_ratio'
p2432
F0.10000000000000001
sg2401
S'ROCKET_FUEL'
p2433
sS'asn'
p2434
I3257
ssg11
(tRp2435
S'SAT_RATE'
p2436
g11
(tRp2437
S'MEAN_CACHE_HIT'
p2438
F0.56830472222222217
sS'MEAN_SERVER_HIT'
p2439
F0.39449250000000002
sS'MEAN'
p2440
F0.96279722222222219
ssS'CACHE_HIT_RATIO'
p2441
g11
(tRp2442
S'MEAN_OFF_PATH'
p2443
F0.36242560916808497
sS'MEAN_ON_PATH'
p2444
F0.2058791130541372
sg2440
F0.56830472222222217
ssS'OVERHEAD'
p2445
g11
(tRp2446
g2440
F6.216475833333333
ssS'LATENCY'
p2447
g11
(tRp2448
g2440
F60.830892325755165
sstp2449
a(g11
(tRp2450
S'workload'
p2451
g11
(tRp2452
S'n_contents'
p2453
I10000
sS'name'
p2454
S'STATIONARY'
p2455
sS'n_warmup'
p2456
I360000
sS'rate'
p2457
I1000
sS'n_measured'
p2458
I3600000
sS'alpha'
p2459
F0.80000000000000004
ssS'cache_policy'
p2460
g11
(tRp2461
g2454
S'LRU'
p2462
ssS'desc'
p2463
S'caching probability: 0.1'
p2464
sS'strategy'
p2465
g11
(tRp2466
S'extra_quota'
p2467
I3
sS'rsn_fresh'
p2468
F5
sg2454
S'LIRA_DFIB_OPH'
p2469
sS'p'
F0.10000000000000001
ssS'content_placement'
p2470
g11
(tRp2471
g2454
S'LOWEST_DEGREE'
p2472
ssS'joint_cache_rsn_placement'
p2473
g11
(tRp2474
S'network_cache'
p2475
F0.94999999999999996
sS'network_rsn'
p2476
F60.799999999999997
sg2454
S'CACHE_ALL_RSN_ALL'
p2477
sS'rsn_cache_ratio'
p2478
I64
ssS'warmup_strategy'
p2479
g11
(tRp2480
S'p'
F0.10000000000000001
sg2454
S'NDN'
p2481
ssS'topology'
p2482
g11
(tRp2483
S'ext_delay'
p2484
I5
sS'source_ratio'
p2485
F0.10000000000000001
sg2454
S'ROCKET_FUEL'
p2486
sS'asn'
p2487
I3257
ssg11
(tRp2488
S'SAT_RATE'
p2489
g11
(tRp2490
S'MEAN_CACHE_HIT'
p2491
F0.66004444444444443
sS'MEAN_SERVER_HIT'
p2492
F0.33939416666666666
sS'MEAN'
p2493
F0.9994386111111111
ssS'CACHE_HIT_RATIO'
p2494
g11
(tRp2495
S'MEAN_OFF_PATH'
p2496
F0.36300664809349176
sS'MEAN_ON_PATH'
p2497
F0.29703779635095268
sg2493
F0.66004444444444443
ssS'OVERHEAD'
p2498
g11
(tRp2499
g2493
F7.5592258333333335
ssS'LATENCY'
p2500
g11
(tRp2501
g2493
F54.44047959171796
sstp2502
a(g11
(tRp2503
S'workload'
p2504
g11
(tRp2505
S'n_contents'
p2506
I10000
sS'name'
p2507
S'STATIONARY'
p2508
sS'n_warmup'
p2509
I360000
sS'rate'
p2510
I1000
sS'n_measured'
p2511
I3600000
sS'alpha'
p2512
F0.80000000000000004
ssS'cache_policy'
p2513
g11
(tRp2514
g2507
S'LRU'
p2515
ssS'desc'
p2516
S'caching probability: 0.5'
p2517
sS'strategy'
p2518
g11
(tRp2519
S'extra_quota'
p2520
I5
sS'rsn_fresh'
p2521
F5
sg2507
S'LIRA_DFIB'
p2522
sS'p'
F0.5
ssS'content_placement'
p2523
g11
(tRp2524
g2507
S'LOWEST_DEGREE'
p2525
ssS'joint_cache_rsn_placement'
p2526
g11
(tRp2527
S'network_cache'
p2528
F0.94999999999999996
sS'network_rsn'
p2529
F60.799999999999997
sg2507
S'CACHE_ALL_RSN_ALL'
p2530
sS'rsn_cache_ratio'
p2531
I64
ssS'warmup_strategy'
p2532
g11
(tRp2533
S'p'
F0.10000000000000001
sg2507
S'NDN'
p2534
ssS'topology'
p2535
g11
(tRp2536
S'ext_delay'
p2537
I5
sS'source_ratio'
p2538
F0.10000000000000001
sg2507
S'ROCKET_FUEL'
p2539
sS'asn'
p2540
I3257
ssg11
(tRp2541
S'SAT_RATE'
p2542
g11
(tRp2543
S'MEAN_CACHE_HIT'
p2544
F0.57595555555555555
sS'MEAN_SERVER_HIT'
p2545
F0.42341972222222224
sS'MEAN'
p2546
F0.99937527777777779
ssS'CACHE_HIT_RATIO'
p2547
g11
(tRp2548
S'MEAN_OFF_PATH'
p2549
F0.30383487670288523
sS'MEAN_ON_PATH'
p2550
F0.27212067885267033
sg2546
F0.57595555555555555
ssS'OVERHEAD'
p2551
g11
(tRp2552
g2546
F6.9397602777777774
ssS'LATENCY'
p2553
g11
(tRp2554
g2546
F64.975039944973361
sstp2555
a(g11
(tRp2556
S'workload'
p2557
g11
(tRp2558
S'n_contents'
p2559
I10000
sS'name'
p2560
S'STATIONARY'
p2561
sS'n_warmup'
p2562
I360000
sS'rate'
p2563
I1000
sS'n_measured'
p2564
I3600000
sS'alpha'
p2565
F0.80000000000000004
ssS'cache_policy'
p2566
g11
(tRp2567
g2560
S'LRU'
p2568
ssS'desc'
p2569
S'caching probability: 0.66'
p2570
sS'strategy'
p2571
g11
(tRp2572
S'extra_quota'
p2573
I3
sS'rsn_fresh'
p2574
F5
sg2560
S'LIRA_DFIB'
p2575
sS'p'
F0.66000000000000003
ssS'content_placement'
p2576
g11
(tRp2577
g2560
S'LOWEST_DEGREE'
p2578
ssS'joint_cache_rsn_placement'
p2579
g11
(tRp2580
S'network_cache'
p2581
F0.94999999999999996
sS'network_rsn'
p2582
F60.799999999999997
sg2560
S'CACHE_ALL_RSN_ALL'
p2583
sS'rsn_cache_ratio'
p2584
I64
ssS'warmup_strategy'
p2585
g11
(tRp2586
S'p'
F0.10000000000000001
sg2560
S'NDN'
p2587
ssS'topology'
p2588
g11
(tRp2589
S'ext_delay'
p2590
I5
sS'source_ratio'
p2591
F0.10000000000000001
sg2560
S'ROCKET_FUEL'
p2592
sS'asn'
p2593
I3257
ssg11
(tRp2594
S'SAT_RATE'
p2595
g11
(tRp2596
S'MEAN_CACHE_HIT'
p2597
F0.57372194444444446
sS'MEAN_SERVER_HIT'
p2598
F0.41496527777777775
sS'MEAN'
p2599
F0.98868722222222227
ssS'CACHE_HIT_RATIO'
p2600
g11
(tRp2601
S'MEAN_OFF_PATH'
p2602
F0.33331115188057081
sS'MEAN_ON_PATH'
p2603
F0.24041079256387365
sg2599
F0.57372194444444446
ssS'OVERHEAD'
p2604
g11
(tRp2605
g2599
F6.6776819444444442
ssS'LATENCY'
p2606
g11
(tRp2607
g2599
F63.900854926525589
sstp2608
a(g11
(tRp2609
S'workload'
p2610
g11
(tRp2611
S'n_contents'
p2612
I10000
sS'name'
p2613
S'STATIONARY'
p2614
sS'n_warmup'
p2615
I360000
sS'rate'
p2616
I1000
sS'n_measured'
p2617
I3600000
sS'alpha'
p2618
F0.80000000000000004
ssS'cache_policy'
p2619
g11
(tRp2620
g2613
S'LRU'
p2621
ssS'desc'
p2622
S'caching probability: 0.66'
p2623
sS'strategy'
p2624
g11
(tRp2625
S'extra_quota'
p2626
I4
sS'rsn_fresh'
p2627
F5
sg2613
S'LIRA_DFIB'
p2628
sS'p'
F0.66000000000000003
ssS'content_placement'
p2629
g11
(tRp2630
g2613
S'LOWEST_DEGREE'
p2631
ssS'joint_cache_rsn_placement'
p2632
g11
(tRp2633
S'network_cache'
p2634
F0.94999999999999996
sS'network_rsn'
p2635
F60.799999999999997
sg2613
S'CACHE_ALL_RSN_ALL'
p2636
sS'rsn_cache_ratio'
p2637
I64
ssS'warmup_strategy'
p2638
g11
(tRp2639
S'p'
F0.10000000000000001
sg2613
S'NDN'
p2640
ssS'topology'
p2641
g11
(tRp2642
S'ext_delay'
p2643
I5
sS'source_ratio'
p2644
F0.10000000000000001
sg2613
S'ROCKET_FUEL'
p2645
sS'asn'
p2646
I3257
ssg11
(tRp2647
S'SAT_RATE'
p2648
g11
(tRp2649
S'MEAN_CACHE_HIT'
p2650
F0.57259083333333338
sS'MEAN_SERVER_HIT'
p2651
F0.42444694444444442
sS'MEAN'
p2652
F0.9970377777777778
ssS'CACHE_HIT_RATIO'
p2653
g11
(tRp2654
S'MEAN_OFF_PATH'
p2655
F0.31352743431809449
sS'MEAN_ON_PATH'
p2656
F0.25906339901523889
sg2652
F0.57259083333333338
ssS'OVERHEAD'
p2657
g11
(tRp2658
g2652
F6.9053547222222225
ssS'LATENCY'
p2659
g11
(tRp2660
g2652
F65.234451258979163
sstp2661
a(g11
(tRp2662
S'workload'
p2663
g11
(tRp2664
S'n_contents'
p2665
I10000
sS'name'
p2666
S'STATIONARY'
p2667
sS'n_warmup'
p2668
I360000
sS'rate'
p2669
I1000
sS'n_measured'
p2670
I3600000
sS'alpha'
p2671
F0.80000000000000004
ssS'cache_policy'
p2672
g11
(tRp2673
g2666
S'LRU'
p2674
ssS'desc'
p2675
S'caching probability: 0.66'
p2676
sS'strategy'
p2677
g11
(tRp2678
S'extra_quota'
p2679
I5
sS'rsn_fresh'
p2680
F5
sg2666
S'LIRA_DFIB'
p2681
sS'p'
F0.66000000000000003
ssS'content_placement'
p2682
g11
(tRp2683
g2666
S'LOWEST_DEGREE'
p2684
ssS'joint_cache_rsn_placement'
p2685
g11
(tRp2686
S'network_cache'
p2687
F0.94999999999999996
sS'network_rsn'
p2688
F60.799999999999997
sg2666
S'CACHE_ALL_RSN_ALL'
p2689
sS'rsn_cache_ratio'
p2690
I64
ssS'warmup_strategy'
p2691
g11
(tRp2692
S'p'
F0.10000000000000001
sg2666
S'NDN'
p2693
ssS'topology'
p2694
g11
(tRp2695
S'ext_delay'
p2696
I5
sS'source_ratio'
p2697
F0.10000000000000001
sg2666
S'ROCKET_FUEL'
p2698
sS'asn'
p2699
I3257
ssg11
(tRp2700
S'SAT_RATE'
p2701
g11
(tRp2702
S'MEAN_CACHE_HIT'
p2703
F0.57208861111111109
sS'MEAN_SERVER_HIT'
p2704
F0.4271827777777778
sS'MEAN'
p2705
F0.99927138888888889
ssS'CACHE_HIT_RATIO'
p2706
g11
(tRp2707
S'MEAN_OFF_PATH'
p2708
F0.30381193475601775
sS'MEAN_ON_PATH'
p2709
F0.26827667635509334
sg2705
F0.57208861111111109
ssS'OVERHEAD'
p2710
g11
(tRp2711
g2705
F7.0142097222222226
ssS'LATENCY'
p2712
g11
(tRp2713
g2705
F65.610424887432629
sstp2714
a(g11
(tRp2715
S'workload'
p2716
g11
(tRp2717
S'n_contents'
p2718
I10000
sS'name'
p2719
S'STATIONARY'
p2720
sS'n_warmup'
p2721
I360000
sS'rate'
p2722
I1000
sS'n_measured'
p2723
I3600000
sS'alpha'
p2724
F0.80000000000000004
ssS'cache_policy'
p2725
g11
(tRp2726
g2719
S'LRU'
p2727
ssS'desc'
p2728
S'caching probability: 0.1'
p2729
sS'strategy'
p2730
g11
(tRp2731
S'extra_quota'
p2732
I4
sS'rsn_fresh'
p2733
F5
sg2719
S'LIRA_DFIB_OPH'
p2734
sS'p'
F0.10000000000000001
ssS'content_placement'
p2735
g11
(tRp2736
g2719
S'LOWEST_DEGREE'
p2737
ssS'joint_cache_rsn_placement'
p2738
g11
(tRp2739
S'network_cache'
p2740
F0.94999999999999996
sS'network_rsn'
p2741
F60.799999999999997
sg2719
S'CACHE_ALL_RSN_ALL'
p2742
sS'rsn_cache_ratio'
p2743
I64
ssS'warmup_strategy'
p2744
g11
(tRp2745
S'p'
F0.10000000000000001
sg2719
S'NDN'
p2746
ssS'topology'
p2747
g11
(tRp2748
S'ext_delay'
p2749
I5
sS'source_ratio'
p2750
F0.10000000000000001
sg2719
S'ROCKET_FUEL'
p2751
sS'asn'
p2752
I3257
ssg11
(tRp2753
S'SAT_RATE'
p2754
g11
(tRp2755
S'MEAN_CACHE_HIT'
p2756
F0.66029138888888894
sS'MEAN_SERVER_HIT'
p2757
F0.33946222222222222
sS'MEAN'
p2758
F0.99975361111111116
ssS'CACHE_HIT_RATIO'
p2759
g11
(tRp2760
S'MEAN_OFF_PATH'
p2761
F0.35911174129934248
sS'MEAN_ON_PATH'
p2762
F0.30117964758954646
sg2758
F0.66029138888888894
ssS'OVERHEAD'
p2763
g11
(tRp2764
g2758
F7.6500830555555552
ssS'LATENCY'
p2765
g11
(tRp2766
g2758
F54.388274485206921
sstp2767
a(g11
(tRp2768
S'workload'
p2769
g11
(tRp2770
S'n_contents'
p2771
I10000
sS'name'
p2772
S'STATIONARY'
p2773
sS'n_warmup'
p2774
I360000
sS'rate'
p2775
I1000
sS'n_measured'
p2776
I3600000
sS'alpha'
p2777
F0.80000000000000004
ssS'cache_policy'
p2778
g11
(tRp2779
g2772
S'LRU'
p2780
ssS'desc'
p2781
S'caching probability: 0.75'
p2782
sS'strategy'
p2783
g11
(tRp2784
S'extra_quota'
p2785
I3
sS'rsn_fresh'
p2786
F5
sg2772
S'LIRA_DFIB'
p2787
sS'p'
F0.75
ssS'content_placement'
p2788
g11
(tRp2789
g2772
S'LOWEST_DEGREE'
p2790
ssS'joint_cache_rsn_placement'
p2791
g11
(tRp2792
S'network_cache'
p2793
F0.94999999999999996
sS'network_rsn'
p2794
F60.799999999999997
sg2772
S'CACHE_ALL_RSN_ALL'
p2795
sS'rsn_cache_ratio'
p2796
I64
ssS'warmup_strategy'
p2797
g11
(tRp2798
S'p'
F0.10000000000000001
sg2772
S'NDN'
p2799
ssS'topology'
p2800
g11
(tRp2801
S'ext_delay'
p2802
I5
sS'source_ratio'
p2803
F0.10000000000000001
sg2772
S'ROCKET_FUEL'
p2804
sS'asn'
p2805
I3257
ssg11
(tRp2806
S'SAT_RATE'
p2807
g11
(tRp2808
S'MEAN_CACHE_HIT'
p2809
F0.57022388888888886
sS'MEAN_SERVER_HIT'
p2810
F0.41760999999999998
sS'MEAN'
p2811
F0.9878338888888889
ssS'CACHE_HIT_RATIO'
p2812
g11
(tRp2813
S'MEAN_OFF_PATH'
p2814
F0.33254465832476615
sS'MEAN_ON_PATH'
p2815
F0.23767923056412271
sg2811
F0.57022388888888886
ssS'OVERHEAD'
p2816
g11
(tRp2817
g2811
F6.6956997222222219
ssS'LATENCY'
p2818
g11
(tRp2819
g2811
F64.262445663149506
sstp2820
a(g11
(tRp2821
S'workload'
p2822
g11
(tRp2823
S'n_contents'
p2824
I10000
sS'name'
p2825
S'STATIONARY'
p2826
sS'n_warmup'
p2827
I360000
sS'rate'
p2828
I1000
sS'n_measured'
p2829
I3600000
sS'alpha'
p2830
F0.80000000000000004
ssS'cache_policy'
p2831
g11
(tRp2832
g2825
S'LRU'
p2833
ssS'desc'
p2834
S'caching probability: 0.1'
p2835
sS'strategy'
p2836
g11
(tRp2837
S'extra_quota'
p2838
I5
sS'rsn_fresh'
p2839
F5
sg2825
S'LIRA_DFIB_OPH'
p2840
sS'p'
F0.10000000000000001
ssS'content_placement'
p2841
g11
(tRp2842
g2825
S'LOWEST_DEGREE'
p2843
ssS'joint_cache_rsn_placement'
p2844
g11
(tRp2845
S'network_cache'
p2846
F0.94999999999999996
sS'network_rsn'
p2847
F60.799999999999997
sg2825
S'CACHE_ALL_RSN_ALL'
p2848
sS'rsn_cache_ratio'
p2849
I64
ssS'warmup_strategy'
p2850
g11
(tRp2851
S'p'
F0.10000000000000001
sg2825
S'NDN'
p2852
ssS'topology'
p2853
g11
(tRp2854
S'ext_delay'
p2855
I5
sS'source_ratio'
p2856
F0.10000000000000001
sg2825
S'ROCKET_FUEL'
p2857
sS'asn'
p2858
I3257
ssg11
(tRp2859
S'SAT_RATE'
p2860
g11
(tRp2861
S'MEAN_CACHE_HIT'
p2862
F0.66100916666666665
sS'MEAN_SERVER_HIT'
p2863
F0.33887333333333336
sS'MEAN'
p2864
F0.99988250000000001
ssS'CACHE_HIT_RATIO'
p2865
g11
(tRp2866
S'MEAN_OFF_PATH'
p2867
F0.3576622309195357
sS'MEAN_ON_PATH'
p2868
F0.30334693574713095
sg2864
F0.66100916666666665
ssS'OVERHEAD'
p2869
g11
(tRp2870
g2864
F7.6730352777777782
ssS'LATENCY'
p2871
g11
(tRp2872
g2864
F54.359769670913352
sstp2873
a(g11
(tRp2874
S'workload'
p2875
g11
(tRp2876
S'n_contents'
p2877
I10000
sS'name'
p2878
S'STATIONARY'
p2879
sS'n_warmup'
p2880
I360000
sS'rate'
p2881
I1000
sS'n_measured'
p2882
I3600000
sS'alpha'
p2883
F0.80000000000000004
ssS'cache_policy'
p2884
g11
(tRp2885
g2878
S'LRU'
p2886
ssS'desc'
p2887
S'caching probability: 0.75'
p2888
sS'strategy'
p2889
g11
(tRp2890
S'extra_quota'
p2891
I5
sS'rsn_fresh'
p2892
F5
sg2878
S'LIRA_DFIB'
p2893
sS'p'
F0.75
ssS'content_placement'
p2894
g11
(tRp2895
g2878
S'LOWEST_DEGREE'
p2896
ssS'joint_cache_rsn_placement'
p2897
g11
(tRp2898
S'network_cache'
p2899
F0.94999999999999996
sS'network_rsn'
p2900
F60.799999999999997
sg2878
S'CACHE_ALL_RSN_ALL'
p2901
sS'rsn_cache_ratio'
p2902
I64
ssS'warmup_strategy'
p2903
g11
(tRp2904
S'p'
F0.10000000000000001
sg2878
S'NDN'
p2905
ssS'topology'
p2906
g11
(tRp2907
S'ext_delay'
p2908
I5
sS'source_ratio'
p2909
F0.10000000000000001
sg2878
S'ROCKET_FUEL'
p2910
sS'asn'
p2911
I3257
ssg11
(tRp2912
S'SAT_RATE'
p2913
g11
(tRp2914
S'MEAN_CACHE_HIT'
p2915
F0.5685769444444444
sS'MEAN_SERVER_HIT'
p2916
F0.43060277777777778
sS'MEAN'
p2917
F0.99917972222222218
ssS'CACHE_HIT_RATIO'
p2918
g11
(tRp2919
S'MEAN_OFF_PATH'
p2920
F0.30291043695862685
sS'MEAN_ON_PATH'
p2921
F0.26566650748581755
sg2917
F0.5685769444444444
ssS'OVERHEAD'
p2922
g11
(tRp2923
g2917
F7.0419841666666665
ssS'LATENCY'
p2924
g11
(tRp2925
g2917
F66.111046093704687
sstp2926
a(g11
(tRp2927
S'workload'
p2928
g11
(tRp2929
S'n_contents'
p2930
I10000
sS'name'
p2931
S'STATIONARY'
p2932
sS'n_warmup'
p2933
I360000
sS'rate'
p2934
I1000
sS'n_measured'
p2935
I3600000
sS'alpha'
p2936
F0.80000000000000004
ssS'cache_policy'
p2937
g11
(tRp2938
g2931
S'LRU'
p2939
ssS'desc'
p2940
S'caching probability: 0.75'
p2941
sS'strategy'
p2942
g11
(tRp2943
S'extra_quota'
p2944
I4
sS'rsn_fresh'
p2945
F5
sg2931
S'LIRA_DFIB'
p2946
sS'p'
F0.75
ssS'content_placement'
p2947
g11
(tRp2948
g2931
S'LOWEST_DEGREE'
p2949
ssS'joint_cache_rsn_placement'
p2950
g11
(tRp2951
S'network_cache'
p2952
F0.94999999999999996
sS'network_rsn'
p2953
F60.799999999999997
sg2931
S'CACHE_ALL_RSN_ALL'
p2954
sS'rsn_cache_ratio'
p2955
I64
ssS'warmup_strategy'
p2956
g11
(tRp2957
S'p'
F0.10000000000000001
sg2931
S'NDN'
p2958
ssS'topology'
p2959
g11
(tRp2960
S'ext_delay'
p2961
I5
sS'source_ratio'
p2962
F0.10000000000000001
sg2931
S'ROCKET_FUEL'
p2963
sS'asn'
p2964
I3257
ssg11
(tRp2965
S'SAT_RATE'
p2966
g11
(tRp2967
S'MEAN_CACHE_HIT'
p2968
F0.57057500000000005
sS'MEAN_SERVER_HIT'
p2969
F0.42625305555555554
sS'MEAN'
p2970
F0.99682805555555554
ssS'CACHE_HIT_RATIO'
p2971
g11
(tRp2972
S'MEAN_OFF_PATH'
p2973
F0.31365514628906943
sS'MEAN_ON_PATH'
p2974
F0.25691985371093062
sg2970
F0.57057500000000005
ssS'OVERHEAD'
p2975
g11
(tRp2976
g2970
F6.9361322222222226
ssS'LATENCY'
p2977
g11
(tRp2978
g2970
F65.527858919107047
sstp2979
a(g11
(tRp2980
S'workload'
p2981
g11
(tRp2982
S'n_contents'
p2983
I10000
sS'name'
p2984
S'STATIONARY'
p2985
sS'n_warmup'
p2986
I360000
sS'rate'
p2987
I1000
sS'n_measured'
p2988
I3600000
sS'alpha'
p2989
F0.80000000000000004
ssS'cache_policy'
p2990
g11
(tRp2991
g2984
S'LRU'
p2992
ssS'desc'
p2993
S'caching probability: 1.0'
p2994
sS'strategy'
p2995
g11
(tRp2996
S'extra_quota'
p2997
I2
sS'rsn_fresh'
p2998
F5
sg2984
S'LIRA_DFIB'
p2999
sS'p'
F1
ssS'content_placement'
p3000
g11
(tRp3001
g2984
S'LOWEST_DEGREE'
p3002
ssS'joint_cache_rsn_placement'
p3003
g11
(tRp3004
S'network_cache'
p3005
F0.94999999999999996
sS'network_rsn'
p3006
F60.799999999999997
sg2984
S'CACHE_ALL_RSN_ALL'
p3007
sS'rsn_cache_ratio'
p3008
I64
ssS'warmup_strategy'
p3009
g11
(tRp3010
S'p'
F0.10000000000000001
sg2984
S'NDN'
p3011
ssS'topology'
p3012
g11
(tRp3013
S'ext_delay'
p3014
I5
sS'source_ratio'
p3015
F0.10000000000000001
sg2984
S'ROCKET_FUEL'
p3016
sS'asn'
p3017
I3257
ssg11
(tRp3018
S'SAT_RATE'
p3019
g11
(tRp3020
S'MEAN_CACHE_HIT'
p3021
F0.55405472222222218
sS'MEAN_SERVER_HIT'
p3022
F0.40162222222222221
sS'MEAN'
p3023
F0.9556769444444444
ssS'CACHE_HIT_RATIO'
p3024
g11
(tRp3025
S'MEAN_OFF_PATH'
p3026
F0.35764655407679469
sS'MEAN_ON_PATH'
p3027
F0.1964081681454275
sg3023
F0.55405472222222218
ssS'OVERHEAD'
p3028
g11
(tRp3029
g3023
F6.2483224999999996
ssS'LATENCY'
p3030
g11
(tRp3031
g3023
F61.833707937368537
sstp3032
a(g11
(tRp3033
S'workload'
p3034
g11
(tRp3035
S'n_contents'
p3036
I10000
sS'name'
p3037
S'STATIONARY'
p3038
sS'n_warmup'
p3039
I360000
sS'rate'
p3040
I1000
sS'n_measured'
p3041
I3600000
sS'alpha'
p3042
F0.80000000000000004
ssS'cache_policy'
p3043
g11
(tRp3044
g3037
S'LRU'
p3045
ssS'desc'
p3046
S'caching probability: 1.0'
p3047
sS'strategy'
p3048
g11
(tRp3049
S'extra_quota'
p3050
I3
sS'rsn_fresh'
p3051
F5
sg3037
S'LIRA_DFIB'
p3052
sS'p'
F1
ssS'content_placement'
p3053
g11
(tRp3054
g3037
S'LOWEST_DEGREE'
p3055
ssS'joint_cache_rsn_placement'
p3056
g11
(tRp3057
S'network_cache'
p3058
F0.94999999999999996
sS'network_rsn'
p3059
F60.799999999999997
sg3037
S'CACHE_ALL_RSN_ALL'
p3060
sS'rsn_cache_ratio'
p3061
I64
ssS'warmup_strategy'
p3062
g11
(tRp3063
S'p'
F0.10000000000000001
sg3037
S'NDN'
p3064
ssS'topology'
p3065
g11
(tRp3066
S'ext_delay'
p3067
I5
sS'source_ratio'
p3068
F0.10000000000000001
sg3037
S'ROCKET_FUEL'
p3069
sS'asn'
p3070
I3257
ssg11
(tRp3071
S'SAT_RATE'
p3072
g11
(tRp3073
S'MEAN_CACHE_HIT'
p3074
F0.55899333333333334
sS'MEAN_SERVER_HIT'
p3075
F0.42677166666666666
sS'MEAN'
p3076
F0.985765
ssS'CACHE_HIT_RATIO'
p3077
g11
(tRp3078
S'MEAN_OFF_PATH'
p3079
F0.32832887749796313
sS'MEAN_ON_PATH'
p3080
F0.23066445583537021
sg3076
F0.55899333333333334
ssS'OVERHEAD'
p3081
g11
(tRp3082
g3076
F6.7305297222222222
ssS'LATENCY'
p3083
g11
(tRp3084
g3076
F65.555948348141214
sstp3085
a(g11
(tRp3086
S'workload'
p3087
g11
(tRp3088
S'n_contents'
p3089
I10000
sS'name'
p3090
S'STATIONARY'
p3091
sS'n_warmup'
p3092
I360000
sS'rate'
p3093
I1000
sS'n_measured'
p3094
I3600000
sS'alpha'
p3095
F0.80000000000000004
ssS'cache_policy'
p3096
g11
(tRp3097
g3090
S'LRU'
p3098
ssS'desc'
p3099
S'caching probability: 1.0'
p3100
sS'strategy'
p3101
g11
(tRp3102
S'extra_quota'
p3103
I4
sS'rsn_fresh'
p3104
F5
sg3090
S'LIRA_DFIB'
p3105
sS'p'
F1
ssS'content_placement'
p3106
g11
(tRp3107
g3090
S'LOWEST_DEGREE'
p3108
ssS'joint_cache_rsn_placement'
p3109
g11
(tRp3110
S'network_cache'
p3111
F0.94999999999999996
sS'network_rsn'
p3112
F60.799999999999997
sg3090
S'CACHE_ALL_RSN_ALL'
p3113
sS'rsn_cache_ratio'
p3114
I64
ssS'warmup_strategy'
p3115
g11
(tRp3116
S'p'
F0.10000000000000001
sg3090
S'NDN'
p3117
ssS'topology'
p3118
g11
(tRp3119
S'ext_delay'
p3120
I5
sS'source_ratio'
p3121
F0.10000000000000001
sg3090
S'ROCKET_FUEL'
p3122
sS'asn'
p3123
I3257
ssg11
(tRp3124
S'SAT_RATE'
p3125
g11
(tRp3126
S'MEAN_CACHE_HIT'
p3127
F0.5597333333333333
sS'MEAN_SERVER_HIT'
p3128
F0.43639833333333333
sS'MEAN'
p3129
F0.99613166666666664
ssS'CACHE_HIT_RATIO'
p3130
g11
(tRp3131
S'MEAN_OFF_PATH'
p3132
F0.30975777009365751
sS'MEAN_ON_PATH'
p3133
F0.24997556323967579
sg3129
F0.5597333333333333
ssS'OVERHEAD'
p3134
g11
(tRp3135
g3129
F6.9772136111111109
ssS'LATENCY'
p3136
g11
(tRp3137
g3129
F66.922522198211638
sstp3138
a(g11
(tRp3139
S'workload'
p3140
g11
(tRp3141
S'n_contents'
p3142
I10000
sS'name'
p3143
S'STATIONARY'
p3144
sS'n_warmup'
p3145
I360000
sS'rate'
p3146
I1000
sS'n_measured'
p3147
I3600000
sS'alpha'
p3148
F0.80000000000000004
ssS'cache_policy'
p3149
g11
(tRp3150
g3143
S'LRU'
p3151
ssS'desc'
p3152
S'caching probability: 1.0'
p3153
sS'strategy'
p3154
g11
(tRp3155
S'extra_quota'
p3156
I5
sS'rsn_fresh'
p3157
F5
sg3143
S'LIRA_DFIB'
p3158
sS'p'
F1
ssS'content_placement'
p3159
g11
(tRp3160
g3143
S'LOWEST_DEGREE'
p3161
ssS'joint_cache_rsn_placement'
p3162
g11
(tRp3163
S'network_cache'
p3164
F0.94999999999999996
sS'network_rsn'
p3165
F60.799999999999997
sg3143
S'CACHE_ALL_RSN_ALL'
p3166
sS'rsn_cache_ratio'
p3167
I64
ssS'warmup_strategy'
p3168
g11
(tRp3169
S'p'
F0.10000000000000001
sg3143
S'NDN'
p3170
ssS'topology'
p3171
g11
(tRp3172
S'ext_delay'
p3173
I5
sS'source_ratio'
p3174
F0.10000000000000001
sg3143
S'ROCKET_FUEL'
p3175
sS'asn'
p3176
I3257
ssg11
(tRp3177
S'SAT_RATE'
p3178
g11
(tRp3179
S'MEAN_CACHE_HIT'
p3180
F0.55858527777777778
sS'MEAN_SERVER_HIT'
p3181
F0.44046138888888892
sS'MEAN'
p3182
F0.99904666666666664
ssS'CACHE_HIT_RATIO'
p3183
g11
(tRp3184
S'MEAN_OFF_PATH'
p3185
F0.29948716967929445
sS'MEAN_ON_PATH'
p3186
F0.25909810809848333
sg3182
F0.55858527777777778
ssS'OVERHEAD'
p3187
g11
(tRp3188
g3182
F7.0959302777777777
ssS'LATENCY'
p3189
g11
(tRp3190
g3182
F67.481747477377439
sstp3191
a(g11
(tRp3192
S'workload'
p3193
g11
(tRp3194
S'n_contents'
p3195
I10000
sS'name'
p3196
S'STATIONARY'
p3197
sS'n_warmup'
p3198
I360000
sS'rate'
p3199
I1000
sS'n_measured'
p3200
I3600000
sS'alpha'
p3201
F0.80000000000000004
ssS'cache_policy'
p3202
g11
(tRp3203
g3196
S'LRU'
p3204
ssS'desc'
p3205
S'caching probability: 0.25'
p3206
sS'strategy'
p3207
g11
(tRp3208
S'extra_quota'
p3209
I2
sS'rsn_fresh'
p3210
F5
sg3196
S'LIRA_DFIB_OPH'
p3211
sS'p'
F0.25
ssS'content_placement'
p3212
g11
(tRp3213
g3196
S'LOWEST_DEGREE'
p3214
ssS'joint_cache_rsn_placement'
p3215
g11
(tRp3216
S'network_cache'
p3217
F0.94999999999999996
sS'network_rsn'
p3218
F60.799999999999997
sg3196
S'CACHE_ALL_RSN_ALL'
p3219
sS'rsn_cache_ratio'
p3220
I64
ssS'warmup_strategy'
p3221
g11
(tRp3222
S'p'
F0.10000000000000001
sg3196
S'NDN'
p3223
ssS'topology'
p3224
g11
(tRp3225
S'ext_delay'
p3226
I5
sS'source_ratio'
p3227
F0.10000000000000001
sg3196
S'ROCKET_FUEL'
p3228
sS'asn'
p3229
I3257
ssg11
(tRp3230
S'SAT_RATE'
p3231
g11
(tRp3232
S'MEAN_CACHE_HIT'
p3233
F0.69585305555555554
sS'MEAN_SERVER_HIT'
p3234
F0.30217694444444443
sS'MEAN'
p3235
F0.99802999999999997
ssS'CACHE_HIT_RATIO'
p3236
g11
(tRp3237
S'MEAN_OFF_PATH'
p3238
F0.41327970497504379
sS'MEAN_ON_PATH'
p3239
F0.28257335058051175
sg3235
F0.69585305555555554
ssS'OVERHEAD'
p3240
g11
(tRp3241
g3235
F7.7676172222222224
ssS'LATENCY'
p3242
g11
(tRp3243
g3235
F50.544690378597537
sstp3244
a(g11
(tRp3245
S'workload'
p3246
g11
(tRp3247
S'n_contents'
p3248
I10000
sS'name'
p3249
S'STATIONARY'
p3250
sS'n_warmup'
p3251
I360000
sS'rate'
p3252
I1000
sS'n_measured'
p3253
I3600000
sS'alpha'
p3254
F0.80000000000000004
ssS'cache_policy'
p3255
g11
(tRp3256
g3249
S'LRU'
p3257
ssS'desc'
p3258
S'caching probability: 0.25'
p3259
sS'strategy'
p3260
g11
(tRp3261
S'extra_quota'
p3262
I3
sS'rsn_fresh'
p3263
F5
sg3249
S'LIRA_DFIB_OPH'
p3264
sS'p'
F0.25
ssS'content_placement'
p3265
g11
(tRp3266
g3249
S'LOWEST_DEGREE'
p3267
ssS'joint_cache_rsn_placement'
p3268
g11
(tRp3269
S'network_cache'
p3270
F0.94999999999999996
sS'network_rsn'
p3271
F60.799999999999997
sg3249
S'CACHE_ALL_RSN_ALL'
p3272
sS'rsn_cache_ratio'
p3273
I64
ssS'warmup_strategy'
p3274
g11
(tRp3275
S'p'
F0.10000000000000001
sg3249
S'NDN'
p3276
ssS'topology'
p3277
g11
(tRp3278
S'ext_delay'
p3279
I5
sS'source_ratio'
p3280
F0.10000000000000001
sg3249
S'ROCKET_FUEL'
p3281
sS'asn'
p3282
I3257
ssg11
(tRp3283
S'SAT_RATE'
p3284
g11
(tRp3285
S'MEAN_CACHE_HIT'
p3286
F0.6976188888888889
sS'MEAN_SERVER_HIT'
p3287
F0.30186694444444445
sS'MEAN'
p3288
F0.9994858333333333
ssS'CACHE_HIT_RATIO'
p3289
g11
(tRp3290
S'MEAN_OFF_PATH'
p3291
F0.3981963386052535
sS'MEAN_ON_PATH'
p3292
F0.2994225502836354
sg3288
F0.6976188888888889
ssS'OVERHEAD'
p3293
g11
(tRp3294
g3288
F8.0014858333333336
ssS'LATENCY'
p3295
g11
(tRp3296
g3288
F50.372725162101638
sstp3297
a(g11
(tRp3298
S'workload'
p3299
g11
(tRp3300
S'n_contents'
p3301
I10000
sS'name'
p3302
S'STATIONARY'
p3303
sS'n_warmup'
p3304
I360000
sS'rate'
p3305
I1000
sS'n_measured'
p3306
I3600000
sS'alpha'
p3307
F0.80000000000000004
ssS'cache_policy'
p3308
g11
(tRp3309
g3302
S'LRU'
p3310
ssS'desc'
p3311
S'caching probability: 0.25'
p3312
sS'strategy'
p3313
g11
(tRp3314
S'extra_quota'
p3315
I4
sS'rsn_fresh'
p3316
F5
sg3302
S'LIRA_DFIB_OPH'
p3317
sS'p'
F0.25
ssS'content_placement'
p3318
g11
(tRp3319
g3302
S'LOWEST_DEGREE'
p3320
ssS'joint_cache_rsn_placement'
p3321
g11
(tRp3322
S'network_cache'
p3323
F0.94999999999999996
sS'network_rsn'
p3324
F60.799999999999997
sg3302
S'CACHE_ALL_RSN_ALL'
p3325
sS'rsn_cache_ratio'
p3326
I64
ssS'warmup_strategy'
p3327
g11
(tRp3328
S'p'
F0.10000000000000001
sg3302
S'NDN'
p3329
ssS'topology'
p3330
g11
(tRp3331
S'ext_delay'
p3332
I5
sS'source_ratio'
p3333
F0.10000000000000001
sg3302
S'ROCKET_FUEL'
p3334
sS'asn'
p3335
I3257
ssg11
(tRp3336
S'SAT_RATE'
p3337
g11
(tRp3338
S'MEAN_CACHE_HIT'
p3339
F0.69853888888888893
sS'MEAN_SERVER_HIT'
p3340
F0.30123361111111113
sS'MEAN'
p3341
F0.99977249999999995
ssS'CACHE_HIT_RATIO'
p3342
g11
(tRp3343
S'MEAN_OFF_PATH'
p3344
F0.39083956676145054
sS'MEAN_ON_PATH'
p3345
F0.30769932212743839
sg3341
F0.69853888888888893
ssS'OVERHEAD'
p3346
g11
(tRp3347
g3341
F8.099133055555555
ssS'LATENCY'
p3348
g11
(tRp3349
g3341
F50.366206498579828
sstp3350
a(g11
(tRp3351
S'workload'
p3352
g11
(tRp3353
S'n_contents'
p3354
I10000
sS'name'
p3355
S'STATIONARY'
p3356
sS'n_warmup'
p3357
I360000
sS'rate'
p3358
I1000
sS'n_measured'
p3359
I3600000
sS'alpha'
p3360
F0.80000000000000004
ssS'cache_policy'
p3361
g11
(tRp3362
g3355
S'LRU'
p3363
ssS'desc'
p3364
S'caching probability: 0.33'
p3365
sS'strategy'
p3366
g11
(tRp3367
S'extra_quota'
p3368
I4
sS'rsn_fresh'
p3369
F5
sg3355
S'LIRA_DFIB_OPH'
p3370
sS'p'
F0.33000000000000002
ssS'content_placement'
p3371
g11
(tRp3372
g3355
S'LOWEST_DEGREE'
p3373
ssS'joint_cache_rsn_placement'
p3374
g11
(tRp3375
S'network_cache'
p3376
F0.94999999999999996
sS'network_rsn'
p3377
F60.799999999999997
sg3355
S'CACHE_ALL_RSN_ALL'
p3378
sS'rsn_cache_ratio'
p3379
I64
ssS'warmup_strategy'
p3380
g11
(tRp3381
S'p'
F0.10000000000000001
sg3355
S'NDN'
p3382
ssS'topology'
p3383
g11
(tRp3384
S'ext_delay'
p3385
I5
sS'source_ratio'
p3386
F0.10000000000000001
sg3355
S'ROCKET_FUEL'
p3387
sS'asn'
p3388
I3257
ssg11
(tRp3389
S'SAT_RATE'
p3390
g11
(tRp3391
S'MEAN_CACHE_HIT'
p3392
F0.70870138888888889
sS'MEAN_SERVER_HIT'
p3393
F0.29106833333333332
sS'MEAN'
p3394
F0.99976972222222227
ssS'CACHE_HIT_RATIO'
p3395
g11
(tRp3396
S'MEAN_OFF_PATH'
p3397
F0.39999970324725403
sS'MEAN_ON_PATH'
p3398
F0.30870168564163486
sg3394
F0.70870138888888889
ssS'OVERHEAD'
p3399
g11
(tRp3400
g3394
F8.2080880555555549
ssS'LATENCY'
p3401
g11
(tRp3402
g3394
F49.309797788237923
sstp3403
a(g11
(tRp3404
S'workload'
p3405
g11
(tRp3406
S'n_contents'
p3407
I10000
sS'name'
p3408
S'STATIONARY'
p3409
sS'n_warmup'
p3410
I360000
sS'rate'
p3411
I1000
sS'n_measured'
p3412
I3600000
sS'alpha'
p3413
F0.80000000000000004
ssS'cache_policy'
p3414
g11
(tRp3415
g3408
S'LRU'
p3416
ssS'desc'
p3417
S'caching probability: 0.25'
p3418
sS'strategy'
p3419
g11
(tRp3420
S'extra_quota'
p3421
I5
sS'rsn_fresh'
p3422
F5
sg3408
S'LIRA_DFIB_OPH'
p3423
sS'p'
F0.25
ssS'content_placement'
p3424
g11
(tRp3425
g3408
S'LOWEST_DEGREE'
p3426
ssS'joint_cache_rsn_placement'
p3427
g11
(tRp3428
S'network_cache'
p3429
F0.94999999999999996
sS'network_rsn'
p3430
F60.799999999999997
sg3408
S'CACHE_ALL_RSN_ALL'
p3431
sS'rsn_cache_ratio'
p3432
I64
ssS'warmup_strategy'
p3433
g11
(tRp3434
S'p'
F0.10000000000000001
sg3408
S'NDN'
p3435
ssS'topology'
p3436
g11
(tRp3437
S'ext_delay'
p3438
I5
sS'source_ratio'
p3439
F0.10000000000000001
sg3408
S'ROCKET_FUEL'
p3440
sS'asn'
p3441
I3257
ssg11
(tRp3442
S'SAT_RATE'
p3443
g11
(tRp3444
S'MEAN_CACHE_HIT'
p3445
F0.69851722222222223
sS'MEAN_SERVER_HIT'
p3446
F0.30135944444444446
sS'MEAN'
p3447
F0.99987666666666664
ssS'CACHE_HIT_RATIO'
p3448
g11
(tRp3449
S'MEAN_OFF_PATH'
p3450
F0.38886859036863858
sS'MEAN_ON_PATH'
p3451
F0.30964863185358366
sg3447
F0.69851722222222223
ssS'OVERHEAD'
p3452
g11
(tRp3453
g3447
F8.1182002777777775
ssS'LATENCY'
p3454
g11
(tRp3455
g3447
F50.485133903722485
sstp3456
a(g11
(tRp3457
S'workload'
p3458
g11
(tRp3459
S'n_contents'
p3460
I10000
sS'name'
p3461
S'STATIONARY'
p3462
sS'n_warmup'
p3463
I360000
sS'rate'
p3464
I1000
sS'n_measured'
p3465
I3600000
sS'alpha'
p3466
F0.80000000000000004
ssS'cache_policy'
p3467
g11
(tRp3468
g3461
S'LRU'
p3469
ssS'desc'
p3470
S'caching probability: 0.33'
p3471
sS'strategy'
p3472
g11
(tRp3473
S'extra_quota'
p3474
I3
sS'rsn_fresh'
p3475
F5
sg3461
S'LIRA_DFIB_OPH'
p3476
sS'p'
F0.33000000000000002
ssS'content_placement'
p3477
g11
(tRp3478
g3461
S'LOWEST_DEGREE'
p3479
ssS'joint_cache_rsn_placement'
p3480
g11
(tRp3481
S'network_cache'
p3482
F0.94999999999999996
sS'network_rsn'
p3483
F60.799999999999997
sg3461
S'CACHE_ALL_RSN_ALL'
p3484
sS'rsn_cache_ratio'
p3485
I64
ssS'warmup_strategy'
p3486
g11
(tRp3487
S'p'
F0.10000000000000001
sg3461
S'NDN'
p3488
ssS'topology'
p3489
g11
(tRp3490
S'ext_delay'
p3491
I5
sS'source_ratio'
p3492
F0.10000000000000001
sg3461
S'ROCKET_FUEL'
p3493
sS'asn'
p3494
I3257
ssg11
(tRp3495
S'SAT_RATE'
p3496
g11
(tRp3497
S'MEAN_CACHE_HIT'
p3498
F0.70860972222222218
sS'MEAN_SERVER_HIT'
p3499
F0.29088722222222224
sS'MEAN'
p3500
F0.99949694444444448
ssS'CACHE_HIT_RATIO'
p3501
g11
(tRp3502
S'MEAN_OFF_PATH'
p3503
F0.40583257900446706
sS'MEAN_ON_PATH'
p3504
F0.30277714321775512
sg3500
F0.70860972222222218
ssS'OVERHEAD'
p3505
g11
(tRp3506
g3500
F8.1186397222222215
ssS'LATENCY'
p3507
g11
(tRp3508
g3500
F49.314529656361842
sstp3509
a(g11
(tRp3510
S'workload'
p3511
g11
(tRp3512
S'n_contents'
p3513
I10000
sS'name'
p3514
S'STATIONARY'
p3515
sS'n_warmup'
p3516
I360000
sS'rate'
p3517
I1000
sS'n_measured'
p3518
I3600000
sS'alpha'
p3519
F0.80000000000000004
ssS'cache_policy'
p3520
g11
(tRp3521
g3514
S'LRU'
p3522
ssS'desc'
p3523
S'caching probability: 0.33'
p3524
sS'strategy'
p3525
g11
(tRp3526
S'extra_quota'
p3527
I2
sS'rsn_fresh'
p3528
F5
sg3514
S'LIRA_DFIB_OPH'
p3529
sS'p'
F0.33000000000000002
ssS'content_placement'
p3530
g11
(tRp3531
g3514
S'LOWEST_DEGREE'
p3532
ssS'joint_cache_rsn_placement'
p3533
g11
(tRp3534
S'network_cache'
p3535
F0.94999999999999996
sS'network_rsn'
p3536
F60.799999999999997
sg3514
S'CACHE_ALL_RSN_ALL'
p3537
sS'rsn_cache_ratio'
p3538
I64
ssS'warmup_strategy'
p3539
g11
(tRp3540
S'p'
F0.10000000000000001
sg3514
S'NDN'
p3541
ssS'topology'
p3542
g11
(tRp3543
S'ext_delay'
p3544
I5
sS'source_ratio'
p3545
F0.10000000000000001
sg3514
S'ROCKET_FUEL'
p3546
sS'asn'
p3547
I3257
ssg11
(tRp3548
S'SAT_RATE'
p3549
g11
(tRp3550
S'MEAN_CACHE_HIT'
p3551
F0.70700166666666664
sS'MEAN_SERVER_HIT'
p3552
F0.29119027777777778
sS'MEAN'
p3553
F0.99819194444444448
ssS'CACHE_HIT_RATIO'
p3554
g11
(tRp3555
S'MEAN_OFF_PATH'
p3556
F0.42497556250535262
sS'MEAN_ON_PATH'
p3557
F0.28202610416131402
sg3553
F0.70700166666666664
ssS'OVERHEAD'
p3558
g11
(tRp3559
g3553
F7.9469122222222222
ssS'LATENCY'
p3560
g11
(tRp3561
g3553
F49.426329649090533
sstp3562
a(g11
(tRp3563
S'workload'
p3564
g11
(tRp3565
S'n_contents'
p3566
I10000
sS'name'
p3567
S'STATIONARY'
p3568
sS'n_warmup'
p3569
I360000
sS'rate'
p3570
I1000
sS'n_measured'
p3571
I3600000
sS'alpha'
p3572
F0.80000000000000004
ssS'cache_policy'
p3573
g11
(tRp3574
g3567
S'LRU'
p3575
ssS'desc'
p3576
S'caching probability: 0.33'
p3577
sS'strategy'
p3578
g11
(tRp3579
S'extra_quota'
p3580
I5
sS'rsn_fresh'
p3581
F5
sg3567
S'LIRA_DFIB_OPH'
p3582
sS'p'
F0.33000000000000002
ssS'content_placement'
p3583
g11
(tRp3584
g3567
S'LOWEST_DEGREE'
p3585
ssS'joint_cache_rsn_placement'
p3586
g11
(tRp3587
S'network_cache'
p3588
F0.94999999999999996
sS'network_rsn'
p3589
F60.799999999999997
sg3567
S'CACHE_ALL_RSN_ALL'
p3590
sS'rsn_cache_ratio'
p3591
I64
ssS'warmup_strategy'
p3592
g11
(tRp3593
S'p'
F0.10000000000000001
sg3567
S'NDN'
p3594
ssS'topology'
p3595
g11
(tRp3596
S'ext_delay'
p3597
I5
sS'source_ratio'
p3598
F0.10000000000000001
sg3567
S'ROCKET_FUEL'
p3599
sS'asn'
p3600
I3257
ssg11
(tRp3601
S'SAT_RATE'
p3602
g11
(tRp3603
S'MEAN_CACHE_HIT'
p3604
F0.70831500000000003
sS'MEAN_SERVER_HIT'
p3605
F0.29157250000000001
sS'MEAN'
p3606
F0.99988750000000004
ssS'CACHE_HIT_RATIO'
p3607
g11
(tRp3608
S'MEAN_OFF_PATH'
p3609
F0.39552997214673813
sS'MEAN_ON_PATH'
p3610
F0.3127850278532619
sg3606
F0.70831500000000003
ssS'OVERHEAD'
p3611
g11
(tRp3612
g3606
F8.213401666666666
ssS'LATENCY'
p3613
g11
(tRp3614
g3606
F49.44246308193015
sstp3615
a(g11
(tRp3616
S'workload'
p3617
g11
(tRp3618
S'n_contents'
p3619
I10000
sS'name'
p3620
S'STATIONARY'
p3621
sS'n_warmup'
p3622
I360000
sS'rate'
p3623
I1000
sS'n_measured'
p3624
I3600000
sS'alpha'
p3625
F0.80000000000000004
ssS'cache_policy'
p3626
g11
(tRp3627
g3620
S'LRU'
p3628
ssS'desc'
p3629
S'caching probability: 0.5'
p3630
sS'strategy'
p3631
g11
(tRp3632
S'extra_quota'
p3633
I5
sS'rsn_fresh'
p3634
F5
sg3620
S'LIRA_DFIB_OPH'
p3635
sS'p'
F0.5
ssS'content_placement'
p3636
g11
(tRp3637
g3620
S'LOWEST_DEGREE'
p3638
ssS'joint_cache_rsn_placement'
p3639
g11
(tRp3640
S'network_cache'
p3641
F0.94999999999999996
sS'network_rsn'
p3642
F60.799999999999997
sg3620
S'CACHE_ALL_RSN_ALL'
p3643
sS'rsn_cache_ratio'
p3644
I64
ssS'warmup_strategy'
p3645
g11
(tRp3646
S'p'
F0.10000000000000001
sg3620
S'NDN'
p3647
ssS'topology'
p3648
g11
(tRp3649
S'ext_delay'
p3650
I5
sS'source_ratio'
p3651
F0.10000000000000001
sg3620
S'ROCKET_FUEL'
p3652
sS'asn'
p3653
I3257
ssg11
(tRp3654
S'SAT_RATE'
p3655
g11
(tRp3656
S'MEAN_CACHE_HIT'
p3657
F0.72414666666666672
sS'MEAN_SERVER_HIT'
p3658
F0.27572888888888891
sS'MEAN'
p3659
F0.99987555555555552
ssS'CACHE_HIT_RATIO'
p3660
g11
(tRp3661
S'MEAN_OFF_PATH'
p3662
F0.40736107115337072
sS'MEAN_ON_PATH'
p3663
F0.31678559551329599
sg3659
F0.72414666666666672
ssS'OVERHEAD'
p3664
g11
(tRp3665
g3659
F8.3853552777777782
ssS'LATENCY'
p3666
g11
(tRp3667
g3659
F47.905864993546039
sstp3668
a(g11
(tRp3669
S'workload'
p3670
g11
(tRp3671
S'n_contents'
p3672
I10000
sS'name'
p3673
S'STATIONARY'
p3674
sS'n_warmup'
p3675
I360000
sS'rate'
p3676
I1000
sS'n_measured'
p3677
I3600000
sS'alpha'
p3678
F0.80000000000000004
ssS'cache_policy'
p3679
g11
(tRp3680
g3673
S'LRU'
p3681
ssS'desc'
p3682
S'caching probability: 0.5'
p3683
sS'strategy'
p3684
g11
(tRp3685
S'extra_quota'
p3686
I2
sS'rsn_fresh'
p3687
F5
sg3673
S'LIRA_DFIB_OPH'
p3688
sS'p'
F0.5
ssS'content_placement'
p3689
g11
(tRp3690
g3673
S'LOWEST_DEGREE'
p3691
ssS'joint_cache_rsn_placement'
p3692
g11
(tRp3693
S'network_cache'
p3694
F0.94999999999999996
sS'network_rsn'
p3695
F60.799999999999997
sg3673
S'CACHE_ALL_RSN_ALL'
p3696
sS'rsn_cache_ratio'
p3697
I64
ssS'warmup_strategy'
p3698
g11
(tRp3699
S'p'
F0.10000000000000001
sg3673
S'NDN'
p3700
ssS'topology'
p3701
g11
(tRp3702
S'ext_delay'
p3703
I5
sS'source_ratio'
p3704
F0.10000000000000001
sg3673
S'ROCKET_FUEL'
p3705
sS'asn'
p3706
I3257
ssg11
(tRp3707
S'SAT_RATE'
p3708
g11
(tRp3709
S'MEAN_CACHE_HIT'
p3710
F0.72217666666666669
sS'MEAN_SERVER_HIT'
p3711
F0.27623416666666667
sS'MEAN'
p3712
F0.99841083333333336
ssS'CACHE_HIT_RATIO'
p3713
g11
(tRp3714
S'MEAN_OFF_PATH'
p3715
F0.435352021513496
sS'MEAN_ON_PATH'
p3716
F0.28682464515317069
sg3712
F0.72217666666666669
ssS'OVERHEAD'
p3717
g11
(tRp3718
g3712
F8.0752408333333339
ssS'LATENCY'
p3719
g11
(tRp3720
g3712
F47.907841818163632
sstp3721
a(g11
(tRp3722
S'workload'
p3723
g11
(tRp3724
S'n_contents'
p3725
I10000
sS'name'
p3726
S'STATIONARY'
p3727
sS'n_warmup'
p3728
I360000
sS'rate'
p3729
I1000
sS'n_measured'
p3730
I3600000
sS'alpha'
p3731
F0.80000000000000004
ssS'cache_policy'
p3732
g11
(tRp3733
g3726
S'LRU'
p3734
ssS'desc'
p3735
S'caching probability: 0.5'
p3736
sS'strategy'
p3737
g11
(tRp3738
S'extra_quota'
p3739
I3
sS'rsn_fresh'
p3740
F5
sg3726
S'LIRA_DFIB_OPH'
p3741
sS'p'
F0.5
ssS'content_placement'
p3742
g11
(tRp3743
g3726
S'LOWEST_DEGREE'
p3744
ssS'joint_cache_rsn_placement'
p3745
g11
(tRp3746
S'network_cache'
p3747
F0.94999999999999996
sS'network_rsn'
p3748
F60.799999999999997
sg3726
S'CACHE_ALL_RSN_ALL'
p3749
sS'rsn_cache_ratio'
p3750
I64
ssS'warmup_strategy'
p3751
g11
(tRp3752
S'p'
F0.10000000000000001
sg3726
S'NDN'
p3753
ssS'topology'
p3754
g11
(tRp3755
S'ext_delay'
p3756
I5
sS'source_ratio'
p3757
F0.10000000000000001
sg3726
S'ROCKET_FUEL'
p3758
sS'asn'
p3759
I3257
ssg11
(tRp3760
S'SAT_RATE'
p3761
g11
(tRp3762
S'MEAN_CACHE_HIT'
p3763
F0.72398916666666668
sS'MEAN_SERVER_HIT'
p3764
F0.27553305555555557
sS'MEAN'
p3765
F0.9995222222222222
ssS'CACHE_HIT_RATIO'
p3766
g11
(tRp3767
S'MEAN_OFF_PATH'
p3768
F0.41772098756527376
sS'MEAN_ON_PATH'
p3769
F0.30626817910139292
sg3765
F0.72398916666666668
ssS'OVERHEAD'
p3770
g11
(tRp3771
g3765
F8.2992411111111117
ssS'LATENCY'
p3772
g11
(tRp3773
g3765
F47.838241735498045
sstp3774
a(g11
(tRp3775
S'workload'
p3776
g11
(tRp3777
S'n_contents'
p3778
I10000
sS'name'
p3779
S'STATIONARY'
p3780
sS'n_warmup'
p3781
I360000
sS'rate'
p3782
I1000
sS'n_measured'
p3783
I3600000
sS'alpha'
p3784
F0.80000000000000004
ssS'cache_policy'
p3785
g11
(tRp3786
g3779
S'LRU'
p3787
ssS'desc'
p3788
S'caching probability: 0.66'
p3789
sS'strategy'
p3790
g11
(tRp3791
S'extra_quota'
p3792
I2
sS'rsn_fresh'
p3793
F5
sg3779
S'LIRA_DFIB_OPH'
p3794
sS'p'
F0.66000000000000003
ssS'content_placement'
p3795
g11
(tRp3796
g3779
S'LOWEST_DEGREE'
p3797
ssS'joint_cache_rsn_placement'
p3798
g11
(tRp3799
S'network_cache'
p3800
F0.94999999999999996
sS'network_rsn'
p3801
F60.799999999999997
sg3779
S'CACHE_ALL_RSN_ALL'
p3802
sS'rsn_cache_ratio'
p3803
I64
ssS'warmup_strategy'
p3804
g11
(tRp3805
S'p'
F0.10000000000000001
sg3779
S'NDN'
p3806
ssS'topology'
p3807
g11
(tRp3808
S'ext_delay'
p3809
I5
sS'source_ratio'
p3810
F0.10000000000000001
sg3779
S'ROCKET_FUEL'
p3811
sS'asn'
p3812
I3257
ssg11
(tRp3813
S'SAT_RATE'
p3814
g11
(tRp3815
S'MEAN_CACHE_HIT'
p3816
F0.73272666666666664
sS'MEAN_SERVER_HIT'
p3817
F0.26581416666666668
sS'MEAN'
p3818
F0.99854083333333332
ssS'CACHE_HIT_RATIO'
p3819
g11
(tRp3820
S'MEAN_OFF_PATH'
p3821
F0.44082573933730979
sS'MEAN_ON_PATH'
p3822
F0.29190092732935685
sg3818
F0.73272666666666664
ssS'OVERHEAD'
p3823
g11
(tRp3824
g3818
F8.2313463888888894
ssS'LATENCY'
p3825
g11
(tRp3826
g3818
F47.10419457273975
sstp3827
a(g11
(tRp3828
S'workload'
p3829
g11
(tRp3830
S'n_contents'
p3831
I10000
sS'name'
p3832
S'STATIONARY'
p3833
sS'n_warmup'
p3834
I360000
sS'rate'
p3835
I1000
sS'n_measured'
p3836
I3600000
sS'alpha'
p3837
F0.80000000000000004
ssS'cache_policy'
p3838
g11
(tRp3839
g3832
S'LRU'
p3840
ssS'desc'
p3841
S'caching probability: 0.5'
p3842
sS'strategy'
p3843
g11
(tRp3844
S'extra_quota'
p3845
I4
sS'rsn_fresh'
p3846
F5
sg3832
S'LIRA_DFIB_OPH'
p3847
sS'p'
F0.5
ssS'content_placement'
p3848
g11
(tRp3849
g3832
S'LOWEST_DEGREE'
p3850
ssS'joint_cache_rsn_placement'
p3851
g11
(tRp3852
S'network_cache'
p3853
F0.94999999999999996
sS'network_rsn'
p3854
F60.799999999999997
sg3832
S'CACHE_ALL_RSN_ALL'
p3855
sS'rsn_cache_ratio'
p3856
I64
ssS'warmup_strategy'
p3857
g11
(tRp3858
S'p'
F0.10000000000000001
sg3832
S'NDN'
p3859
ssS'topology'
p3860
g11
(tRp3861
S'ext_delay'
p3862
I5
sS'source_ratio'
p3863
F0.10000000000000001
sg3832
S'ROCKET_FUEL'
p3864
sS'asn'
p3865
I3257
ssg11
(tRp3866
S'SAT_RATE'
p3867
g11
(tRp3868
S'MEAN_CACHE_HIT'
p3869
F0.72368222222222223
sS'MEAN_SERVER_HIT'
p3870
F0.27607638888888891
sS'MEAN'
p3871
F0.99975861111111108
ssS'CACHE_HIT_RATIO'
p3872
g11
(tRp3873
S'MEAN_OFF_PATH'
p3874
F0.41094355359008422
sS'MEAN_ON_PATH'
p3875
F0.31273866863213801
sg3871
F0.72368222222222223
ssS'OVERHEAD'
p3876
g11
(tRp3877
g3871
F8.3777658333333331
ssS'LATENCY'
p3878
g11
(tRp3879
g3871
F47.907932398884064
sstp3880
a(g11
(tRp3881
S'workload'
p3882
g11
(tRp3883
S'n_contents'
p3884
I10000
sS'name'
p3885
S'STATIONARY'
p3886
sS'n_warmup'
p3887
I360000
sS'rate'
p3888
I1000
sS'n_measured'
p3889
I3600000
sS'alpha'
p3890
F0.80000000000000004
ssS'cache_policy'
p3891
g11
(tRp3892
g3885
S'LRU'
p3893
ssS'desc'
p3894
S'caching probability: 0.66'
p3895
sS'strategy'
p3896
g11
(tRp3897
S'extra_quota'
p3898
I3
sS'rsn_fresh'
p3899
F5
sg3885
S'LIRA_DFIB_OPH'
p3900
sS'p'
F0.66000000000000003
ssS'content_placement'
p3901
g11
(tRp3902
g3885
S'LOWEST_DEGREE'
p3903
ssS'joint_cache_rsn_placement'
p3904
g11
(tRp3905
S'network_cache'
p3906
F0.94999999999999996
sS'network_rsn'
p3907
F60.799999999999997
sg3885
S'CACHE_ALL_RSN_ALL'
p3908
sS'rsn_cache_ratio'
p3909
I64
ssS'warmup_strategy'
p3910
g11
(tRp3911
S'p'
F0.10000000000000001
sg3885
S'NDN'
p3912
ssS'topology'
p3913
g11
(tRp3914
S'ext_delay'
p3915
I5
sS'source_ratio'
p3916
F0.10000000000000001
sg3885
S'ROCKET_FUEL'
p3917
sS'asn'
p3918
I3257
ssg11
(tRp3919
S'SAT_RATE'
p3920
g11
(tRp3921
S'MEAN_CACHE_HIT'
p3922
F0.73257083333333328
sS'MEAN_SERVER_HIT'
p3923
F0.26688666666666666
sS'MEAN'
p3924
F0.9994575
ssS'CACHE_HIT_RATIO'
p3925
g11
(tRp3926
S'MEAN_OFF_PATH'
p3927
F0.42288112193988436
sS'MEAN_ON_PATH'
p3928
F0.30968971139344892
sg3924
F0.73257083333333328
ssS'OVERHEAD'
p3929
g11
(tRp3930
g3924
F8.4020405555555548
ssS'LATENCY'
p3931
g11
(tRp3932
g3924
F47.133739747025828
sstp3933
a(g11
(tRp3934
S'workload'
p3935
g11
(tRp3936
S'n_contents'
p3937
I10000
sS'name'
p3938
S'STATIONARY'
p3939
sS'n_warmup'
p3940
I360000
sS'rate'
p3941
I1000
sS'n_measured'
p3942
I3600000
sS'alpha'
p3943
F0.80000000000000004
ssS'cache_policy'
p3944
g11
(tRp3945
g3938
S'LRU'
p3946
ssS'desc'
p3947
S'caching probability: 0.66'
p3948
sS'strategy'
p3949
g11
(tRp3950
S'extra_quota'
p3951
I5
sS'rsn_fresh'
p3952
F5
sg3938
S'LIRA_DFIB_OPH'
p3953
sS'p'
F0.66000000000000003
ssS'content_placement'
p3954
g11
(tRp3955
g3938
S'LOWEST_DEGREE'
p3956
ssS'joint_cache_rsn_placement'
p3957
g11
(tRp3958
S'network_cache'
p3959
F0.94999999999999996
sS'network_rsn'
p3960
F60.799999999999997
sg3938
S'CACHE_ALL_RSN_ALL'
p3961
sS'rsn_cache_ratio'
p3962
I64
ssS'warmup_strategy'
p3963
g11
(tRp3964
S'p'
F0.10000000000000001
sg3938
S'NDN'
p3965
ssS'topology'
p3966
g11
(tRp3967
S'ext_delay'
p3968
I5
sS'source_ratio'
p3969
F0.10000000000000001
sg3938
S'ROCKET_FUEL'
p3970
sS'asn'
p3971
I3257
ssg11
(tRp3972
S'SAT_RATE'
p3973
g11
(tRp3974
S'MEAN_CACHE_HIT'
p3975
F0.7338972222222222
sS'MEAN_SERVER_HIT'
p3976
F0.26598583333333331
sS'MEAN'
p3977
F0.99988305555555557
ssS'CACHE_HIT_RATIO'
p3978
g11
(tRp3979
S'MEAN_OFF_PATH'
p3980
F0.41375990511392829
sS'MEAN_ON_PATH'
p3981
F0.32013731710829391
sg3977
F0.7338972222222222
ssS'OVERHEAD'
p3982
g11
(tRp3983
g3977
F8.491673333333333
ssS'LATENCY'
p3984
g11
(tRp3985
g3977
F47.022976979769453
sstp3986
a(g11
(tRp3987
S'workload'
p3988
g11
(tRp3989
S'n_contents'
p3990
I10000
sS'name'
p3991
S'STATIONARY'
p3992
sS'n_warmup'
p3993
I360000
sS'rate'
p3994
I1000
sS'n_measured'
p3995
I3600000
sS'alpha'
p3996
F0.80000000000000004
ssS'cache_policy'
p3997
g11
(tRp3998
g3991
S'LRU'
p3999
ssS'desc'
p4000
S'caching probability: 0.66'
p4001
sS'strategy'
p4002
g11
(tRp4003
S'extra_quota'
p4004
I4
sS'rsn_fresh'
p4005
F5
sg3991
S'LIRA_DFIB_OPH'
p4006
sS'p'
F0.66000000000000003
ssS'content_placement'
p4007
g11
(tRp4008
g3991
S'LOWEST_DEGREE'
p4009
ssS'joint_cache_rsn_placement'
p4010
g11
(tRp4011
S'network_cache'
p4012
F0.94999999999999996
sS'network_rsn'
p4013
F60.799999999999997
sg3991
S'CACHE_ALL_RSN_ALL'
p4014
sS'rsn_cache_ratio'
p4015
I64
ssS'warmup_strategy'
p4016
g11
(tRp4017
S'p'
F0.10000000000000001
sg3991
S'NDN'
p4018
ssS'topology'
p4019
g11
(tRp4020
S'ext_delay'
p4021
I5
sS'source_ratio'
p4022
F0.10000000000000001
sg3991
S'ROCKET_FUEL'
p4023
sS'asn'
p4024
I3257
ssg11
(tRp4025
S'SAT_RATE'
p4026
g11
(tRp4027
S'MEAN_CACHE_HIT'
p4028
F0.73324722222222227
sS'MEAN_SERVER_HIT'
p4029
F0.26651999999999998
sS'MEAN'
p4030
F0.99976722222222225
ssS'CACHE_HIT_RATIO'
p4031
g11
(tRp4032
S'MEAN_OFF_PATH'
p4033
F0.41761216157461084
sS'MEAN_ON_PATH'
p4034
F0.31563506064761143
sg4030
F0.73324722222222227
ssS'OVERHEAD'
p4035
g11
(tRp4036
g4030
F8.527964166666667
ssS'LATENCY'
p4037
g11
(tRp4038
g4030
F46.938575983805102
sstp4039
a(g11
(tRp4040
S'workload'
p4041
g11
(tRp4042
S'n_contents'
p4043
I10000
sS'name'
p4044
S'STATIONARY'
p4045
sS'n_warmup'
p4046
I360000
sS'rate'
p4047
I1000
sS'n_measured'
p4048
I3600000
sS'alpha'
p4049
F0.80000000000000004
ssS'cache_policy'
p4050
g11
(tRp4051
g4044
S'LRU'
p4052
ssS'desc'
p4053
S'caching probability: 0.75'
p4054
sS'strategy'
p4055
g11
(tRp4056
S'extra_quota'
p4057
I2
sS'rsn_fresh'
p4058
F5
sg4044
S'LIRA_DFIB_OPH'
p4059
sS'p'
F0.75
ssS'content_placement'
p4060
g11
(tRp4061
g4044
S'LOWEST_DEGREE'
p4062
ssS'joint_cache_rsn_placement'
p4063
g11
(tRp4064
S'network_cache'
p4065
F0.94999999999999996
sS'network_rsn'
p4066
F60.799999999999997
sg4044
S'CACHE_ALL_RSN_ALL'
p4067
sS'rsn_cache_ratio'
p4068
I64
ssS'warmup_strategy'
p4069
g11
(tRp4070
S'p'
F0.10000000000000001
sg4044
S'NDN'
p4071
ssS'topology'
p4072
g11
(tRp4073
S'ext_delay'
p4074
I5
sS'source_ratio'
p4075
F0.10000000000000001
sg4044
S'ROCKET_FUEL'
p4076
sS'asn'
p4077
I3257
ssg11
(tRp4078
S'SAT_RATE'
p4079
g11
(tRp4080
S'MEAN_CACHE_HIT'
p4081
F0.73645722222222221
sS'MEAN_SERVER_HIT'
p4082
F0.2621047222222222
sS'MEAN'
p4083
F0.99856194444444446
ssS'CACHE_HIT_RATIO'
p4084
g11
(tRp4085
S'MEAN_OFF_PATH'
p4086
F0.44443092359771996
sS'MEAN_ON_PATH'
p4087
F0.29202629862450225
sg4083
F0.73645722222222221
ssS'OVERHEAD'
p4088
g11
(tRp4089
g4083
F8.257718333333333
ssS'LATENCY'
p4090
g11
(tRp4091
g4083
F46.682460020166751
sstp4092
a(g11
(tRp4093
S'workload'
p4094
g11
(tRp4095
S'n_contents'
p4096
I10000
sS'name'
p4097
S'STATIONARY'
p4098
sS'n_warmup'
p4099
I360000
sS'rate'
p4100
I1000
sS'n_measured'
p4101
I3600000
sS'alpha'
p4102
F0.80000000000000004
ssS'cache_policy'
p4103
g11
(tRp4104
g4097
S'LRU'
p4105
ssS'desc'
p4106
S'caching probability: 0.75'
p4107
sS'strategy'
p4108
g11
(tRp4109
S'extra_quota'
p4110
I5
sS'rsn_fresh'
p4111
F5
sg4097
S'LIRA_DFIB_OPH'
p4112
sS'p'
F0.75
ssS'content_placement'
p4113
g11
(tRp4114
g4097
S'LOWEST_DEGREE'
p4115
ssS'joint_cache_rsn_placement'
p4116
g11
(tRp4117
S'network_cache'
p4118
F0.94999999999999996
sS'network_rsn'
p4119
F60.799999999999997
sg4097
S'CACHE_ALL_RSN_ALL'
p4120
sS'rsn_cache_ratio'
p4121
I64
ssS'warmup_strategy'
p4122
g11
(tRp4123
S'p'
F0.10000000000000001
sg4097
S'NDN'
p4124
ssS'topology'
p4125
g11
(tRp4126
S'ext_delay'
p4127
I5
sS'source_ratio'
p4128
F0.10000000000000001
sg4097
S'ROCKET_FUEL'
p4129
sS'asn'
p4130
I3257
ssg11
(tRp4131
S'SAT_RATE'
p4132
g11
(tRp4133
S'MEAN_CACHE_HIT'
p4134
F0.73784222222222218
sS'MEAN_SERVER_HIT'
p4135
F0.26202944444444443
sS'MEAN'
p4136
F0.99987166666666671
ssS'CACHE_HIT_RATIO'
p4137
g11
(tRp4138
S'MEAN_OFF_PATH'
p4139
F0.41697221039799548
sS'MEAN_ON_PATH'
p4140
F0.3208700118242267
sg4136
F0.73784222222222218
ssS'OVERHEAD'
p4141
g11
(tRp4142
g4136
F8.5841399999999997
ssS'LATENCY'
p4143
g11
(tRp4144
g4136
F46.737626176685872
sstp4145
a(g11
(tRp4146
S'workload'
p4147
g11
(tRp4148
S'n_contents'
p4149
I10000
sS'name'
p4150
S'STATIONARY'
p4151
sS'n_warmup'
p4152
I360000
sS'rate'
p4153
I1000
sS'n_measured'
p4154
I3600000
sS'alpha'
p4155
F0.80000000000000004
ssS'cache_policy'
p4156
g11
(tRp4157
g4150
S'LRU'
p4158
ssS'desc'
p4159
S'caching probability: 0.75'
p4160
sS'strategy'
p4161
g11
(tRp4162
S'extra_quota'
p4163
I3
sS'rsn_fresh'
p4164
F5
sg4150
S'LIRA_DFIB_OPH'
p4165
sS'p'
F0.75
ssS'content_placement'
p4166
g11
(tRp4167
g4150
S'LOWEST_DEGREE'
p4168
ssS'joint_cache_rsn_placement'
p4169
g11
(tRp4170
S'network_cache'
p4171
F0.94999999999999996
sS'network_rsn'
p4172
F60.799999999999997
sg4150
S'CACHE_ALL_RSN_ALL'
p4173
sS'rsn_cache_ratio'
p4174
I64
ssS'warmup_strategy'
p4175
g11
(tRp4176
S'p'
F0.10000000000000001
sg4150
S'NDN'
p4177
ssS'topology'
p4178
g11
(tRp4179
S'ext_delay'
p4180
I5
sS'source_ratio'
p4181
F0.10000000000000001
sg4150
S'ROCKET_FUEL'
p4182
sS'asn'
p4183
I3257
ssg11
(tRp4184
S'SAT_RATE'
p4185
g11
(tRp4186
S'MEAN_CACHE_HIT'
p4187
F0.73746027777777778
sS'MEAN_SERVER_HIT'
p4188
F0.26205499999999998
sS'MEAN'
p4189
F0.99951527777777782
ssS'CACHE_HIT_RATIO'
p4190
g11
(tRp4191
S'MEAN_OFF_PATH'
p4192
F0.42424231458455769
sS'MEAN_ON_PATH'
p4193
F0.31321796319322009
sg4189
F0.73746027777777778
ssS'OVERHEAD'
p4194
g11
(tRp4195
g4189
F8.4445247222222228
ssS'LATENCY'
p4196
g11
(tRp4197
g4189
F46.680584061096027
sstp4198
a(g11
(tRp4199
S'workload'
p4200
g11
(tRp4201
S'n_contents'
p4202
I10000
sS'name'
p4203
S'STATIONARY'
p4204
sS'n_warmup'
p4205
I360000
sS'rate'
p4206
I1000
sS'n_measured'
p4207
I3600000
sS'alpha'
p4208
F0.80000000000000004
ssS'cache_policy'
p4209
g11
(tRp4210
g4203
S'LRU'
p4211
ssS'desc'
p4212
S'caching probability: 0.75'
p4213
sS'strategy'
p4214
g11
(tRp4215
S'extra_quota'
p4216
I4
sS'rsn_fresh'
p4217
F5
sg4203
S'LIRA_DFIB_OPH'
p4218
sS'p'
F0.75
ssS'content_placement'
p4219
g11
(tRp4220
g4203
S'LOWEST_DEGREE'
p4221
ssS'joint_cache_rsn_placement'
p4222
g11
(tRp4223
S'network_cache'
p4224
F0.94999999999999996
sS'network_rsn'
p4225
F60.799999999999997
sg4203
S'CACHE_ALL_RSN_ALL'
p4226
sS'rsn_cache_ratio'
p4227
I64
ssS'warmup_strategy'
p4228
g11
(tRp4229
S'p'
F0.10000000000000001
sg4203
S'NDN'
p4230
ssS'topology'
p4231
g11
(tRp4232
S'ext_delay'
p4233
I5
sS'source_ratio'
p4234
F0.10000000000000001
sg4203
S'ROCKET_FUEL'
p4235
sS'asn'
p4236
I3257
ssg11
(tRp4237
S'SAT_RATE'
p4238
g11
(tRp4239
S'MEAN_CACHE_HIT'
p4240
F0.73725166666666664
sS'MEAN_SERVER_HIT'
p4241
F0.26247555555555557
sS'MEAN'
p4242
F0.99972722222222221
ssS'CACHE_HIT_RATIO'
p4243
g11
(tRp4244
S'MEAN_OFF_PATH'
p4245
F0.418906021658218
sS'MEAN_ON_PATH'
p4246
F0.31834564500844864
sg4242
F0.73725166666666664
ssS'OVERHEAD'
p4247
g11
(tRp4248
g4242
F8.552782777777777
ssS'LATENCY'
p4249
g11
(tRp4250
g4242
F46.785634382042261
sstp4251
a(g11
(tRp4252
S'workload'
p4253
g11
(tRp4254
S'n_contents'
p4255
I10000
sS'name'
p4256
S'STATIONARY'
p4257
sS'n_warmup'
p4258
I360000
sS'rate'
p4259
I1000
sS'n_measured'
p4260
I3600000
sS'alpha'
p4261
F0.80000000000000004
ssS'cache_policy'
p4262
g11
(tRp4263
g4256
S'LRU'
p4264
ssS'desc'
p4265
S'caching probability: 1.0'
p4266
sS'strategy'
p4267
g11
(tRp4268
S'extra_quota'
p4269
I3
sS'rsn_fresh'
p4270
F5
sg4256
S'LIRA_DFIB_OPH'
p4271
sS'p'
F1
ssS'content_placement'
p4272
g11
(tRp4273
g4256
S'LOWEST_DEGREE'
p4274
ssS'joint_cache_rsn_placement'
p4275
g11
(tRp4276
S'network_cache'
p4277
F0.94999999999999996
sS'network_rsn'
p4278
F60.799999999999997
sg4256
S'CACHE_ALL_RSN_ALL'
p4279
sS'rsn_cache_ratio'
p4280
I64
ssS'warmup_strategy'
p4281
g11
(tRp4282
S'p'
F0.10000000000000001
sg4256
S'NDN'
p4283
ssS'topology'
p4284
g11
(tRp4285
S'ext_delay'
p4286
I5
sS'source_ratio'
p4287
F0.10000000000000001
sg4256
S'ROCKET_FUEL'
p4288
sS'asn'
p4289
I3257
ssg11
(tRp4290
S'SAT_RATE'
p4291
g11
(tRp4292
S'MEAN_CACHE_HIT'
p4293
F0.74608444444444444
sS'MEAN_SERVER_HIT'
p4294
F0.25337472222222224
sS'MEAN'
p4295
F0.99945916666666668
ssS'CACHE_HIT_RATIO'
p4296
g11
(tRp4297
S'MEAN_OFF_PATH'
p4298
F0.43180992246145139
sS'MEAN_ON_PATH'
p4299
F0.31427452198299305
sg4295
F0.74608444444444444
ssS'OVERHEAD'
p4300
g11
(tRp4301
g4295
F8.6097738888888884
ssS'LATENCY'
p4302
g11
(tRp4303
g4295
F46.174016496086885
sstp4304
a(g11
(tRp4305
S'workload'
p4306
g11
(tRp4307
S'n_contents'
p4308
I10000
sS'name'
p4309
S'STATIONARY'
p4310
sS'n_warmup'
p4311
I360000
sS'rate'
p4312
I1000
sS'n_measured'
p4313
I3600000
sS'alpha'
p4314
F0.80000000000000004
ssS'cache_policy'
p4315
g11
(tRp4316
g4309
S'LRU'
p4317
ssS'desc'
p4318
S'caching probability: 1.0'
p4319
sS'strategy'
p4320
g11
(tRp4321
S'extra_quota'
p4322
I2
sS'rsn_fresh'
p4323
F5
sg4309
S'LIRA_DFIB_OPH'
p4324
sS'p'
F1
ssS'content_placement'
p4325
g11
(tRp4326
g4309
S'LOWEST_DEGREE'
p4327
ssS'joint_cache_rsn_placement'
p4328
g11
(tRp4329
S'network_cache'
p4330
F0.94999999999999996
sS'network_rsn'
p4331
F60.799999999999997
sg4309
S'CACHE_ALL_RSN_ALL'
p4332
sS'rsn_cache_ratio'
p4333
I64
ssS'warmup_strategy'
p4334
g11
(tRp4335
S'p'
F0.10000000000000001
sg4309
S'NDN'
p4336
ssS'topology'
p4337
g11
(tRp4338
S'ext_delay'
p4339
I5
sS'source_ratio'
p4340
F0.10000000000000001
sg4309
S'ROCKET_FUEL'
p4341
sS'asn'
p4342
I3257
ssg11
(tRp4343
S'SAT_RATE'
p4344
g11
(tRp4345
S'MEAN_CACHE_HIT'
p4346
F0.74527083333333333
sS'MEAN_SERVER_HIT'
p4347
F0.25339027777777778
sS'MEAN'
p4348
F0.99866111111111111
ssS'CACHE_HIT_RATIO'
p4349
g11
(tRp4350
S'MEAN_OFF_PATH'
p4351
F0.44815638912446809
sS'MEAN_ON_PATH'
p4352
F0.29711444420886524
sg4348
F0.74527083333333333
ssS'OVERHEAD'
p4353
g11
(tRp4354
g4348
F8.3992450000000005
ssS'LATENCY'
p4355
g11
(tRp4356
g4348
F46.211915650773406
sstp4357
a(g11
(tRp4358
S'workload'
p4359
g11
(tRp4360
S'n_contents'
p4361
I10000
sS'name'
p4362
S'STATIONARY'
p4363
sS'n_warmup'
p4364
I360000
sS'rate'
p4365
I1000
sS'n_measured'
p4366
I3600000
sS'alpha'
p4367
F0.80000000000000004
ssS'cache_policy'
p4368
g11
(tRp4369
g4362
S'LRU'
p4370
ssS'desc'
p4371
S'caching probability: 1.0'
p4372
sS'strategy'
p4373
g11
(tRp4374
S'extra_quota'
p4375
I4
sS'rsn_fresh'
p4376
F5
sg4362
S'LIRA_DFIB_OPH'
p4377
sS'p'
F1
ssS'content_placement'
p4378
g11
(tRp4379
g4362
S'LOWEST_DEGREE'
p4380
ssS'joint_cache_rsn_placement'
p4381
g11
(tRp4382
S'network_cache'
p4383
F0.94999999999999996
sS'network_rsn'
p4384
F60.799999999999997
sg4362
S'CACHE_ALL_RSN_ALL'
p4385
sS'rsn_cache_ratio'
p4386
I64
ssS'warmup_strategy'
p4387
g11
(tRp4388
S'p'
F0.10000000000000001
sg4362
S'NDN'
p4389
ssS'topology'
p4390
g11
(tRp4391
S'ext_delay'
p4392
I5
sS'source_ratio'
p4393
F0.10000000000000001
sg4362
S'ROCKET_FUEL'
p4394
sS'asn'
p4395
I3257
ssg11
(tRp4396
S'SAT_RATE'
p4397
g11
(tRp4398
S'MEAN_CACHE_HIT'
p4399
F0.7459122222222222
sS'MEAN_SERVER_HIT'
p4400
F0.25383055555555556
sS'MEAN'
p4401
F0.99974277777777776
ssS'CACHE_HIT_RATIO'
p4402
g11
(tRp4403
S'MEAN_OFF_PATH'
p4404
F0.42325571102420384
sS'MEAN_ON_PATH'
p4405
F0.32265651119801836
sg4401
F0.7459122222222222
ssS'OVERHEAD'
p4406
g11
(tRp4407
g4401
F8.6369252777777774
ssS'LATENCY'
p4408
g11
(tRp4409
g4401
F46.188783046562548
sstp4410
a(g11
(tRp4411
S'workload'
p4412
g11
(tRp4413
S'n_contents'
p4414
I10000
sS'name'
p4415
S'STATIONARY'
p4416
sS'n_warmup'
p4417
I360000
sS'rate'
p4418
I1000
sS'n_measured'
p4419
I3600000
sS'alpha'
p4420
F0.80000000000000004
ssS'cache_policy'
p4421
g11
(tRp4422
g4415
S'LRU'
p4423
ssS'desc'
p4424
S'caching probability: 1.0'
p4425
sS'strategy'
p4426
g11
(tRp4427
S'extra_quota'
p4428
I5
sS'rsn_fresh'
p4429
F5
sg4415
S'LIRA_DFIB_OPH'
p4430
sS'p'
F1
ssS'content_placement'
p4431
g11
(tRp4432
g4415
S'LOWEST_DEGREE'
p4433
ssS'joint_cache_rsn_placement'
p4434
g11
(tRp4435
S'network_cache'
p4436
F0.94999999999999996
sS'network_rsn'
p4437
F60.799999999999997
sg4415
S'CACHE_ALL_RSN_ALL'
p4438
sS'rsn_cache_ratio'
p4439
I64
ssS'warmup_strategy'
p4440
g11
(tRp4441
S'p'
F0.10000000000000001
sg4415
S'NDN'
p4442
ssS'topology'
p4443
g11
(tRp4444
S'ext_delay'
p4445
I5
sS'source_ratio'
p4446
F0.10000000000000001
sg4415
S'ROCKET_FUEL'
p4447
sS'asn'
p4448
I3257
ssg11
(tRp4449
S'SAT_RATE'
p4450
g11
(tRp4451
S'MEAN_CACHE_HIT'
p4452
F0.74584944444444445
sS'MEAN_SERVER_HIT'
p4453
F0.25401166666666669
sS'MEAN'
p4454
F0.99986111111111109
ssS'CACHE_HIT_RATIO'
p4455
g11
(tRp4456
S'MEAN_OFF_PATH'
p4457
F0.4198773791248116
sS'MEAN_ON_PATH'
p4458
F0.32597206531963285
sg4454
F0.74584944444444445
ssS'OVERHEAD'
p4459
g11
(tRp4460
g4454
F8.6793294444444449
ssS'LATENCY'
p4461
g11
(tRp4462
g4454
F46.081203762476882
sstp4463
atRp4464
sb.