ccopy_reg
_reconstructor
p1
(cicarus.results.readwrite
ResultSet
p2
c__builtin__
object
p3
NtRp4
(dp5
S'attr'
p6
(dp7
sS'_results'
p8
ccollections
deque
p9
((lp10
(cicarus.util
Tree
p11
(tRp12
S'workload'
p13
g11
(tRp14
S'n_contents'
p15
I10000
sS'disconnection_rate'
p16
F0.0025000000000000001
sS'name'
p17
S'STATIONARY_SIT'
p18
sS'n_warmup'
p19
I36000
sS'rate'
p20
I10
sS'n_measured'
p21
I108000
sS'alpha'
p22
F0.69999999999999996
ssS'cache_policy'
p23
g11
(tRp24
g17
S'LRU'
p25
ssS'desc'
p26
S'strategy: SIT_ONLY caching probability: 0.9'
p27
sS'strategy'
p28
g11
(tRp29
S'p'
F0.90000000000000002
sg17
S'SIT_ONLY'
p30
sS'fan_out'
p31
I1
ssS'content_placement'
p32
g11
(tRp33
g17
S'UNIFORM'
p34
ssS'joint_cache_rsn_placement'
p35
g11
(tRp36
S'network_cache'
p37
F0.90000000000000002
sS'network_rsn'
p38
F57.600000000000001
sg17
S'CACHE_ALL_RSN_ALL_SIT'
p39
sS'rsn_cache_ratio'
p40
I64
ssS'warmup_strategy'
p41
g11
(tRp42
S'p'
F0.10000000000000001
sg17
S'NDN'
p43
ssS'topology'
p44
g11
(tRp45
S'ext_delay'
p46
I2
sS'source_ratio'
p47
F1
sg17
S'ROCKET_FUEL'
p48
sS'asn'
p49
I3257
ssg11
(tRp50
S'CACHE_HIT_RATIO'
p51
g11
(tRp52
S'MEAN_NETWORK_HITS'
p53
F0.016547081586584973
sS'MEAN_USER_HITS'
p54
F0.0073282811996130282
sS'MEAN'
p55
F0.023875362786198
ssS'OVERHEAD'
p56
g11
(tRp57
g55
F0.027140438568203806
ssS'ABS'
p58
g11
(tRp59
S'MEAN_ABS_TIME'
p60
F4948.5878214172208
sS'NUM_ABS'
p61
I8579
sstp62
a(g11
(tRp63
S'workload'
p64
g11
(tRp65
S'n_contents'
p66
I10000
sS'disconnection_rate'
p67
F0.0025000000000000001
sS'name'
p68
S'STATIONARY_SIT'
p69
sS'n_warmup'
p70
I36000
sS'rate'
p71
I10
sS'n_measured'
p72
I108000
sS'alpha'
p73
F0.69999999999999996
ssS'cache_policy'
p74
g11
(tRp75
g68
S'LRU'
p76
ssS'desc'
p77
S'strategy: SIT_ONLY caching probability: 0.1'
p78
sS'strategy'
p79
g11
(tRp80
S'p'
F0.10000000000000001
sg68
S'SIT_ONLY'
p81
sS'fan_out'
p82
I1
ssS'content_placement'
p83
g11
(tRp84
g68
S'UNIFORM'
p85
ssS'joint_cache_rsn_placement'
p86
g11
(tRp87
S'network_cache'
p88
F0.90000000000000002
sS'network_rsn'
p89
F57.600000000000001
sg68
S'CACHE_ALL_RSN_ALL_SIT'
p90
sS'rsn_cache_ratio'
p91
I64
ssS'warmup_strategy'
p92
g11
(tRp93
S'p'
F0.10000000000000001
sg68
S'NDN'
p94
ssS'topology'
p95
g11
(tRp96
S'ext_delay'
p97
I2
sS'source_ratio'
p98
F1
sg68
S'ROCKET_FUEL'
p99
sS'asn'
p100
I3257
ssg11
(tRp101
S'CACHE_HIT_RATIO'
p102
g11
(tRp103
S'MEAN_NETWORK_HITS'
p104
F0.01336635260712442
sS'MEAN_USER_HITS'
p105
F0.0082521295818275692
sS'MEAN'
p106
F0.021618482188951987
ssS'OVERHEAD'
p107
g11
(tRp108
g106
F0.025518682240578214
ssS'ABS'
p109
g11
(tRp110
S'MEAN_ABS_TIME'
p111
F4970.9323424901459
sS'NUM_ABS'
p112
I8509
sstp113
a(g11
(tRp114
S'workload'
p115
g11
(tRp116
S'n_contents'
p117
I10000
sS'disconnection_rate'
p118
F0.0025000000000000001
sS'name'
p119
S'STATIONARY_SIT'
p120
sS'n_warmup'
p121
I36000
sS'rate'
p122
I10
sS'n_measured'
p123
I108000
sS'alpha'
p124
F0.69999999999999996
ssS'cache_policy'
p125
g11
(tRp126
g119
S'LRU'
p127
ssS'desc'
p128
S'strategy: SIT_ONLY caching probability: 0.3'
p129
sS'strategy'
p130
g11
(tRp131
S'p'
F0.29999999999999999
sg119
S'SIT_ONLY'
p132
sS'fan_out'
p133
I1
ssS'content_placement'
p134
g11
(tRp135
g119
S'UNIFORM'
p136
ssS'joint_cache_rsn_placement'
p137
g11
(tRp138
S'network_cache'
p139
F0.90000000000000002
sS'network_rsn'
p140
F57.600000000000001
sg119
S'CACHE_ALL_RSN_ALL_SIT'
p141
sS'rsn_cache_ratio'
p142
I64
ssS'warmup_strategy'
p143
g11
(tRp144
S'p'
F0.10000000000000001
sg119
S'NDN'
p145
ssS'topology'
p146
g11
(tRp147
S'ext_delay'
p148
I2
sS'source_ratio'
p149
F1
sg119
S'ROCKET_FUEL'
p150
sS'asn'
p151
I3257
ssg11
(tRp152
S'CACHE_HIT_RATIO'
p153
g11
(tRp154
S'MEAN_NETWORK_HITS'
p155
F0.015137085253549204
sS'MEAN_USER_HITS'
p156
F0.0074979217278310908
sS'MEAN'
p157
F0.022635006981380296
ssS'OVERHEAD'
p158
g11
(tRp159
g157
F0.027320199191289821
ssS'ABS'
p160
g11
(tRp161
S'MEAN_ABS_TIME'
p162
F4955.5125500113527
sS'NUM_ABS'
p163
I8473
sstp164
a(g11
(tRp165
S'workload'
p166
g11
(tRp167
S'n_contents'
p168
I10000
sS'disconnection_rate'
p169
F0.0025000000000000001
sS'name'
p170
S'STATIONARY_SIT'
p171
sS'n_warmup'
p172
I36000
sS'rate'
p173
I10
sS'n_measured'
p174
I108000
sS'alpha'
p175
F0.69999999999999996
ssS'cache_policy'
p176
g11
(tRp177
g170
S'LRU'
p178
ssS'desc'
p179
S'strategy: SIT_ONLY caching probability: 0.7'
p180
sS'strategy'
p181
g11
(tRp182
S'p'
F0.69999999999999996
sg170
S'SIT_ONLY'
p183
sS'fan_out'
p184
I1
ssS'content_placement'
p185
g11
(tRp186
g170
S'UNIFORM'
p187
ssS'joint_cache_rsn_placement'
p188
g11
(tRp189
S'network_cache'
p190
F0.90000000000000002
sS'network_rsn'
p191
F57.600000000000001
sg170
S'CACHE_ALL_RSN_ALL_SIT'
p192
sS'rsn_cache_ratio'
p193
I64
ssS'warmup_strategy'
p194
g11
(tRp195
S'p'
F0.10000000000000001
sg170
S'NDN'
p196
ssS'topology'
p197
g11
(tRp198
S'ext_delay'
p199
I2
sS'source_ratio'
p200
F1
sg170
S'ROCKET_FUEL'
p201
sS'asn'
p202
I3257
ssg11
(tRp203
S'CACHE_HIT_RATIO'
p204
g11
(tRp205
S'MEAN_NETWORK_HITS'
p206
F0.015868791108637703
sS'MEAN_USER_HITS'
p207
F0.0079444773784031197
sS'MEAN'
p208
F0.023813268487040823
ssS'OVERHEAD'
p209
g11
(tRp210
g208
F0.026200644430195465
ssS'ABS'
p211
g11
(tRp212
S'MEAN_ABS_TIME'
p213
F4978.8957544293526
sS'NUM_ABS'
p214
I8516
sstp215
a(g11
(tRp216
S'workload'
p217
g11
(tRp218
S'n_contents'
p219
I10000
sS'disconnection_rate'
p220
F0.0025000000000000001
sS'name'
p221
S'STATIONARY_SIT'
p222
sS'n_warmup'
p223
I36000
sS'rate'
p224
I10
sS'n_measured'
p225
I108000
sS'alpha'
p226
F0.69999999999999996
ssS'cache_policy'
p227
g11
(tRp228
g221
S'LRU'
p229
ssS'desc'
p230
S'strategy: SIT_ONLY caching probability: 0.2'
p231
sS'strategy'
p232
g11
(tRp233
S'p'
F0.20000000000000001
sg221
S'SIT_ONLY'
p234
sS'fan_out'
p235
I1
ssS'content_placement'
p236
g11
(tRp237
g221
S'UNIFORM'
p238
ssS'joint_cache_rsn_placement'
p239
g11
(tRp240
S'network_cache'
p241
F0.90000000000000002
sS'network_rsn'
p242
F57.600000000000001
sg221
S'CACHE_ALL_RSN_ALL_SIT'
p243
sS'rsn_cache_ratio'
p244
I64
ssS'warmup_strategy'
p245
g11
(tRp246
S'p'
F0.10000000000000001
sg221
S'NDN'
p247
ssS'topology'
p248
g11
(tRp249
S'ext_delay'
p250
I2
sS'source_ratio'
p251
F1
sg221
S'ROCKET_FUEL'
p252
sS'asn'
p253
I3257
ssg11
(tRp254
S'CACHE_HIT_RATIO'
p255
g11
(tRp256
S'MEAN_NETWORK_HITS'
p257
F0.01352217871214657
sS'MEAN_USER_HITS'
p258
F0.0079407008303658214
sS'MEAN'
p259
F0.02146287954251239
ssS'OVERHEAD'
p260
g11
(tRp261
g259
F0.024951303218625358
ssS'ABS'
p262
g11
(tRp263
S'MEAN_ABS_TIME'
p264
F4962.3040705568073
sS'NUM_ABS'
p265
I8469
sstp266
a(g11
(tRp267
S'workload'
p268
g11
(tRp269
S'n_contents'
p270
I10000
sS'disconnection_rate'
p271
F0.0025000000000000001
sS'name'
p272
S'STATIONARY_SIT'
p273
sS'n_warmup'
p274
I36000
sS'rate'
p275
I10
sS'n_measured'
p276
I108000
sS'alpha'
p277
F0.69999999999999996
ssS'cache_policy'
p278
g11
(tRp279
g272
S'LRU'
p280
ssS'desc'
p281
S'strategy: SIT_ONLY caching probability: 0.4'
p282
sS'strategy'
p283
g11
(tRp284
S'p'
F0.40000000000000002
sg272
S'SIT_ONLY'
p285
sS'fan_out'
p286
I1
ssS'content_placement'
p287
g11
(tRp288
g272
S'UNIFORM'
p289
ssS'joint_cache_rsn_placement'
p290
g11
(tRp291
S'network_cache'
p292
F0.90000000000000002
sS'network_rsn'
p293
F57.600000000000001
sg272
S'CACHE_ALL_RSN_ALL_SIT'
p294
sS'rsn_cache_ratio'
p295
I64
ssS'warmup_strategy'
p296
g11
(tRp297
S'p'
F0.10000000000000001
sg272
S'NDN'
p298
ssS'topology'
p299
g11
(tRp300
S'ext_delay'
p301
I2
sS'source_ratio'
p302
F1
sg272
S'ROCKET_FUEL'
p303
sS'asn'
p304
I3257
ssg11
(tRp305
S'CACHE_HIT_RATIO'
p306
g11
(tRp307
S'MEAN_NETWORK_HITS'
p308
F0.015492213559417741
sS'MEAN_USER_HITS'
p309
F0.0075383876965768705
sS'MEAN'
p310
F0.023030601255994612
ssS'OVERHEAD'
p311
g11
(tRp312
g310
F0.026450907712226385
ssS'ABS'
p313
g11
(tRp314
S'MEAN_ABS_TIME'
p315
F4962.9313440258084
sS'NUM_ABS'
p316
I8481
sstp317
a(g11
(tRp318
S'workload'
p319
g11
(tRp320
S'n_contents'
p321
I10000
sS'disconnection_rate'
p322
F0.0025000000000000001
sS'name'
p323
S'STATIONARY_SIT'
p324
sS'n_warmup'
p325
I36000
sS'rate'
p326
I10
sS'n_measured'
p327
I108000
sS'alpha'
p328
F0.69999999999999996
ssS'cache_policy'
p329
g11
(tRp330
g323
S'LRU'
p331
ssS'desc'
p332
S'strategy: SIT_ONLY caching probability: 0.6'
p333
sS'strategy'
p334
g11
(tRp335
S'p'
F0.59999999999999998
sg323
S'SIT_ONLY'
p336
sS'fan_out'
p337
I1
ssS'content_placement'
p338
g11
(tRp339
g323
S'UNIFORM'
p340
ssS'joint_cache_rsn_placement'
p341
g11
(tRp342
S'network_cache'
p343
F0.90000000000000002
sS'network_rsn'
p344
F57.600000000000001
sg323
S'CACHE_ALL_RSN_ALL_SIT'
p345
sS'rsn_cache_ratio'
p346
I64
ssS'warmup_strategy'
p347
g11
(tRp348
S'p'
F0.10000000000000001
sg323
S'NDN'
p349
ssS'topology'
p350
g11
(tRp351
S'ext_delay'
p352
I2
sS'source_ratio'
p353
F1
sg323
S'ROCKET_FUEL'
p354
sS'asn'
p355
I3257
ssg11
(tRp356
S'CACHE_HIT_RATIO'
p357
g11
(tRp358
S'MEAN_NETWORK_HITS'
p359
F0.015674891146589261
sS'MEAN_USER_HITS'
p360
F0.0079906466698919532
sS'MEAN'
p361
F0.023665537816481213
ssS'OVERHEAD'
p362
g11
(tRp363
g361
F0.027177068214804066
ssS'ABS'
p364
g11
(tRp365
S'MEAN_ABS_TIME'
p366
F4997.4407004410687
sS'NUM_ABS'
p367
I8549
sstp368
a(g11
(tRp369
S'workload'
p370
g11
(tRp371
S'n_contents'
p372
I10000
sS'disconnection_rate'
p373
F0.0025000000000000001
sS'name'
p374
S'STATIONARY_SIT'
p375
sS'n_warmup'
p376
I36000
sS'rate'
p377
I10
sS'n_measured'
p378
I108000
sS'alpha'
p379
F0.69999999999999996
ssS'cache_policy'
p380
g11
(tRp381
g374
S'LRU'
p382
ssS'desc'
p383
S'strategy: SIT_ONLY caching probability: 0.5'
p384
sS'strategy'
p385
g11
(tRp386
S'p'
F0.5
sg374
S'SIT_ONLY'
p387
sS'fan_out'
p388
I1
ssS'content_placement'
p389
g11
(tRp390
g374
S'UNIFORM'
p391
ssS'joint_cache_rsn_placement'
p392
g11
(tRp393
S'network_cache'
p394
F0.90000000000000002
sS'network_rsn'
p395
F57.600000000000001
sg374
S'CACHE_ALL_RSN_ALL_SIT'
p396
sS'rsn_cache_ratio'
p397
I64
ssS'warmup_strategy'
p398
g11
(tRp399
S'p'
F0.10000000000000001
sg374
S'NDN'
p400
ssS'topology'
p401
g11
(tRp402
S'ext_delay'
p403
I2
sS'source_ratio'
p404
F1
sg374
S'ROCKET_FUEL'
p405
sS'asn'
p406
I3257
ssg11
(tRp407
S'CACHE_HIT_RATIO'
p408
g11
(tRp409
S'MEAN_NETWORK_HITS'
p410
F0.015539758637791371
sS'MEAN_USER_HITS'
p411
F0.0071811910051651348
sS'MEAN'
p412
F0.022720949642956505
ssS'OVERHEAD'
p413
g11
(tRp414
g412
F0.026595809023059646
ssS'ABS'
p415
g11
(tRp416
S'MEAN_ABS_TIME'
p417
F5006.1883298825787
sS'NUM_ABS'
p418
I8528
sstp419
a(g11
(tRp420
S'workload'
p421
g11
(tRp422
S'n_contents'
p423
I10000
sS'disconnection_rate'
p424
F0.0025000000000000001
sS'name'
p425
S'STATIONARY_SIT'
p426
sS'n_warmup'
p427
I36000
sS'rate'
p428
I10
sS'n_measured'
p429
I108000
sS'alpha'
p430
F0.69999999999999996
ssS'cache_policy'
p431
g11
(tRp432
g425
S'LRU'
p433
ssS'desc'
p434
S'strategy: SIT_ONLY caching probability: 0.8'
p435
sS'strategy'
p436
g11
(tRp437
S'p'
F0.80000000000000004
sg425
S'SIT_ONLY'
p438
sS'fan_out'
p439
I1
ssS'content_placement'
p440
g11
(tRp441
g425
S'UNIFORM'
p442
ssS'joint_cache_rsn_placement'
p443
g11
(tRp444
S'network_cache'
p445
F0.90000000000000002
sS'network_rsn'
p446
F57.600000000000001
sg425
S'CACHE_ALL_RSN_ALL_SIT'
p447
sS'rsn_cache_ratio'
p448
I64
ssS'warmup_strategy'
p449
g11
(tRp450
S'p'
F0.10000000000000001
sg425
S'NDN'
p451
ssS'topology'
p452
g11
(tRp453
S'ext_delay'
p454
I2
sS'source_ratio'
p455
F1
sg425
S'ROCKET_FUEL'
p456
sS'asn'
p457
I3257
ssg11
(tRp458
S'CACHE_HIT_RATIO'
p459
g11
(tRp460
S'MEAN_NETWORK_HITS'
p461
F0.016447461291194277
sS'MEAN_USER_HITS'
p462
F0.0075985819206988757
sS'MEAN'
p463
F0.024046043211893152
ssS'OVERHEAD'
p464
g11
(tRp465
g463
F0.0265466381114862
ssS'ABS'
p466
g11
(tRp467
S'MEAN_ABS_TIME'
p468
F4957.7185171179481
sS'NUM_ABS'
p469
I8499
sstp470
a(g11
(tRp471
S'workload'
p472
g11
(tRp473
S'n_contents'
p474
I10000
sS'disconnection_rate'
p475
F0.0025000000000000001
sS'name'
p476
S'STATIONARY_SIT'
p477
sS'n_warmup'
p478
I36000
sS'rate'
p479
I10
sS'n_measured'
p480
I108000
sS'alpha'
p481
F0.69999999999999996
ssS'cache_policy'
p482
g11
(tRp483
g476
S'LRU'
p484
ssS'desc'
p485
S'strategy: SIT_ONLY caching probability: 1.0'
p486
sS'strategy'
p487
g11
(tRp488
S'p'
F1
sg476
S'SIT_ONLY'
p489
sS'fan_out'
p490
I1
ssS'content_placement'
p491
g11
(tRp492
g476
S'UNIFORM'
p493
ssS'joint_cache_rsn_placement'
p494
g11
(tRp495
S'network_cache'
p496
F0.90000000000000002
sS'network_rsn'
p497
F57.600000000000001
sg476
S'CACHE_ALL_RSN_ALL_SIT'
p498
sS'rsn_cache_ratio'
p499
I64
ssS'warmup_strategy'
p500
g11
(tRp501
S'p'
F0.10000000000000001
sg476
S'NDN'
p502
ssS'topology'
p503
g11
(tRp504
S'ext_delay'
p505
I2
sS'source_ratio'
p506
F1
sg476
S'ROCKET_FUEL'
p507
sS'asn'
p508
I3257
ssg11
(tRp509
S'CACHE_HIT_RATIO'
p510
g11
(tRp511
S'MEAN_NETWORK_HITS'
p512
F0.015912627700147557
sS'MEAN_USER_HITS'
p513
F0.0073697196442537955
sS'MEAN'
p514
F0.023282347344401353
ssS'OVERHEAD'
p515
g11
(tRp516
g514
F0.025810145056079214
ssS'ABS'
p517
g11
(tRp518
S'MEAN_ABS_TIME'
p519
F4938.0168276579407
sS'NUM_ABS'
p520
I8567
sstp521
a(g11
(tRp522
S'workload'
p523
g11
(tRp524
S'n_contents'
p525
I10000
sS'disconnection_rate'
p526
F0.0025000000000000001
sS'name'
p527
S'STATIONARY_SIT'
p528
sS'n_warmup'
p529
I36000
sS'rate'
p530
I10
sS'n_measured'
p531
I108000
sS'alpha'
p532
F0.69999999999999996
ssS'cache_policy'
p533
g11
(tRp534
g527
S'LRU'
p535
ssS'desc'
p536
S'strategy: SIT_ONLY caching probability: 0.1'
p537
sS'strategy'
p538
g11
(tRp539
S'p'
F0.10000000000000001
sg527
S'SIT_ONLY'
p540
sS'fan_out'
p541
I100
ssS'content_placement'
p542
g11
(tRp543
g527
S'UNIFORM'
p544
ssS'joint_cache_rsn_placement'
p545
g11
(tRp546
S'network_cache'
p547
F0.90000000000000002
sS'network_rsn'
p548
F57.600000000000001
sg527
S'CACHE_ALL_RSN_ALL_SIT'
p549
sS'rsn_cache_ratio'
p550
I64
ssS'warmup_strategy'
p551
g11
(tRp552
S'p'
F0.10000000000000001
sg527
S'NDN'
p553
ssS'topology'
p554
g11
(tRp555
S'ext_delay'
p556
I2
sS'source_ratio'
p557
F1
sg527
S'ROCKET_FUEL'
p558
sS'asn'
p559
I3257
ssg11
(tRp560
S'CACHE_HIT_RATIO'
p561
g11
(tRp562
S'MEAN_NETWORK_HITS'
p563
F0.017082955347243221
sS'MEAN_USER_HITS'
p564
F0.0097369216812821287
sS'MEAN'
p565
F0.026819877028525351
ssS'OVERHEAD'
p566
g11
(tRp567
g565
F0.03868964822094547
ssS'ABS'
p568
g11
(tRp569
S'MEAN_ABS_TIME'
p570
F4985.4814356868965
sS'NUM_ABS'
p571
I8503
sstp572
a(g11
(tRp573
S'workload'
p574
g11
(tRp575
S'n_contents'
p576
I10000
sS'disconnection_rate'
p577
F0.0025000000000000001
sS'name'
p578
S'STATIONARY_SIT'
p579
sS'n_warmup'
p580
I36000
sS'rate'
p581
I10
sS'n_measured'
p582
I108000
sS'alpha'
p583
F0.69999999999999996
ssS'cache_policy'
p584
g11
(tRp585
g578
S'LRU'
p586
ssS'desc'
p587
S'strategy: SIT_ONLY caching probability: 0.2'
p588
sS'strategy'
p589
g11
(tRp590
S'p'
F0.20000000000000001
sg578
S'SIT_ONLY'
p591
sS'fan_out'
p592
I100
ssS'content_placement'
p593
g11
(tRp594
g578
S'UNIFORM'
p595
ssS'joint_cache_rsn_placement'
p596
g11
(tRp597
S'network_cache'
p598
F0.90000000000000002
sS'network_rsn'
p599
F57.600000000000001
sg578
S'CACHE_ALL_RSN_ALL_SIT'
p600
sS'rsn_cache_ratio'
p601
I64
ssS'warmup_strategy'
p602
g11
(tRp603
S'p'
F0.10000000000000001
sg578
S'NDN'
p604
ssS'topology'
p605
g11
(tRp606
S'ext_delay'
p607
I2
sS'source_ratio'
p608
F1
sg578
S'ROCKET_FUEL'
p609
sS'asn'
p610
I3257
ssg11
(tRp611
S'CACHE_HIT_RATIO'
p612
g11
(tRp613
S'MEAN_NETWORK_HITS'
p614
F0.018939225895439019
sS'MEAN_USER_HITS'
p615
F0.0090219438518094296
sS'MEAN'
p616
F0.027961169747248448
ssS'OVERHEAD'
p617
g11
(tRp618
g616
F0.039064169936802028
ssS'ABS'
p619
g11
(tRp620
S'MEAN_ABS_TIME'
p621
F4980.1750159739049
sS'NUM_ABS'
p622
I8461
sstp623
a(g11
(tRp624
S'workload'
p625
g11
(tRp626
S'n_contents'
p627
I10000
sS'disconnection_rate'
p628
F0.0025000000000000001
sS'name'
p629
S'STATIONARY_SIT'
p630
sS'n_warmup'
p631
I36000
sS'rate'
p632
I10
sS'n_measured'
p633
I108000
sS'alpha'
p634
F0.69999999999999996
ssS'cache_policy'
p635
g11
(tRp636
g629
S'LRU'
p637
ssS'desc'
p638
S'strategy: SIT_ONLY caching probability: 0.3'
p639
sS'strategy'
p640
g11
(tRp641
S'p'
F0.29999999999999999
sg629
S'SIT_ONLY'
p642
sS'fan_out'
p643
I100
ssS'content_placement'
p644
g11
(tRp645
g629
S'UNIFORM'
p646
ssS'joint_cache_rsn_placement'
p647
g11
(tRp648
S'network_cache'
p649
F0.90000000000000002
sS'network_rsn'
p650
F57.600000000000001
sg629
S'CACHE_ALL_RSN_ALL_SIT'
p651
sS'rsn_cache_ratio'
p652
I64
ssS'warmup_strategy'
p653
g11
(tRp654
S'p'
F0.10000000000000001
sg629
S'NDN'
p655
ssS'topology'
p656
g11
(tRp657
S'ext_delay'
p658
I2
sS'source_ratio'
p659
F1
sg629
S'ROCKET_FUEL'
p660
sS'asn'
p661
I3257
ssg11
(tRp662
S'CACHE_HIT_RATIO'
p663
g11
(tRp664
S'MEAN_NETWORK_HITS'
p665
F0.019669592777331983
sS'MEAN_USER_HITS'
p666
F0.0092662411238845638
sS'MEAN'
p667
F0.028935833901216547
ssS'OVERHEAD'
p668
g11
(tRp669
g667
F0.039242410190445852
ssS'ABS'
p670
g11
(tRp671
S'MEAN_ABS_TIME'
p672
F4966.9995502209431
sS'NUM_ABS'
p673
I8542
sstp674
a(g11
(tRp675
S'workload'
p676
g11
(tRp677
S'n_contents'
p678
I10000
sS'disconnection_rate'
p679
F0.0025000000000000001
sS'name'
p680
S'STATIONARY_SIT'
p681
sS'n_warmup'
p682
I36000
sS'rate'
p683
I10
sS'n_measured'
p684
I108000
sS'alpha'
p685
F0.69999999999999996
ssS'cache_policy'
p686
g11
(tRp687
g680
S'LRU'
p688
ssS'desc'
p689
S'strategy: SIT_ONLY caching probability: 0.4'
p690
sS'strategy'
p691
g11
(tRp692
S'p'
F0.40000000000000002
sg680
S'SIT_ONLY'
p693
sS'fan_out'
p694
I100
ssS'content_placement'
p695
g11
(tRp696
g680
S'UNIFORM'
p697
ssS'joint_cache_rsn_placement'
p698
g11
(tRp699
S'network_cache'
p700
F0.90000000000000002
sS'network_rsn'
p701
F57.600000000000001
sg680
S'CACHE_ALL_RSN_ALL_SIT'
p702
sS'rsn_cache_ratio'
p703
I64
ssS'warmup_strategy'
p704
g11
(tRp705
S'p'
F0.10000000000000001
sg680
S'NDN'
p706
ssS'topology'
p707
g11
(tRp708
S'ext_delay'
p709
I2
sS'source_ratio'
p710
F1
sg680
S'ROCKET_FUEL'
p711
sS'asn'
p712
I3257
ssg11
(tRp713
S'CACHE_HIT_RATIO'
p714
g11
(tRp715
S'MEAN_NETWORK_HITS'
p716
F0.02056263963157428
sS'MEAN_USER_HITS'
p717
F0.0088275383709582461
sS'MEAN'
p718
F0.029390178002532522
ssS'OVERHEAD'
p719
g11
(tRp720
g718
F0.0399154750094768
ssS'ABS'
p721
g11
(tRp722
S'MEAN_ABS_TIME'
p723
F4991.3886486662641
sS'NUM_ABS'
p724
I8528
sstp725
a(g11
(tRp726
S'workload'
p727
g11
(tRp728
S'n_contents'
p729
I10000
sS'disconnection_rate'
p730
F0.0025000000000000001
sS'name'
p731
S'STATIONARY_SIT'
p732
sS'n_warmup'
p733
I36000
sS'rate'
p734
I10
sS'n_measured'
p735
I108000
sS'alpha'
p736
F0.69999999999999996
ssS'cache_policy'
p737
g11
(tRp738
g731
S'LRU'
p739
ssS'desc'
p740
S'strategy: SIT_ONLY caching probability: 0.6'
p741
sS'strategy'
p742
g11
(tRp743
S'p'
F0.59999999999999998
sg731
S'SIT_ONLY'
p744
sS'fan_out'
p745
I100
ssS'content_placement'
p746
g11
(tRp747
g731
S'UNIFORM'
p748
ssS'joint_cache_rsn_placement'
p749
g11
(tRp750
S'network_cache'
p751
F0.90000000000000002
sS'network_rsn'
p752
F57.600000000000001
sg731
S'CACHE_ALL_RSN_ALL_SIT'
p753
sS'rsn_cache_ratio'
p754
I64
ssS'warmup_strategy'
p755
g11
(tRp756
S'p'
F0.10000000000000001
sg731
S'NDN'
p757
ssS'topology'
p758
g11
(tRp759
S'ext_delay'
p760
I2
sS'source_ratio'
p761
F1
sg731
S'ROCKET_FUEL'
p762
sS'asn'
p763
I3257
ssg11
(tRp764
S'CACHE_HIT_RATIO'
p765
g11
(tRp766
S'MEAN_NETWORK_HITS'
p767
F0.021222116485749769
sS'MEAN_USER_HITS'
p768
F0.0075122179389990164
sS'MEAN'
p769
F0.028734334424748785
ssS'OVERHEAD'
p770
g11
(tRp771
g769
F0.039089340150647592
ssS'ABS'
p772
g11
(tRp773
S'MEAN_ABS_TIME'
p774
F5028.0253511531591
sS'NUM_ABS'
p775
I8608
sstp776
a(g11
(tRp777
S'workload'
p778
g11
(tRp779
S'n_contents'
p780
I10000
sS'disconnection_rate'
p781
F0.0025000000000000001
sS'name'
p782
S'STATIONARY_SIT'
p783
sS'n_warmup'
p784
I36000
sS'rate'
p785
I10
sS'n_measured'
p786
I108000
sS'alpha'
p787
F0.69999999999999996
ssS'cache_policy'
p788
g11
(tRp789
g782
S'LRU'
p790
ssS'desc'
p791
S'strategy: SIT_ONLY caching probability: 0.7'
p792
sS'strategy'
p793
g11
(tRp794
S'p'
F0.69999999999999996
sg782
S'SIT_ONLY'
p795
sS'fan_out'
p796
I100
ssS'content_placement'
p797
g11
(tRp798
g782
S'UNIFORM'
p799
ssS'joint_cache_rsn_placement'
p800
g11
(tRp801
S'network_cache'
p802
F0.90000000000000002
sS'network_rsn'
p803
F57.600000000000001
sg782
S'CACHE_ALL_RSN_ALL_SIT'
p804
sS'rsn_cache_ratio'
p805
I64
ssS'warmup_strategy'
p806
g11
(tRp807
S'p'
F0.10000000000000001
sg782
S'NDN'
p808
ssS'topology'
p809
g11
(tRp810
S'ext_delay'
p811
I2
sS'source_ratio'
p812
F1
sg782
S'ROCKET_FUEL'
p813
sS'asn'
p814
I3257
ssg11
(tRp815
S'CACHE_HIT_RATIO'
p816
g11
(tRp817
S'MEAN_NETWORK_HITS'
p818
F0.020921784218144578
sS'MEAN_USER_HITS'
p819
F0.0087251379934601778
sS'MEAN'
p820
F0.029646922211604757
ssS'OVERHEAD'
p821
g11
(tRp822
g820
F0.03893250113902564
ssS'ABS'
p823
g11
(tRp824
S'MEAN_ABS_TIME'
p825
F5006.3809449346099
sS'NUM_ABS'
p826
I8580
sstp827
a(g11
(tRp828
S'workload'
p829
g11
(tRp830
S'n_contents'
p831
I10000
sS'disconnection_rate'
p832
F0.0025000000000000001
sS'name'
p833
S'STATIONARY_SIT'
p834
sS'n_warmup'
p835
I36000
sS'rate'
p836
I10
sS'n_measured'
p837
I108000
sS'alpha'
p838
F0.69999999999999996
ssS'cache_policy'
p839
g11
(tRp840
g833
S'LRU'
p841
ssS'desc'
p842
S'strategy: SIT_ONLY caching probability: 0.8'
p843
sS'strategy'
p844
g11
(tRp845
S'p'
F0.80000000000000004
sg833
S'SIT_ONLY'
p846
sS'fan_out'
p847
I100
ssS'content_placement'
p848
g11
(tRp849
g833
S'UNIFORM'
p850
ssS'joint_cache_rsn_placement'
p851
g11
(tRp852
S'network_cache'
p853
F0.90000000000000002
sS'network_rsn'
p854
F57.600000000000001
sg833
S'CACHE_ALL_RSN_ALL_SIT'
p855
sS'rsn_cache_ratio'
p856
I64
ssS'warmup_strategy'
p857
g11
(tRp858
S'p'
F0.10000000000000001
sg833
S'NDN'
p859
ssS'topology'
p860
g11
(tRp861
S'ext_delay'
p862
I2
sS'source_ratio'
p863
F1
sg833
S'ROCKET_FUEL'
p864
sS'asn'
p865
I3257
ssg11
(tRp866
S'CACHE_HIT_RATIO'
p867
g11
(tRp868
S'MEAN_NETWORK_HITS'
p869
F0.022439103081142119
sS'MEAN_USER_HITS'
p870
F0.0082029359574124858
sS'MEAN'
p871
F0.030642039038554607
ssS'OVERHEAD'
p872
g11
(tRp873
g871
F0.039292627843200513
ssS'ABS'
p874
g11
(tRp875
S'MEAN_ABS_TIME'
p876
F5048.6160486397985
sS'NUM_ABS'
p877
I8598
sstp878
a(g11
(tRp879
S'workload'
p880
g11
(tRp881
S'n_contents'
p882
I10000
sS'disconnection_rate'
p883
F0.0025000000000000001
sS'name'
p884
S'STATIONARY_SIT'
p885
sS'n_warmup'
p886
I36000
sS'rate'
p887
I10
sS'n_measured'
p888
I108000
sS'alpha'
p889
F0.69999999999999996
ssS'cache_policy'
p890
g11
(tRp891
g884
S'LRU'
p892
ssS'desc'
p893
S'strategy: NDN_SIT caching probability: 0.2'
p894
sS'strategy'
p895
g11
(tRp896
S'p'
F0.20000000000000001
sg884
S'NDN_SIT'
p897
ssS'content_placement'
p898
g11
(tRp899
g884
S'UNIFORM'
p900
ssS'joint_cache_rsn_placement'
p901
g11
(tRp902
S'network_cache'
p903
F0.90000000000000002
sS'network_rsn'
p904
F57.600000000000001
sg884
S'CACHE_ALL_RSN_ALL_SIT'
p905
sS'rsn_cache_ratio'
p906
I64
ssS'warmup_strategy'
p907
g11
(tRp908
S'p'
F0.10000000000000001
sg884
S'NDN'
p909
ssS'topology'
p910
g11
(tRp911
S'ext_delay'
p912
I2
sS'source_ratio'
p913
F1
sg884
S'ROCKET_FUEL'
p914
sS'asn'
p915
I3257
ssg11
(tRp916
S'CACHE_HIT_RATIO'
p917
g11
(tRp918
S'MEAN_NETWORK_HITS'
p919
F0.24606409527610801
sS'MEAN_USER_HITS'
p920
F0
sS'MEAN'
p921
F0.24606409527610801
ssS'OVERHEAD'
p922
g11
(tRp923
g921
F2.292045138426928
ssS'ABS'
p924
g11
(tRp925
S'MEAN_ABS_TIME'
p926
F24644.464384373536
sS'NUM_ABS'
p927
I28938
sstp928
a(g11
(tRp929
S'workload'
p930
g11
(tRp931
S'n_contents'
p932
I10000
sS'disconnection_rate'
p933
F0.0025000000000000001
sS'name'
p934
S'STATIONARY_SIT'
p935
sS'n_warmup'
p936
I36000
sS'rate'
p937
I10
sS'n_measured'
p938
I108000
sS'alpha'
p939
F0.69999999999999996
ssS'cache_policy'
p940
g11
(tRp941
g934
S'LRU'
p942
ssS'desc'
p943
S'strategy: SIT_ONLY caching probability: 0.9'
p944
sS'strategy'
p945
g11
(tRp946
S'p'
F0.90000000000000002
sg934
S'SIT_ONLY'
p947
sS'fan_out'
p948
I100
ssS'content_placement'
p949
g11
(tRp950
g934
S'UNIFORM'
p951
ssS'joint_cache_rsn_placement'
p952
g11
(tRp953
S'network_cache'
p954
F0.90000000000000002
sS'network_rsn'
p955
F57.600000000000001
sg934
S'CACHE_ALL_RSN_ALL_SIT'
p956
sS'rsn_cache_ratio'
p957
I64
ssS'warmup_strategy'
p958
g11
(tRp959
S'p'
F0.10000000000000001
sg934
S'NDN'
p960
ssS'topology'
p961
g11
(tRp962
S'ext_delay'
p963
I2
sS'source_ratio'
p964
F1
sg934
S'ROCKET_FUEL'
p965
sS'asn'
p966
I3257
ssg11
(tRp967
S'CACHE_HIT_RATIO'
p968
g11
(tRp969
S'MEAN_NETWORK_HITS'
p970
F0.021080889347500121
sS'MEAN_USER_HITS'
p971
F0.0079526949679957441
sS'MEAN'
p972
F0.029033584315495863
ssS'OVERHEAD'
p973
g11
(tRp974
g972
F0.037304709543233963
ssS'ABS'
p975
g11
(tRp976
S'MEAN_ABS_TIME'
p977
F4988.2819849890311
sS'NUM_ABS'
p978
I8504
sstp979
a(g11
(tRp980
S'workload'
p981
g11
(tRp982
S'n_contents'
p983
I10000
sS'disconnection_rate'
p984
F0.0025000000000000001
sS'name'
p985
S'STATIONARY_SIT'
p986
sS'n_warmup'
p987
I36000
sS'rate'
p988
I10
sS'n_measured'
p989
I108000
sS'alpha'
p990
F0.69999999999999996
ssS'cache_policy'
p991
g11
(tRp992
g985
S'LRU'
p993
ssS'desc'
p994
S'strategy: SIT_ONLY caching probability: 0.5'
p995
sS'strategy'
p996
g11
(tRp997
S'p'
F0.5
sg985
S'SIT_ONLY'
p998
sS'fan_out'
p999
I100
ssS'content_placement'
p1000
g11
(tRp1001
g985
S'UNIFORM'
p1002
ssS'joint_cache_rsn_placement'
p1003
g11
(tRp1004
S'network_cache'
p1005
F0.90000000000000002
sS'network_rsn'
p1006
F57.600000000000001
sg985
S'CACHE_ALL_RSN_ALL_SIT'
p1007
sS'rsn_cache_ratio'
p1008
I64
ssS'warmup_strategy'
p1009
g11
(tRp1010
S'p'
F0.10000000000000001
sg985
S'NDN'
p1011
ssS'topology'
p1012
g11
(tRp1013
S'ext_delay'
p1014
I2
sS'source_ratio'
p1015
F1
sg985
S'ROCKET_FUEL'
p1016
sS'asn'
p1017
I3257
ssg11
(tRp1018
S'CACHE_HIT_RATIO'
p1019
g11
(tRp1020
S'MEAN_NETWORK_HITS'
p1021
F0.02073234665483728
sS'MEAN_USER_HITS'
p1022
F0.0078154615477678754
sS'MEAN'
p1023
F0.028547808202605152
ssS'OVERHEAD'
p1024
g11
(tRp1025
g1023
F0.037839254748558294
ssS'ABS'
p1026
g11
(tRp1027
S'MEAN_ABS_TIME'
p1028
F5003.7518015856313
sS'NUM_ABS'
p1029
I8507
sstp1030
a(g11
(tRp1031
S'workload'
p1032
g11
(tRp1033
S'n_contents'
p1034
I10000
sS'disconnection_rate'
p1035
F0.0025000000000000001
sS'name'
p1036
S'STATIONARY_SIT'
p1037
sS'n_warmup'
p1038
I36000
sS'rate'
p1039
I10
sS'n_measured'
p1040
I108000
sS'alpha'
p1041
F0.69999999999999996
ssS'cache_policy'
p1042
g11
(tRp1043
g1036
S'LRU'
p1044
ssS'desc'
p1045
S'strategy: NDN_SIT caching probability: 0.1'
p1046
sS'strategy'
p1047
g11
(tRp1048
S'p'
F0.10000000000000001
sg1036
S'NDN_SIT'
p1049
ssS'content_placement'
p1050
g11
(tRp1051
g1036
S'UNIFORM'
p1052
ssS'joint_cache_rsn_placement'
p1053
g11
(tRp1054
S'network_cache'
p1055
F0.90000000000000002
sS'network_rsn'
p1056
F57.600000000000001
sg1036
S'CACHE_ALL_RSN_ALL_SIT'
p1057
sS'rsn_cache_ratio'
p1058
I64
ssS'warmup_strategy'
p1059
g11
(tRp1060
S'p'
F0.10000000000000001
sg1036
S'NDN'
p1061
ssS'topology'
p1062
g11
(tRp1063
S'ext_delay'
p1064
I2
sS'source_ratio'
p1065
F1
sg1036
S'ROCKET_FUEL'
p1066
sS'asn'
p1067
I3257
ssg11
(tRp1068
S'CACHE_HIT_RATIO'
p1069
g11
(tRp1070
S'MEAN_NETWORK_HITS'
p1071
F0.25168529359588432
sS'MEAN_USER_HITS'
p1072
F0
sS'MEAN'
p1073
F0.25168529359588432
ssS'OVERHEAD'
p1074
g11
(tRp1075
g1073
F2.2664618510813295
ssS'ABS'
p1076
g11
(tRp1077
S'MEAN_ABS_TIME'
p1078
F22097.047804477948
sS'NUM_ABS'
p1079
I26393
sstp1080
a(g11
(tRp1081
S'workload'
p1082
g11
(tRp1083
S'n_contents'
p1084
I10000
sS'disconnection_rate'
p1085
F0.0025000000000000001
sS'name'
p1086
S'STATIONARY_SIT'
p1087
sS'n_warmup'
p1088
I36000
sS'rate'
p1089
I10
sS'n_measured'
p1090
I108000
sS'alpha'
p1091
F0.69999999999999996
ssS'cache_policy'
p1092
g11
(tRp1093
g1086
S'LRU'
p1094
ssS'desc'
p1095
S'strategy: SIT_ONLY caching probability: 1.0'
p1096
sS'strategy'
p1097
g11
(tRp1098
S'p'
F1
sg1086
S'SIT_ONLY'
p1099
sS'fan_out'
p1100
I100
ssS'content_placement'
p1101
g11
(tRp1102
g1086
S'UNIFORM'
p1103
ssS'joint_cache_rsn_placement'
p1104
g11
(tRp1105
S'network_cache'
p1106
F0.90000000000000002
sS'network_rsn'
p1107
F57.600000000000001
sg1086
S'CACHE_ALL_RSN_ALL_SIT'
p1108
sS'rsn_cache_ratio'
p1109
I64
ssS'warmup_strategy'
p1110
g11
(tRp1111
S'p'
F0.10000000000000001
sg1086
S'NDN'
p1112
ssS'topology'
p1113
g11
(tRp1114
S'ext_delay'
p1115
I2
sS'source_ratio'
p1116
F1
sg1086
S'ROCKET_FUEL'
p1117
sS'asn'
p1118
I3257
ssg11
(tRp1119
S'CACHE_HIT_RATIO'
p1120
g11
(tRp1121
S'MEAN_NETWORK_HITS'
p1122
F0.021786378170879722
sS'MEAN_USER_HITS'
p1123
F0.0080726131960209523
sS'MEAN'
p1124
F0.029858991366900674
ssS'OVERHEAD'
p1125
g11
(tRp1126
g1124
F0.039020318630317061
ssS'ABS'
p1127
g11
(tRp1128
S'MEAN_ABS_TIME'
p1129
F4961.0482286885835
sS'NUM_ABS'
p1130
I8527
sstp1131
a(g11
(tRp1132
S'workload'
p1133
g11
(tRp1134
S'n_contents'
p1135
I10000
sS'disconnection_rate'
p1136
F0.0025000000000000001
sS'name'
p1137
S'STATIONARY_SIT'
p1138
sS'n_warmup'
p1139
I36000
sS'rate'
p1140
I10
sS'n_measured'
p1141
I108000
sS'alpha'
p1142
F0.69999999999999996
ssS'cache_policy'
p1143
g11
(tRp1144
g1137
S'LRU'
p1145
ssS'desc'
p1146
S'strategy: NDN_SIT caching probability: 0.3'
p1147
sS'strategy'
p1148
g11
(tRp1149
S'p'
F0.29999999999999999
sg1137
S'NDN_SIT'
p1150
ssS'content_placement'
p1151
g11
(tRp1152
g1137
S'UNIFORM'
p1153
ssS'joint_cache_rsn_placement'
p1154
g11
(tRp1155
S'network_cache'
p1156
F0.90000000000000002
sS'network_rsn'
p1157
F57.600000000000001
sg1137
S'CACHE_ALL_RSN_ALL_SIT'
p1158
sS'rsn_cache_ratio'
p1159
I64
ssS'warmup_strategy'
p1160
g11
(tRp1161
S'p'
F0.10000000000000001
sg1137
S'NDN'
p1162
ssS'topology'
p1163
g11
(tRp1164
S'ext_delay'
p1165
I2
sS'source_ratio'
p1166
F1
sg1137
S'ROCKET_FUEL'
p1167
sS'asn'
p1168
I3257
ssg11
(tRp1169
S'CACHE_HIT_RATIO'
p1170
g11
(tRp1171
S'MEAN_NETWORK_HITS'
p1172
F0.24249036968315754
sS'MEAN_USER_HITS'
p1173
F0
sS'MEAN'
p1174
F0.24249036968315754
ssS'OVERHEAD'
p1175
g11
(tRp1176
g1174
F2.3092874573946713
ssS'ABS'
p1177
g11
(tRp1178
S'MEAN_ABS_TIME'
p1179
F26876.19025529045
sS'NUM_ABS'
p1180
I31465
sstp1181
a(g11
(tRp1182
S'workload'
p1183
g11
(tRp1184
S'n_contents'
p1185
I10000
sS'disconnection_rate'
p1186
F0.0025000000000000001
sS'name'
p1187
S'STATIONARY_SIT'
p1188
sS'n_warmup'
p1189
I36000
sS'rate'
p1190
I10
sS'n_measured'
p1191
I108000
sS'alpha'
p1192
F0.69999999999999996
ssS'cache_policy'
p1193
g11
(tRp1194
g1187
S'LRU'
p1195
ssS'desc'
p1196
S'strategy: SIT_WITH_SCOPED_FLOODING caching probability: 0.2'
p1197
sS'strategy'
p1198
g11
(tRp1199
S'fan_out'
p1200
I1
sg1187
S'SIT_WITH_SCOPED_FLOODING'
p1201
sS'p'
F0.20000000000000001
sS'scope'
p1202
I1
ssS'content_placement'
p1203
g11
(tRp1204
g1187
S'UNIFORM'
p1205
ssS'joint_cache_rsn_placement'
p1206
g11
(tRp1207
S'network_cache'
p1208
F0.90000000000000002
sS'network_rsn'
p1209
F57.600000000000001
sg1187
S'CACHE_ALL_RSN_ALL_SIT'
p1210
sS'rsn_cache_ratio'
p1211
I64
ssS'warmup_strategy'
p1212
g11
(tRp1213
S'p'
F0.10000000000000001
sg1187
S'NDN'
p1214
ssS'topology'
p1215
g11
(tRp1216
S'ext_delay'
p1217
I2
sS'source_ratio'
p1218
F1
sg1187
S'ROCKET_FUEL'
p1219
sS'asn'
p1220
I3257
ssg11
(tRp1221
S'CACHE_HIT_RATIO'
p1222
g11
(tRp1223
S'MEAN_NETWORK_HITS'
p1224
F0.072263065141207172
sS'MEAN_USER_HITS'
p1225
F0.019808927728869333
sS'MEAN'
p1226
F0.092071992870076502
ssS'OVERHEAD'
p1227
g11
(tRp1228
g1226
F0.21199020845347605
ssS'ABS'
p1229
g11
(tRp1230
S'MEAN_ABS_TIME'
p1231
F5625.8839865588789
sS'NUM_ABS'
p1232
I9024
sstp1233
a(g11
(tRp1234
S'workload'
p1235
g11
(tRp1236
S'n_contents'
p1237
I10000
sS'disconnection_rate'
p1238
F0.0025000000000000001
sS'name'
p1239
S'STATIONARY_SIT'
p1240
sS'n_warmup'
p1241
I36000
sS'rate'
p1242
I10
sS'n_measured'
p1243
I108000
sS'alpha'
p1244
F0.69999999999999996
ssS'cache_policy'
p1245
g11
(tRp1246
g1239
S'LRU'
p1247
ssS'desc'
p1248
S'strategy: NDN_SIT caching probability: 0.4'
p1249
sS'strategy'
p1250
g11
(tRp1251
S'p'
F0.40000000000000002
sg1239
S'NDN_SIT'
p1252
ssS'content_placement'
p1253
g11
(tRp1254
g1239
S'UNIFORM'
p1255
ssS'joint_cache_rsn_placement'
p1256
g11
(tRp1257
S'network_cache'
p1258
F0.90000000000000002
sS'network_rsn'
p1259
F57.600000000000001
sg1239
S'CACHE_ALL_RSN_ALL_SIT'
p1260
sS'rsn_cache_ratio'
p1261
I64
ssS'warmup_strategy'
p1262
g11
(tRp1263
S'p'
F0.10000000000000001
sg1239
S'NDN'
p1264
ssS'topology'
p1265
g11
(tRp1266
S'ext_delay'
p1267
I2
sS'source_ratio'
p1268
F1
sg1239
S'ROCKET_FUEL'
p1269
sS'asn'
p1270
I3257
ssg11
(tRp1271
S'CACHE_HIT_RATIO'
p1272
g11
(tRp1273
S'MEAN_NETWORK_HITS'
p1274
F0.23236246737898461
sS'MEAN_USER_HITS'
p1275
F0
sS'MEAN'
p1276
F0.23236246737898461
ssS'OVERHEAD'
p1277
g11
(tRp1278
g1276
F2.3229914126563491
ssS'ABS'
p1279
g11
(tRp1280
S'MEAN_ABS_TIME'
p1281
F28347.25412565787
sS'NUM_ABS'
p1282
I33228
sstp1283
a(g11
(tRp1284
S'workload'
p1285
g11
(tRp1286
S'n_contents'
p1287
I10000
sS'disconnection_rate'
p1288
F0.0025000000000000001
sS'name'
p1289
S'STATIONARY_SIT'
p1290
sS'n_warmup'
p1291
I36000
sS'rate'
p1292
I10
sS'n_measured'
p1293
I108000
sS'alpha'
p1294
F0.69999999999999996
ssS'cache_policy'
p1295
g11
(tRp1296
g1289
S'LRU'
p1297
ssS'desc'
p1298
S'strategy: SIT_WITH_SCOPED_FLOODING caching probability: 0.1'
p1299
sS'strategy'
p1300
g11
(tRp1301
S'fan_out'
p1302
I1
sg1289
S'SIT_WITH_SCOPED_FLOODING'
p1303
sS'p'
F0.10000000000000001
sS'scope'
p1304
I1
ssS'content_placement'
p1305
g11
(tRp1306
g1289
S'UNIFORM'
p1307
ssS'joint_cache_rsn_placement'
p1308
g11
(tRp1309
S'network_cache'
p1310
F0.90000000000000002
sS'network_rsn'
p1311
F57.600000000000001
sg1289
S'CACHE_ALL_RSN_ALL_SIT'
p1312
sS'rsn_cache_ratio'
p1313
I64
ssS'warmup_strategy'
p1314
g11
(tRp1315
S'p'
F0.10000000000000001
sg1289
S'NDN'
p1316
ssS'topology'
p1317
g11
(tRp1318
S'ext_delay'
p1319
I2
sS'source_ratio'
p1320
F1
sg1289
S'ROCKET_FUEL'
p1321
sS'asn'
p1322
I3257
ssg11
(tRp1323
S'CACHE_HIT_RATIO'
p1324
g11
(tRp1325
S'MEAN_NETWORK_HITS'
p1326
F0.064763663637023475
sS'MEAN_USER_HITS'
p1327
F0.02183923804608176
sS'MEAN'
p1328
F0.086602901683105235
ssS'OVERHEAD'
p1329
g11
(tRp1330
g1328
F0.20735985548037453
ssS'ABS'
p1331
g11
(tRp1332
S'MEAN_ABS_TIME'
p1333
F5648.9038079408365
sS'NUM_ABS'
p1334
I9129
sstp1335
a(g11
(tRp1336
S'workload'
p1337
g11
(tRp1338
S'n_contents'
p1339
I10000
sS'disconnection_rate'
p1340
F0.0025000000000000001
sS'name'
p1341
S'STATIONARY_SIT'
p1342
sS'n_warmup'
p1343
I36000
sS'rate'
p1344
I10
sS'n_measured'
p1345
I108000
sS'alpha'
p1346
F0.69999999999999996
ssS'cache_policy'
p1347
g11
(tRp1348
g1341
S'LRU'
p1349
ssS'desc'
p1350
S'strategy: NDN_SIT caching probability: 0.5'
p1351
sS'strategy'
p1352
g11
(tRp1353
S'p'
F0.5
sg1341
S'NDN_SIT'
p1354
ssS'content_placement'
p1355
g11
(tRp1356
g1341
S'UNIFORM'
p1357
ssS'joint_cache_rsn_placement'
p1358
g11
(tRp1359
S'network_cache'
p1360
F0.90000000000000002
sS'network_rsn'
p1361
F57.600000000000001
sg1341
S'CACHE_ALL_RSN_ALL_SIT'
p1362
sS'rsn_cache_ratio'
p1363
I64
ssS'warmup_strategy'
p1364
g11
(tRp1365
S'p'
F0.10000000000000001
sg1341
S'NDN'
p1366
ssS'topology'
p1367
g11
(tRp1368
S'ext_delay'
p1369
I2
sS'source_ratio'
p1370
F1
sg1341
S'ROCKET_FUEL'
p1371
sS'asn'
p1372
I3257
ssg11
(tRp1373
S'CACHE_HIT_RATIO'
p1374
g11
(tRp1375
S'MEAN_NETWORK_HITS'
p1376
F0.23152759016955304
sS'MEAN_USER_HITS'
p1377
F0
sS'MEAN'
p1378
F0.23152759016955304
ssS'OVERHEAD'
p1379
g11
(tRp1380
g1378
F2.3299368964335399
ssS'ABS'
p1381
g11
(tRp1382
S'MEAN_ABS_TIME'
p1383
F29743.722628945521
sS'NUM_ABS'
p1384
I34815
sstp1385
a(g11
(tRp1386
S'workload'
p1387
g11
(tRp1388
S'n_contents'
p1389
I10000
sS'disconnection_rate'
p1390
F0.0025000000000000001
sS'name'
p1391
S'STATIONARY_SIT'
p1392
sS'n_warmup'
p1393
I36000
sS'rate'
p1394
I10
sS'n_measured'
p1395
I108000
sS'alpha'
p1396
F0.69999999999999996
ssS'cache_policy'
p1397
g11
(tRp1398
g1391
S'LRU'
p1399
ssS'desc'
p1400
S'strategy: SIT_WITH_SCOPED_FLOODING caching probability: 0.3'
p1401
sS'strategy'
p1402
g11
(tRp1403
S'fan_out'
p1404
I1
sg1391
S'SIT_WITH_SCOPED_FLOODING'
p1405
sS'p'
F0.29999999999999999
sS'scope'
p1406
I1
ssS'content_placement'
p1407
g11
(tRp1408
g1391
S'UNIFORM'
p1409
ssS'joint_cache_rsn_placement'
p1410
g11
(tRp1411
S'network_cache'
p1412
F0.90000000000000002
sS'network_rsn'
p1413
F57.600000000000001
sg1391
S'CACHE_ALL_RSN_ALL_SIT'
p1414
sS'rsn_cache_ratio'
p1415
I64
ssS'warmup_strategy'
p1416
g11
(tRp1417
S'p'
F0.10000000000000001
sg1391
S'NDN'
p1418
ssS'topology'
p1419
g11
(tRp1420
S'ext_delay'
p1421
I2
sS'source_ratio'
p1422
F1
sg1391
S'ROCKET_FUEL'
p1423
sS'asn'
p1424
I3257
ssg11
(tRp1425
S'CACHE_HIT_RATIO'
p1426
g11
(tRp1427
S'MEAN_NETWORK_HITS'
p1428
F0.075783965101558659
sS'MEAN_USER_HITS'
p1429
F0.018400703129409678
sS'MEAN'
p1430
F0.094184668230968341
ssS'OVERHEAD'
p1431
g11
(tRp1432
g1430
F0.21083399856471291
ssS'ABS'
p1433
g11
(tRp1434
S'MEAN_ABS_TIME'
p1435
F5579.7497053075913
sS'NUM_ABS'
p1436
I9133
sstp1437
a(g11
(tRp1438
S'workload'
p1439
g11
(tRp1440
S'n_contents'
p1441
I10000
sS'disconnection_rate'
p1442
F0.0025000000000000001
sS'name'
p1443
S'STATIONARY_SIT'
p1444
sS'n_warmup'
p1445
I36000
sS'rate'
p1446
I10
sS'n_measured'
p1447
I108000
sS'alpha'
p1448
F0.69999999999999996
ssS'cache_policy'
p1449
g11
(tRp1450
g1443
S'LRU'
p1451
ssS'desc'
p1452
S'strategy: SIT_WITH_SCOPED_FLOODING caching probability: 0.4'
p1453
sS'strategy'
p1454
g11
(tRp1455
S'fan_out'
p1456
I1
sg1443
S'SIT_WITH_SCOPED_FLOODING'
p1457
sS'p'
F0.40000000000000002
sS'scope'
p1458
I1
ssS'content_placement'
p1459
g11
(tRp1460
g1443
S'UNIFORM'
p1461
ssS'joint_cache_rsn_placement'
p1462
g11
(tRp1463
S'network_cache'
p1464
F0.90000000000000002
sS'network_rsn'
p1465
F57.600000000000001
sg1443
S'CACHE_ALL_RSN_ALL_SIT'
p1466
sS'rsn_cache_ratio'
p1467
I64
ssS'warmup_strategy'
p1468
g11
(tRp1469
S'p'
F0.10000000000000001
sg1443
S'NDN'
p1470
ssS'topology'
p1471
g11
(tRp1472
S'ext_delay'
p1473
I2
sS'source_ratio'
p1474
F1
sg1443
S'ROCKET_FUEL'
p1475
sS'asn'
p1476
I3257
ssg11
(tRp1477
S'CACHE_HIT_RATIO'
p1478
g11
(tRp1479
S'MEAN_NETWORK_HITS'
p1480
F0.079463896908214121
sS'MEAN_USER_HITS'
p1481
F0.017390287566730642
sS'MEAN'
p1482
F0.09685418447494476
ssS'OVERHEAD'
p1483
g11
(tRp1484
g1482
F0.21864667838652968
ssS'ABS'
p1485
g11
(tRp1486
S'MEAN_ABS_TIME'
p1487
F5636.1917643023598
sS'NUM_ABS'
p1488
I9127
sstp1489
a(g11
(tRp1490
S'workload'
p1491
g11
(tRp1492
S'n_contents'
p1493
I10000
sS'disconnection_rate'
p1494
F0.0025000000000000001
sS'name'
p1495
S'STATIONARY_SIT'
p1496
sS'n_warmup'
p1497
I36000
sS'rate'
p1498
I10
sS'n_measured'
p1499
I108000
sS'alpha'
p1500
F0.69999999999999996
ssS'cache_policy'
p1501
g11
(tRp1502
g1495
S'LRU'
p1503
ssS'desc'
p1504
S'strategy: SIT_WITH_SCOPED_FLOODING caching probability: 0.8'
p1505
sS'strategy'
p1506
g11
(tRp1507
S'fan_out'
p1508
I1
sg1495
S'SIT_WITH_SCOPED_FLOODING'
p1509
sS'p'
F0.80000000000000004
sS'scope'
p1510
I1
ssS'content_placement'
p1511
g11
(tRp1512
g1495
S'UNIFORM'
p1513
ssS'joint_cache_rsn_placement'
p1514
g11
(tRp1515
S'network_cache'
p1516
F0.90000000000000002
sS'network_rsn'
p1517
F57.600000000000001
sg1495
S'CACHE_ALL_RSN_ALL_SIT'
p1518
sS'rsn_cache_ratio'
p1519
I64
ssS'warmup_strategy'
p1520
g11
(tRp1521
S'p'
F0.10000000000000001
sg1495
S'NDN'
p1522
ssS'topology'
p1523
g11
(tRp1524
S'ext_delay'
p1525
I2
sS'source_ratio'
p1526
F1
sg1495
S'ROCKET_FUEL'
p1527
sS'asn'
p1528
I3257
ssg11
(tRp1529
S'CACHE_HIT_RATIO'
p1530
g11
(tRp1531
S'MEAN_NETWORK_HITS'
p1532
F0.082686942639209171
sS'MEAN_USER_HITS'
p1533
F0.015573849800841786
sS'MEAN'
p1534
F0.098260792440050954
ssS'OVERHEAD'
p1535
g11
(tRp1536
g1534
F0.21723968328199836
ssS'ABS'
p1537
g11
(tRp1538
S'MEAN_ABS_TIME'
p1539
F5545.8276842053983
sS'NUM_ABS'
p1540
I9160
sstp1541
a(g11
(tRp1542
S'workload'
p1543
g11
(tRp1544
S'n_contents'
p1545
I10000
sS'disconnection_rate'
p1546
F0.0025000000000000001
sS'name'
p1547
S'STATIONARY_SIT'
p1548
sS'n_warmup'
p1549
I36000
sS'rate'
p1550
I10
sS'n_measured'
p1551
I108000
sS'alpha'
p1552
F0.69999999999999996
ssS'cache_policy'
p1553
g11
(tRp1554
g1547
S'LRU'
p1555
ssS'desc'
p1556
S'strategy: SIT_WITH_SCOPED_FLOODING caching probability: 0.5'
p1557
sS'strategy'
p1558
g11
(tRp1559
S'fan_out'
p1560
I1
sg1547
S'SIT_WITH_SCOPED_FLOODING'
p1561
sS'p'
F0.5
sS'scope'
p1562
I1
ssS'content_placement'
p1563
g11
(tRp1564
g1547
S'UNIFORM'
p1565
ssS'joint_cache_rsn_placement'
p1566
g11
(tRp1567
S'network_cache'
p1568
F0.90000000000000002
sS'network_rsn'
p1569
F57.600000000000001
sg1547
S'CACHE_ALL_RSN_ALL_SIT'
p1570
sS'rsn_cache_ratio'
p1571
I64
ssS'warmup_strategy'
p1572
g11
(tRp1573
S'p'
F0.10000000000000001
sg1547
S'NDN'
p1574
ssS'topology'
p1575
g11
(tRp1576
S'ext_delay'
p1577
I2
sS'source_ratio'
p1578
F1
sg1547
S'ROCKET_FUEL'
p1579
sS'asn'
p1580
I3257
ssg11
(tRp1581
S'CACHE_HIT_RATIO'
p1582
g11
(tRp1583
S'MEAN_NETWORK_HITS'
p1584
F0.079982253055297867
sS'MEAN_USER_HITS'
p1585
F0.017214536361069656
sS'MEAN'
p1586
F0.097196789416367529
ssS'OVERHEAD'
p1587
g11
(tRp1588
g1586
F0.21689993143225911
ssS'ABS'
p1589
g11
(tRp1590
S'MEAN_ABS_TIME'
p1591
F5723.0905884118529
sS'NUM_ABS'
p1592
I9239
sstp1593
a(g11
(tRp1594
S'workload'
p1595
g11
(tRp1596
S'n_contents'
p1597
I10000
sS'disconnection_rate'
p1598
F0.0025000000000000001
sS'name'
p1599
S'STATIONARY_SIT'
p1600
sS'n_warmup'
p1601
I36000
sS'rate'
p1602
I10
sS'n_measured'
p1603
I108000
sS'alpha'
p1604
F0.69999999999999996
ssS'cache_policy'
p1605
g11
(tRp1606
g1599
S'LRU'
p1607
ssS'desc'
p1608
S'strategy: NDN_SIT caching probability: 0.6'
p1609
sS'strategy'
p1610
g11
(tRp1611
S'p'
F0.59999999999999998
sg1599
S'NDN_SIT'
p1612
ssS'content_placement'
p1613
g11
(tRp1614
g1599
S'UNIFORM'
p1615
ssS'joint_cache_rsn_placement'
p1616
g11
(tRp1617
S'network_cache'
p1618
F0.90000000000000002
sS'network_rsn'
p1619
F57.600000000000001
sg1599
S'CACHE_ALL_RSN_ALL_SIT'
p1620
sS'rsn_cache_ratio'
p1621
I64
ssS'warmup_strategy'
p1622
g11
(tRp1623
S'p'
F0.10000000000000001
sg1599
S'NDN'
p1624
ssS'topology'
p1625
g11
(tRp1626
S'ext_delay'
p1627
I2
sS'source_ratio'
p1628
F1
sg1599
S'ROCKET_FUEL'
p1629
sS'asn'
p1630
I3257
ssg11
(tRp1631
S'CACHE_HIT_RATIO'
p1632
g11
(tRp1633
S'MEAN_NETWORK_HITS'
p1634
F0.22401216173167574
sS'MEAN_USER_HITS'
p1635
F0
sS'MEAN'
p1636
F0.22401216173167574
ssS'OVERHEAD'
p1637
g11
(tRp1638
g1636
F2.3472424402498477
ssS'ABS'
p1639
g11
(tRp1640
S'MEAN_ABS_TIME'
p1641
F30475.249394624458
sS'NUM_ABS'
p1642
I35810
sstp1643
a(g11
(tRp1644
S'workload'
p1645
g11
(tRp1646
S'n_contents'
p1647
I10000
sS'disconnection_rate'
p1648
F0.0025000000000000001
sS'name'
p1649
S'STATIONARY_SIT'
p1650
sS'n_warmup'
p1651
I36000
sS'rate'
p1652
I10
sS'n_measured'
p1653
I108000
sS'alpha'
p1654
F0.69999999999999996
ssS'cache_policy'
p1655
g11
(tRp1656
g1649
S'LRU'
p1657
ssS'desc'
p1658
S'strategy: NDN_SIT caching probability: 0.7'
p1659
sS'strategy'
p1660
g11
(tRp1661
S'p'
F0.69999999999999996
sg1649
S'NDN_SIT'
p1662
ssS'content_placement'
p1663
g11
(tRp1664
g1649
S'UNIFORM'
p1665
ssS'joint_cache_rsn_placement'
p1666
g11
(tRp1667
S'network_cache'
p1668
F0.90000000000000002
sS'network_rsn'
p1669
F57.600000000000001
sg1649
S'CACHE_ALL_RSN_ALL_SIT'
p1670
sS'rsn_cache_ratio'
p1671
I64
ssS'warmup_strategy'
p1672
g11
(tRp1673
S'p'
F0.10000000000000001
sg1649
S'NDN'
p1674
ssS'topology'
p1675
g11
(tRp1676
S'ext_delay'
p1677
I2
sS'source_ratio'
p1678
F1
sg1649
S'ROCKET_FUEL'
p1679
sS'asn'
p1680
I3257
ssg11
(tRp1681
S'CACHE_HIT_RATIO'
p1682
g11
(tRp1683
S'MEAN_NETWORK_HITS'
p1684
F0.22275401295920713
sS'MEAN_USER_HITS'
p1685
F0
sS'MEAN'
p1686
F0.22275401295920713
ssS'OVERHEAD'
p1687
g11
(tRp1688
g1686
F2.358607953743614
ssS'ABS'
p1689
g11
(tRp1690
S'MEAN_ABS_TIME'
p1691
F31598.658845597009
sS'NUM_ABS'
p1692
I37069
sstp1693
a(g11
(tRp1694
S'workload'
p1695
g11
(tRp1696
S'n_contents'
p1697
I10000
sS'disconnection_rate'
p1698
F0.0025000000000000001
sS'name'
p1699
S'STATIONARY_SIT'
p1700
sS'n_warmup'
p1701
I36000
sS'rate'
p1702
I10
sS'n_measured'
p1703
I108000
sS'alpha'
p1704
F0.69999999999999996
ssS'cache_policy'
p1705
g11
(tRp1706
g1699
S'LRU'
p1707
ssS'desc'
p1708
S'strategy: SIT_WITH_SCOPED_FLOODING caching probability: 0.6'
p1709
sS'strategy'
p1710
g11
(tRp1711
S'fan_out'
p1712
I1
sg1699
S'SIT_WITH_SCOPED_FLOODING'
p1713
sS'p'
F0.59999999999999998
sS'scope'
p1714
I1
ssS'content_placement'
p1715
g11
(tRp1716
g1699
S'UNIFORM'
p1717
ssS'joint_cache_rsn_placement'
p1718
g11
(tRp1719
S'network_cache'
p1720
F0.90000000000000002
sS'network_rsn'
p1721
F57.600000000000001
sg1699
S'CACHE_ALL_RSN_ALL_SIT'
p1722
sS'rsn_cache_ratio'
p1723
I64
ssS'warmup_strategy'
p1724
g11
(tRp1725
S'p'
F0.10000000000000001
sg1699
S'NDN'
p1726
ssS'topology'
p1727
g11
(tRp1728
S'ext_delay'
p1729
I2
sS'source_ratio'
p1730
F1
sg1699
S'ROCKET_FUEL'
p1731
sS'asn'
p1732
I3257
ssg11
(tRp1733
S'CACHE_HIT_RATIO'
p1734
g11
(tRp1735
S'MEAN_NETWORK_HITS'
p1736
F0.081450809790869536
sS'MEAN_USER_HITS'
p1737
F0.016550617473097686
sS'MEAN'
p1738
F0.098001427263967225
ssS'OVERHEAD'
p1739
g11
(tRp1740
g1738
F0.21678688207332267
ssS'ABS'
p1741
g11
(tRp1742
S'MEAN_ABS_TIME'
p1743
F5567.9025070686957
sS'NUM_ABS'
p1744
I9179
sstp1745
a(g11
(tRp1746
S'workload'
p1747
g11
(tRp1748
S'n_contents'
p1749
I10000
sS'disconnection_rate'
p1750
F0.0025000000000000001
sS'name'
p1751
S'STATIONARY_SIT'
p1752
sS'n_warmup'
p1753
I36000
sS'rate'
p1754
I10
sS'n_measured'
p1755
I108000
sS'alpha'
p1756
F0.69999999999999996
ssS'cache_policy'
p1757
g11
(tRp1758
g1751
S'LRU'
p1759
ssS'desc'
p1760
S'strategy: SIT_WITH_SCOPED_FLOODING caching probability: 0.9'
p1761
sS'strategy'
p1762
g11
(tRp1763
S'fan_out'
p1764
I1
sg1751
S'SIT_WITH_SCOPED_FLOODING'
p1765
sS'p'
F0.90000000000000002
sS'scope'
p1766
I1
ssS'content_placement'
p1767
g11
(tRp1768
g1751
S'UNIFORM'
p1769
ssS'joint_cache_rsn_placement'
p1770
g11
(tRp1771
S'network_cache'
p1772
F0.90000000000000002
sS'network_rsn'
p1773
F57.600000000000001
sg1751
S'CACHE_ALL_RSN_ALL_SIT'
p1774
sS'rsn_cache_ratio'
p1775
I64
ssS'warmup_strategy'
p1776
g11
(tRp1777
S'p'
F0.10000000000000001
sg1751
S'NDN'
p1778
ssS'topology'
p1779
g11
(tRp1780
S'ext_delay'
p1781
I2
sS'source_ratio'
p1782
F1
sg1751
S'ROCKET_FUEL'
p1783
sS'asn'
p1784
I3257
ssg11
(tRp1785
S'CACHE_HIT_RATIO'
p1786
g11
(tRp1787
S'MEAN_NETWORK_HITS'
p1788
F0.083350137525508766
sS'MEAN_USER_HITS'
p1789
F0.016071529396581623
sS'MEAN'
p1790
F0.099421666922090382
ssS'OVERHEAD'
p1791
g11
(tRp1792
g1790
F0.22220653830952516
ssS'ABS'
p1793
g11
(tRp1794
S'MEAN_ABS_TIME'
p1795
F5582.7715358492442
sS'NUM_ABS'
p1796
I9217
sstp1797
a(g11
(tRp1798
S'workload'
p1799
g11
(tRp1800
S'n_contents'
p1801
I10000
sS'disconnection_rate'
p1802
F0.0025000000000000001
sS'name'
p1803
S'STATIONARY_SIT'
p1804
sS'n_warmup'
p1805
I36000
sS'rate'
p1806
I10
sS'n_measured'
p1807
I108000
sS'alpha'
p1808
F0.69999999999999996
ssS'cache_policy'
p1809
g11
(tRp1810
g1803
S'LRU'
p1811
ssS'desc'
p1812
S'strategy: SIT_WITH_SCOPED_FLOODING caching probability: 0.7'
p1813
sS'strategy'
p1814
g11
(tRp1815
S'fan_out'
p1816
I1
sg1803
S'SIT_WITH_SCOPED_FLOODING'
p1817
sS'p'
F0.69999999999999996
sS'scope'
p1818
I1
ssS'content_placement'
p1819
g11
(tRp1820
g1803
S'UNIFORM'
p1821
ssS'joint_cache_rsn_placement'
p1822
g11
(tRp1823
S'network_cache'
p1824
F0.90000000000000002
sS'network_rsn'
p1825
F57.600000000000001
sg1803
S'CACHE_ALL_RSN_ALL_SIT'
p1826
sS'rsn_cache_ratio'
p1827
I64
ssS'warmup_strategy'
p1828
g11
(tRp1829
S'p'
F0.10000000000000001
sg1803
S'NDN'
p1830
ssS'topology'
p1831
g11
(tRp1832
S'ext_delay'
p1833
I2
sS'source_ratio'
p1834
F1
sg1803
S'ROCKET_FUEL'
p1835
sS'asn'
p1836
I3257
ssg11
(tRp1837
S'CACHE_HIT_RATIO'
p1838
g11
(tRp1839
S'MEAN_NETWORK_HITS'
p1840
F0.081879432767095015
sS'MEAN_USER_HITS'
p1841
F0.015745269363052445
sS'MEAN'
p1842
F0.097624702130147456
ssS'OVERHEAD'
p1843
g11
(tRp1844
g1842
F0.21882093939381722
ssS'ABS'
p1845
g11
(tRp1846
S'MEAN_ABS_TIME'
p1847
F5591.9873684432905
sS'NUM_ABS'
p1848
I9299
sstp1849
a(g11
(tRp1850
S'workload'
p1851
g11
(tRp1852
S'n_contents'
p1853
I10000
sS'disconnection_rate'
p1854
F0.0025000000000000001
sS'name'
p1855
S'STATIONARY_SIT'
p1856
sS'n_warmup'
p1857
I36000
sS'rate'
p1858
I10
sS'n_measured'
p1859
I108000
sS'alpha'
p1860
F0.69999999999999996
ssS'cache_policy'
p1861
g11
(tRp1862
g1855
S'LRU'
p1863
ssS'desc'
p1864
S'strategy: SIT_WITH_SCOPED_FLOODING caching probability: 1.0'
p1865
sS'strategy'
p1866
g11
(tRp1867
S'fan_out'
p1868
I1
sg1855
S'SIT_WITH_SCOPED_FLOODING'
p1869
sS'p'
F1
sS'scope'
p1870
I1
ssS'content_placement'
p1871
g11
(tRp1872
g1855
S'UNIFORM'
p1873
ssS'joint_cache_rsn_placement'
p1874
g11
(tRp1875
S'network_cache'
p1876
F0.90000000000000002
sS'network_rsn'
p1877
F57.600000000000001
sg1855
S'CACHE_ALL_RSN_ALL_SIT'
p1878
sS'rsn_cache_ratio'
p1879
I64
ssS'warmup_strategy'
p1880
g11
(tRp1881
S'p'
F0.10000000000000001
sg1855
S'NDN'
p1882
ssS'topology'
p1883
g11
(tRp1884
S'ext_delay'
p1885
I2
sS'source_ratio'
p1886
F1
sg1855
S'ROCKET_FUEL'
p1887
sS'asn'
p1888
I3257
ssg11
(tRp1889
S'CACHE_HIT_RATIO'
p1890
g11
(tRp1891
S'MEAN_NETWORK_HITS'
p1892
F0.083932408949242199
sS'MEAN_USER_HITS'
p1893
F0.015567230194217425
sS'MEAN'
p1894
F0.09949963914345962
ssS'OVERHEAD'
p1895
g11
(tRp1896
g1894
F0.21957818087984485
ssS'ABS'
p1897
g11
(tRp1898
S'MEAN_ABS_TIME'
p1899
F5564.6198203841668
sS'NUM_ABS'
p1900
I9171
sstp1901
a(g11
(tRp1902
S'workload'
p1903
g11
(tRp1904
S'n_contents'
p1905
I10000
sS'disconnection_rate'
p1906
F0.0025000000000000001
sS'name'
p1907
S'STATIONARY_SIT'
p1908
sS'n_warmup'
p1909
I36000
sS'rate'
p1910
I10
sS'n_measured'
p1911
I108000
sS'alpha'
p1912
F0.69999999999999996
ssS'cache_policy'
p1913
g11
(tRp1914
g1907
S'LRU'
p1915
ssS'desc'
p1916
S'strategy: NDN_SIT caching probability: 0.8'
p1917
sS'strategy'
p1918
g11
(tRp1919
S'p'
F0.80000000000000004
sg1907
S'NDN_SIT'
p1920
ssS'content_placement'
p1921
g11
(tRp1922
g1907
S'UNIFORM'
p1923
ssS'joint_cache_rsn_placement'
p1924
g11
(tRp1925
S'network_cache'
p1926
F0.90000000000000002
sS'network_rsn'
p1927
F57.600000000000001
sg1907
S'CACHE_ALL_RSN_ALL_SIT'
p1928
sS'rsn_cache_ratio'
p1929
I64
ssS'warmup_strategy'
p1930
g11
(tRp1931
S'p'
F0.10000000000000001
sg1907
S'NDN'
p1932
ssS'topology'
p1933
g11
(tRp1934
S'ext_delay'
p1935
I2
sS'source_ratio'
p1936
F1
sg1907
S'ROCKET_FUEL'
p1937
sS'asn'
p1938
I3257
ssg11
(tRp1939
S'CACHE_HIT_RATIO'
p1940
g11
(tRp1941
S'MEAN_NETWORK_HITS'
p1942
F0.21730980856904453
sS'MEAN_USER_HITS'
p1943
F0
sS'MEAN'
p1944
F0.21730980856904453
ssS'OVERHEAD'
p1945
g11
(tRp1946
g1944
F2.3686325726885387
ssS'ABS'
p1947
g11
(tRp1948
S'MEAN_ABS_TIME'
p1949
F32947.366864750453
sS'NUM_ABS'
p1950
I38481
sstp1951
a(g11
(tRp1952
S'workload'
p1953
g11
(tRp1954
S'n_contents'
p1955
I10000
sS'disconnection_rate'
p1956
F0.0025000000000000001
sS'name'
p1957
S'STATIONARY_SIT'
p1958
sS'n_warmup'
p1959
I36000
sS'rate'
p1960
I10
sS'n_measured'
p1961
I108000
sS'alpha'
p1962
F0.69999999999999996
ssS'cache_policy'
p1963
g11
(tRp1964
g1957
S'LRU'
p1965
ssS'desc'
p1966
S'strategy: SIT_WITH_SCOPED_FLOODING caching probability: 0.1'
p1967
sS'strategy'
p1968
g11
(tRp1969
S'fan_out'
p1970
I1
sg1957
S'SIT_WITH_SCOPED_FLOODING'
p1971
sS'p'
F0.10000000000000001
sS'scope'
p1972
I2
ssS'content_placement'
p1973
g11
(tRp1974
g1957
S'UNIFORM'
p1975
ssS'joint_cache_rsn_placement'
p1976
g11
(tRp1977
S'network_cache'
p1978
F0.90000000000000002
sS'network_rsn'
p1979
F57.600000000000001
sg1957
S'CACHE_ALL_RSN_ALL_SIT'
p1980
sS'rsn_cache_ratio'
p1981
I64
ssS'warmup_strategy'
p1982
g11
(tRp1983
S'p'
F0.10000000000000001
sg1957
S'NDN'
p1984
ssS'topology'
p1985
g11
(tRp1986
S'ext_delay'
p1987
I2
sS'source_ratio'
p1988
F1
sg1957
S'ROCKET_FUEL'
p1989
sS'asn'
p1990
I3257
ssg11
(tRp1991
S'CACHE_HIT_RATIO'
p1992
g11
(tRp1993
S'MEAN_NETWORK_HITS'
p1994
F0.12380956220919449
sS'MEAN_USER_HITS'
p1995
F0.040880097412284593
sS'MEAN'
p1996
F0.16468965962147908
ssS'OVERHEAD'
p1997
g11
(tRp1998
g1996
F0.77294793119854199
ssS'ABS'
p1999
g11
(tRp2000
S'MEAN_ABS_TIME'
p2001
F6679.1056334184677
sS'NUM_ABS'
p2002
I9731
sstp2003
a(g11
(tRp2004
S'workload'
p2005
g11
(tRp2006
S'n_contents'
p2007
I10000
sS'disconnection_rate'
p2008
F0.0025000000000000001
sS'name'
p2009
S'STATIONARY_SIT'
p2010
sS'n_warmup'
p2011
I36000
sS'rate'
p2012
I10
sS'n_measured'
p2013
I108000
sS'alpha'
p2014
F0.69999999999999996
ssS'cache_policy'
p2015
g11
(tRp2016
g2009
S'LRU'
p2017
ssS'desc'
p2018
S'strategy: SIT_WITH_SCOPED_FLOODING caching probability: 0.2'
p2019
sS'strategy'
p2020
g11
(tRp2021
S'fan_out'
p2022
I1
sg2009
S'SIT_WITH_SCOPED_FLOODING'
p2023
sS'p'
F0.20000000000000001
sS'scope'
p2024
I2
ssS'content_placement'
p2025
g11
(tRp2026
g2009
S'UNIFORM'
p2027
ssS'joint_cache_rsn_placement'
p2028
g11
(tRp2029
S'network_cache'
p2030
F0.90000000000000002
sS'network_rsn'
p2031
F57.600000000000001
sg2009
S'CACHE_ALL_RSN_ALL_SIT'
p2032
sS'rsn_cache_ratio'
p2033
I64
ssS'warmup_strategy'
p2034
g11
(tRp2035
S'p'
F0.10000000000000001
sg2009
S'NDN'
p2036
ssS'topology'
p2037
g11
(tRp2038
S'ext_delay'
p2039
I2
sS'source_ratio'
p2040
F1
sg2009
S'ROCKET_FUEL'
p2041
sS'asn'
p2042
I3257
ssg11
(tRp2043
S'CACHE_HIT_RATIO'
p2044
g11
(tRp2045
S'MEAN_NETWORK_HITS'
p2046
F0.12746726440043862
sS'MEAN_USER_HITS'
p2047
F0.034235309294975168
sS'MEAN'
p2048
F0.1617025736954138
ssS'OVERHEAD'
p2049
g11
(tRp2050
g2048
F0.74750048377733347
ssS'ABS'
p2051
g11
(tRp2052
S'MEAN_ABS_TIME'
p2053
F6318.1194557391782
sS'NUM_ABS'
p2054
I9560
sstp2055
a(g11
(tRp2056
S'workload'
p2057
g11
(tRp2058
S'n_contents'
p2059
I10000
sS'disconnection_rate'
p2060
F0.0025000000000000001
sS'name'
p2061
S'STATIONARY_SIT'
p2062
sS'n_warmup'
p2063
I36000
sS'rate'
p2064
I10
sS'n_measured'
p2065
I108000
sS'alpha'
p2066
F0.69999999999999996
ssS'cache_policy'
p2067
g11
(tRp2068
g2061
S'LRU'
p2069
ssS'desc'
p2070
S'strategy: NDN_SIT caching probability: 0.9'
p2071
sS'strategy'
p2072
g11
(tRp2073
S'p'
F0.90000000000000002
sg2061
S'NDN_SIT'
p2074
ssS'content_placement'
p2075
g11
(tRp2076
g2061
S'UNIFORM'
p2077
ssS'joint_cache_rsn_placement'
p2078
g11
(tRp2079
S'network_cache'
p2080
F0.90000000000000002
sS'network_rsn'
p2081
F57.600000000000001
sg2061
S'CACHE_ALL_RSN_ALL_SIT'
p2082
sS'rsn_cache_ratio'
p2083
I64
ssS'warmup_strategy'
p2084
g11
(tRp2085
S'p'
F0.10000000000000001
sg2061
S'NDN'
p2086
ssS'topology'
p2087
g11
(tRp2088
S'ext_delay'
p2089
I2
sS'source_ratio'
p2090
F1
sg2061
S'ROCKET_FUEL'
p2091
sS'asn'
p2092
I3257
ssg11
(tRp2093
S'CACHE_HIT_RATIO'
p2094
g11
(tRp2095
S'MEAN_NETWORK_HITS'
p2096
F0.21593864540868787
sS'MEAN_USER_HITS'
p2097
F0
sS'MEAN'
p2098
F0.21593864540868787
ssS'OVERHEAD'
p2099
g11
(tRp2100
g2098
F2.3703694743166359
ssS'ABS'
p2101
g11
(tRp2102
S'MEAN_ABS_TIME'
p2103
F33650.132933851812
sS'NUM_ABS'
p2104
I39571
sstp2105
a(g11
(tRp2106
S'workload'
p2107
g11
(tRp2108
S'n_contents'
p2109
I10000
sS'disconnection_rate'
p2110
F0.0025000000000000001
sS'name'
p2111
S'STATIONARY_SIT'
p2112
sS'n_warmup'
p2113
I36000
sS'rate'
p2114
I10
sS'n_measured'
p2115
I108000
sS'alpha'
p2116
F0.69999999999999996
ssS'cache_policy'
p2117
g11
(tRp2118
g2111
S'LRU'
p2119
ssS'desc'
p2120
S'strategy: NDN_SIT caching probability: 1.0'
p2121
sS'strategy'
p2122
g11
(tRp2123
S'p'
F1
sg2111
S'NDN_SIT'
p2124
ssS'content_placement'
p2125
g11
(tRp2126
g2111
S'UNIFORM'
p2127
ssS'joint_cache_rsn_placement'
p2128
g11
(tRp2129
S'network_cache'
p2130
F0.90000000000000002
sS'network_rsn'
p2131
F57.600000000000001
sg2111
S'CACHE_ALL_RSN_ALL_SIT'
p2132
sS'rsn_cache_ratio'
p2133
I64
ssS'warmup_strategy'
p2134
g11
(tRp2135
S'p'
F0.10000000000000001
sg2111
S'NDN'
p2136
ssS'topology'
p2137
g11
(tRp2138
S'ext_delay'
p2139
I2
sS'source_ratio'
p2140
F1
sg2111
S'ROCKET_FUEL'
p2141
sS'asn'
p2142
I3257
ssg11
(tRp2143
S'CACHE_HIT_RATIO'
p2144
g11
(tRp2145
S'MEAN_NETWORK_HITS'
p2146
F0.21188696136072196
sS'MEAN_USER_HITS'
p2147
F0
sS'MEAN'
p2148
F0.21188696136072196
ssS'OVERHEAD'
p2149
g11
(tRp2150
g2148
F2.3765494826320839
ssS'ABS'
p2151
g11
(tRp2152
S'MEAN_ABS_TIME'
p2153
F33719.215949817648
sS'NUM_ABS'
p2154
I39636
sstp2155
a(g11
(tRp2156
S'workload'
p2157
g11
(tRp2158
S'n_contents'
p2159
I10000
sS'disconnection_rate'
p2160
F0.0025000000000000001
sS'name'
p2161
S'STATIONARY_SIT'
p2162
sS'n_warmup'
p2163
I36000
sS'rate'
p2164
I10
sS'n_measured'
p2165
I108000
sS'alpha'
p2166
F0.69999999999999996
ssS'cache_policy'
p2167
g11
(tRp2168
g2161
S'LRU'
p2169
ssS'desc'
p2170
S'strategy: SIT_WITH_SCOPED_FLOODING caching probability: 0.3'
p2171
sS'strategy'
p2172
g11
(tRp2173
S'fan_out'
p2174
I1
sg2161
S'SIT_WITH_SCOPED_FLOODING'
p2175
sS'p'
F0.29999999999999999
sS'scope'
p2176
I2
ssS'content_placement'
p2177
g11
(tRp2178
g2161
S'UNIFORM'
p2179
ssS'joint_cache_rsn_placement'
p2180
g11
(tRp2181
S'network_cache'
p2182
F0.90000000000000002
sS'network_rsn'
p2183
F57.600000000000001
sg2161
S'CACHE_ALL_RSN_ALL_SIT'
p2184
sS'rsn_cache_ratio'
p2185
I64
ssS'warmup_strategy'
p2186
g11
(tRp2187
S'p'
F0.10000000000000001
sg2161
S'NDN'
p2188
ssS'topology'
p2189
g11
(tRp2190
S'ext_delay'
p2191
I2
sS'source_ratio'
p2192
F1
sg2161
S'ROCKET_FUEL'
p2193
sS'asn'
p2194
I3257
ssg11
(tRp2195
S'CACHE_HIT_RATIO'
p2196
g11
(tRp2197
S'MEAN_NETWORK_HITS'
p2198
F0.12901795253242382
sS'MEAN_USER_HITS'
p2199
F0.031736432795926514
sS'MEAN'
p2200
F0.16075438532835032
ssS'OVERHEAD'
p2201
g11
(tRp2202
g2200
F0.74223017783206946
ssS'ABS'
p2203
g11
(tRp2204
S'MEAN_ABS_TIME'
p2205
F6035.0490755745714
sS'NUM_ABS'
p2206
I9539
sstp2207
a(g11
(tRp2208
S'workload'
p2209
g11
(tRp2210
S'n_contents'
p2211
I10000
sS'disconnection_rate'
p2212
F0.0025000000000000001
sS'name'
p2213
S'STATIONARY_SIT'
p2214
sS'n_warmup'
p2215
I36000
sS'rate'
p2216
I10
sS'n_measured'
p2217
I108000
sS'alpha'
p2218
F0.69999999999999996
ssS'cache_policy'
p2219
g11
(tRp2220
g2213
S'LRU'
p2221
ssS'desc'
p2222
S'strategy: SIT_WITH_SCOPED_FLOODING caching probability: 0.2'
p2223
sS'strategy'
p2224
g11
(tRp2225
S'fan_out'
p2226
I100
sg2213
S'SIT_WITH_SCOPED_FLOODING'
p2227
sS'p'
F0.20000000000000001
sS'scope'
p2228
I1
ssS'content_placement'
p2229
g11
(tRp2230
g2213
S'UNIFORM'
p2231
ssS'joint_cache_rsn_placement'
p2232
g11
(tRp2233
S'network_cache'
p2234
F0.90000000000000002
sS'network_rsn'
p2235
F57.600000000000001
sg2213
S'CACHE_ALL_RSN_ALL_SIT'
p2236
sS'rsn_cache_ratio'
p2237
I64
ssS'warmup_strategy'
p2238
g11
(tRp2239
S'p'
F0.10000000000000001
sg2213
S'NDN'
p2240
ssS'topology'
p2241
g11
(tRp2242
S'ext_delay'
p2243
I2
sS'source_ratio'
p2244
F1
sg2213
S'ROCKET_FUEL'
p2245
sS'asn'
p2246
I3257
ssg11
(tRp2247
S'CACHE_HIT_RATIO'
p2248
g11
(tRp2249
S'MEAN_NETWORK_HITS'
p2250
F0.093361338778537944
sS'MEAN_USER_HITS'
p2251
F0.022753752313069701
sS'MEAN'
p2252
F0.11611509109160764
ssS'OVERHEAD'
p2253
g11
(tRp2254
g2252
F0.38107294182150964
ssS'ABS'
p2255
g11
(tRp2256
S'MEAN_ABS_TIME'
p2257
F5924.5164124499734
sS'NUM_ABS'
p2258
I9411
sstp2259
a(g11
(tRp2260
S'workload'
p2261
g11
(tRp2262
S'n_contents'
p2263
I10000
sS'disconnection_rate'
p2264
F0.0025000000000000001
sS'name'
p2265
S'STATIONARY_SIT'
p2266
sS'n_warmup'
p2267
I36000
sS'rate'
p2268
I10
sS'n_measured'
p2269
I108000
sS'alpha'
p2270
F0.69999999999999996
ssS'cache_policy'
p2271
g11
(tRp2272
g2265
S'LRU'
p2273
ssS'desc'
p2274
S'strategy: SIT_WITH_SCOPED_FLOODING caching probability: 0.1'
p2275
sS'strategy'
p2276
g11
(tRp2277
S'fan_out'
p2278
I100
sg2265
S'SIT_WITH_SCOPED_FLOODING'
p2279
sS'p'
F0.10000000000000001
sS'scope'
p2280
I1
ssS'content_placement'
p2281
g11
(tRp2282
g2265
S'UNIFORM'
p2283
ssS'joint_cache_rsn_placement'
p2284
g11
(tRp2285
S'network_cache'
p2286
F0.90000000000000002
sS'network_rsn'
p2287
F57.600000000000001
sg2265
S'CACHE_ALL_RSN_ALL_SIT'
p2288
sS'rsn_cache_ratio'
p2289
I64
ssS'warmup_strategy'
p2290
g11
(tRp2291
S'p'
F0.10000000000000001
sg2265
S'NDN'
p2292
ssS'topology'
p2293
g11
(tRp2294
S'ext_delay'
p2295
I2
sS'source_ratio'
p2296
F1
sg2265
S'ROCKET_FUEL'
p2297
sS'asn'
p2298
I3257
ssg11
(tRp2299
S'CACHE_HIT_RATIO'
p2300
g11
(tRp2301
S'MEAN_NETWORK_HITS'
p2302
F0.087822693777512617
sS'MEAN_USER_HITS'
p2303
F0.026569327764967669
sS'MEAN'
p2304
F0.11439202154248029
ssS'OVERHEAD'
p2305
g11
(tRp2306
g2304
F0.36837076930519053
ssS'ABS'
p2307
g11
(tRp2308
S'MEAN_ABS_TIME'
p2309
F5971.4672328341212
sS'NUM_ABS'
p2310
I9377
sstp2311
a(g11
(tRp2312
S'workload'
p2313
g11
(tRp2314
S'n_contents'
p2315
I10000
sS'disconnection_rate'
p2316
F0.0025000000000000001
sS'name'
p2317
S'STATIONARY_SIT'
p2318
sS'n_warmup'
p2319
I36000
sS'rate'
p2320
I10
sS'n_measured'
p2321
I108000
sS'alpha'
p2322
F0.69999999999999996
ssS'cache_policy'
p2323
g11
(tRp2324
g2317
S'LRU'
p2325
ssS'desc'
p2326
S'strategy: SIT_WITH_SCOPED_FLOODING caching probability: 0.3'
p2327
sS'strategy'
p2328
g11
(tRp2329
S'fan_out'
p2330
I100
sg2317
S'SIT_WITH_SCOPED_FLOODING'
p2331
sS'p'
F0.29999999999999999
sS'scope'
p2332
I1
ssS'content_placement'
p2333
g11
(tRp2334
g2317
S'UNIFORM'
p2335
ssS'joint_cache_rsn_placement'
p2336
g11
(tRp2337
S'network_cache'
p2338
F0.90000000000000002
sS'network_rsn'
p2339
F57.600000000000001
sg2317
S'CACHE_ALL_RSN_ALL_SIT'
p2340
sS'rsn_cache_ratio'
p2341
I64
ssS'warmup_strategy'
p2342
g11
(tRp2343
S'p'
F0.10000000000000001
sg2317
S'NDN'
p2344
ssS'topology'
p2345
g11
(tRp2346
S'ext_delay'
p2347
I2
sS'source_ratio'
p2348
F1
sg2317
S'ROCKET_FUEL'
p2349
sS'asn'
p2350
I3257
ssg11
(tRp2351
S'CACHE_HIT_RATIO'
p2352
g11
(tRp2353
S'MEAN_NETWORK_HITS'
p2354
F0.095337547979227819
sS'MEAN_USER_HITS'
p2355
F0.020655259168467568
sS'MEAN'
p2356
F0.11599280714769539
ssS'OVERHEAD'
p2357
g11
(tRp2358
g2356
F0.39178869786794829
ssS'ABS'
p2359
g11
(tRp2360
S'MEAN_ABS_TIME'
p2361
F5854.7974082694509
sS'NUM_ABS'
p2362
I9337
sstp2363
a(g11
(tRp2364
S'workload'
p2365
g11
(tRp2366
S'n_contents'
p2367
I10000
sS'disconnection_rate'
p2368
F0.0025000000000000001
sS'name'
p2369
S'STATIONARY_SIT'
p2370
sS'n_warmup'
p2371
I36000
sS'rate'
p2372
I10
sS'n_measured'
p2373
I108000
sS'alpha'
p2374
F0.69999999999999996
ssS'cache_policy'
p2375
g11
(tRp2376
g2369
S'LRU'
p2377
ssS'desc'
p2378
S'strategy: SIT_WITH_SCOPED_FLOODING caching probability: 0.4'
p2379
sS'strategy'
p2380
g11
(tRp2381
S'fan_out'
p2382
I100
sg2369
S'SIT_WITH_SCOPED_FLOODING'
p2383
sS'p'
F0.40000000000000002
sS'scope'
p2384
I1
ssS'content_placement'
p2385
g11
(tRp2386
g2369
S'UNIFORM'
p2387
ssS'joint_cache_rsn_placement'
p2388
g11
(tRp2389
S'network_cache'
p2390
F0.90000000000000002
sS'network_rsn'
p2391
F57.600000000000001
sg2369
S'CACHE_ALL_RSN_ALL_SIT'
p2392
sS'rsn_cache_ratio'
p2393
I64
ssS'warmup_strategy'
p2394
g11
(tRp2395
S'p'
F0.10000000000000001
sg2369
S'NDN'
p2396
ssS'topology'
p2397
g11
(tRp2398
S'ext_delay'
p2399
I2
sS'source_ratio'
p2400
F1
sg2369
S'ROCKET_FUEL'
p2401
sS'asn'
p2402
I3257
ssg11
(tRp2403
S'CACHE_HIT_RATIO'
p2404
g11
(tRp2405
S'MEAN_NETWORK_HITS'
p2406
F0.097431058745730867
sS'MEAN_USER_HITS'
p2407
F0.019592662932810756
sS'MEAN'
p2408
F0.11702372167854162
ssS'OVERHEAD'
p2409
g11
(tRp2410
g2408
F0.39471615033810348
ssS'ABS'
p2411
g11
(tRp2412
S'MEAN_ABS_TIME'
p2413
F5766.1997633772589
sS'NUM_ABS'
p2414
I9325
sstp2415
a(g11
(tRp2416
S'workload'
p2417
g11
(tRp2418
S'n_contents'
p2419
I10000
sS'disconnection_rate'
p2420
F0.0025000000000000001
sS'name'
p2421
S'STATIONARY_SIT'
p2422
sS'n_warmup'
p2423
I36000
sS'rate'
p2424
I10
sS'n_measured'
p2425
I108000
sS'alpha'
p2426
F0.69999999999999996
ssS'cache_policy'
p2427
g11
(tRp2428
g2421
S'LRU'
p2429
ssS'desc'
p2430
S'strategy: SIT_WITH_SCOPED_FLOODING caching probability: 0.5'
p2431
sS'strategy'
p2432
g11
(tRp2433
S'fan_out'
p2434
I100
sg2421
S'SIT_WITH_SCOPED_FLOODING'
p2435
sS'p'
F0.5
sS'scope'
p2436
I1
ssS'content_placement'
p2437
g11
(tRp2438
g2421
S'UNIFORM'
p2439
ssS'joint_cache_rsn_placement'
p2440
g11
(tRp2441
S'network_cache'
p2442
F0.90000000000000002
sS'network_rsn'
p2443
F57.600000000000001
sg2421
S'CACHE_ALL_RSN_ALL_SIT'
p2444
sS'rsn_cache_ratio'
p2445
I64
ssS'warmup_strategy'
p2446
g11
(tRp2447
S'p'
F0.10000000000000001
sg2421
S'NDN'
p2448
ssS'topology'
p2449
g11
(tRp2450
S'ext_delay'
p2451
I2
sS'source_ratio'
p2452
F1
sg2421
S'ROCKET_FUEL'
p2453
sS'asn'
p2454
I3257
ssg11
(tRp2455
S'CACHE_HIT_RATIO'
p2456
g11
(tRp2457
S'MEAN_NETWORK_HITS'
p2458
F0.095281109112758181
sS'MEAN_USER_HITS'
p2459
F0.018763458638126961
sS'MEAN'
p2460
F0.11404456775088515
ssS'OVERHEAD'
p2461
g11
(tRp2462
g2460
F0.38697970013952626
ssS'ABS'
p2463
g11
(tRp2464
S'MEAN_ABS_TIME'
p2465
F5818.8355986871429
sS'NUM_ABS'
p2466
I9355
sstp2467
a(g11
(tRp2468
S'workload'
p2469
g11
(tRp2470
S'n_contents'
p2471
I10000
sS'disconnection_rate'
p2472
F0.0025000000000000001
sS'name'
p2473
S'STATIONARY_SIT'
p2474
sS'n_warmup'
p2475
I36000
sS'rate'
p2476
I10
sS'n_measured'
p2477
I108000
sS'alpha'
p2478
F0.69999999999999996
ssS'cache_policy'
p2479
g11
(tRp2480
g2473
S'LRU'
p2481
ssS'desc'
p2482
S'strategy: SIT_WITH_SCOPED_FLOODING caching probability: 0.6'
p2483
sS'strategy'
p2484
g11
(tRp2485
S'fan_out'
p2486
I100
sg2473
S'SIT_WITH_SCOPED_FLOODING'
p2487
sS'p'
F0.59999999999999998
sS'scope'
p2488
I1
ssS'content_placement'
p2489
g11
(tRp2490
g2473
S'UNIFORM'
p2491
ssS'joint_cache_rsn_placement'
p2492
g11
(tRp2493
S'network_cache'
p2494
F0.90000000000000002
sS'network_rsn'
p2495
F57.600000000000001
sg2473
S'CACHE_ALL_RSN_ALL_SIT'
p2496
sS'rsn_cache_ratio'
p2497
I64
ssS'warmup_strategy'
p2498
g11
(tRp2499
S'p'
F0.10000000000000001
sg2473
S'NDN'
p2500
ssS'topology'
p2501
g11
(tRp2502
S'ext_delay'
p2503
I2
sS'source_ratio'
p2504
F1
sg2473
S'ROCKET_FUEL'
p2505
sS'asn'
p2506
I3257
ssg11
(tRp2507
S'CACHE_HIT_RATIO'
p2508
g11
(tRp2509
S'MEAN_NETWORK_HITS'
p2510
F0.095385942911980909
sS'MEAN_USER_HITS'
p2511
F0.018261875864404867
sS'MEAN'
p2512
F0.11364781877638577
ssS'OVERHEAD'
p2513
g11
(tRp2514
g2512
F0.38947512731700829
ssS'ABS'
p2515
g11
(tRp2516
S'MEAN_ABS_TIME'
p2517
F5627.005305080721
sS'NUM_ABS'
p2518
I9234
sstp2519
a(g11
(tRp2520
S'workload'
p2521
g11
(tRp2522
S'n_contents'
p2523
I10000
sS'disconnection_rate'
p2524
F0.0025000000000000001
sS'name'
p2525
S'STATIONARY_SIT'
p2526
sS'n_warmup'
p2527
I36000
sS'rate'
p2528
I10
sS'n_measured'
p2529
I108000
sS'alpha'
p2530
F0.69999999999999996
ssS'cache_policy'
p2531
g11
(tRp2532
g2525
S'LRU'
p2533
ssS'desc'
p2534
S'strategy: SIT_WITH_SCOPED_FLOODING caching probability: 0.7'
p2535
sS'strategy'
p2536
g11
(tRp2537
S'fan_out'
p2538
I100
sg2525
S'SIT_WITH_SCOPED_FLOODING'
p2539
sS'p'
F0.69999999999999996
sS'scope'
p2540
I1
ssS'content_placement'
p2541
g11
(tRp2542
g2525
S'UNIFORM'
p2543
ssS'joint_cache_rsn_placement'
p2544
g11
(tRp2545
S'network_cache'
p2546
F0.90000000000000002
sS'network_rsn'
p2547
F57.600000000000001
sg2525
S'CACHE_ALL_RSN_ALL_SIT'
p2548
sS'rsn_cache_ratio'
p2549
I64
ssS'warmup_strategy'
p2550
g11
(tRp2551
S'p'
F0.10000000000000001
sg2525
S'NDN'
p2552
ssS'topology'
p2553
g11
(tRp2554
S'ext_delay'
p2555
I2
sS'source_ratio'
p2556
F1
sg2525
S'ROCKET_FUEL'
p2557
sS'asn'
p2558
I3257
ssg11
(tRp2559
S'CACHE_HIT_RATIO'
p2560
g11
(tRp2561
S'MEAN_NETWORK_HITS'
p2562
F0.095915824114665038
sS'MEAN_USER_HITS'
p2563
F0.017567562117625234
sS'MEAN'
p2564
F0.11348338623229028
ssS'OVERHEAD'
p2565
g11
(tRp2566
g2564
F0.39479829163927616
ssS'ABS'
p2567
g11
(tRp2568
S'MEAN_ABS_TIME'
p2569
F5567.8306615566071
sS'NUM_ABS'
p2570
I9239
sstp2571
a(g11
(tRp2572
S'workload'
p2573
g11
(tRp2574
S'n_contents'
p2575
I10000
sS'disconnection_rate'
p2576
F0.0025000000000000001
sS'name'
p2577
S'STATIONARY_SIT'
p2578
sS'n_warmup'
p2579
I36000
sS'rate'
p2580
I10
sS'n_measured'
p2581
I108000
sS'alpha'
p2582
F0.69999999999999996
ssS'cache_policy'
p2583
g11
(tRp2584
g2577
S'LRU'
p2585
ssS'desc'
p2586
S'strategy: SIT_WITH_SCOPED_FLOODING caching probability: 0.6'
p2587
sS'strategy'
p2588
g11
(tRp2589
S'fan_out'
p2590
I1
sg2577
S'SIT_WITH_SCOPED_FLOODING'
p2591
sS'p'
F0.59999999999999998
sS'scope'
p2592
I2
ssS'content_placement'
p2593
g11
(tRp2594
g2577
S'UNIFORM'
p2595
ssS'joint_cache_rsn_placement'
p2596
g11
(tRp2597
S'network_cache'
p2598
F0.90000000000000002
sS'network_rsn'
p2599
F57.600000000000001
sg2577
S'CACHE_ALL_RSN_ALL_SIT'
p2600
sS'rsn_cache_ratio'
p2601
I64
ssS'warmup_strategy'
p2602
g11
(tRp2603
S'p'
F0.10000000000000001
sg2577
S'NDN'
p2604
ssS'topology'
p2605
g11
(tRp2606
S'ext_delay'
p2607
I2
sS'source_ratio'
p2608
F1
sg2577
S'ROCKET_FUEL'
p2609
sS'asn'
p2610
I3257
ssg11
(tRp2611
S'CACHE_HIT_RATIO'
p2612
g11
(tRp2613
S'MEAN_NETWORK_HITS'
p2614
F0.13045826883384934
sS'MEAN_USER_HITS'
p2615
F0.02637625773993808
sS'MEAN'
p2616
F0.15683452657378741
ssS'OVERHEAD'
p2617
g11
(tRp2618
g2616
F0.70325399896800822
ssS'ABS'
p2619
g11
(tRp2620
S'MEAN_ABS_TIME'
p2621
F5358.4326731025221
sS'NUM_ABS'
p2622
I8983
sstp2623
a(g11
(tRp2624
S'workload'
p2625
g11
(tRp2626
S'n_contents'
p2627
I10000
sS'disconnection_rate'
p2628
F0.0025000000000000001
sS'name'
p2629
S'STATIONARY_SIT'
p2630
sS'n_warmup'
p2631
I36000
sS'rate'
p2632
I10
sS'n_measured'
p2633
I108000
sS'alpha'
p2634
F0.69999999999999996
ssS'cache_policy'
p2635
g11
(tRp2636
g2629
S'LRU'
p2637
ssS'desc'
p2638
S'strategy: SIT_WITH_SCOPED_FLOODING caching probability: 0.4'
p2639
sS'strategy'
p2640
g11
(tRp2641
S'fan_out'
p2642
I1
sg2629
S'SIT_WITH_SCOPED_FLOODING'
p2643
sS'p'
F0.40000000000000002
sS'scope'
p2644
I2
ssS'content_placement'
p2645
g11
(tRp2646
g2629
S'UNIFORM'
p2647
ssS'joint_cache_rsn_placement'
p2648
g11
(tRp2649
S'network_cache'
p2650
F0.90000000000000002
sS'network_rsn'
p2651
F57.600000000000001
sg2629
S'CACHE_ALL_RSN_ALL_SIT'
p2652
sS'rsn_cache_ratio'
p2653
I64
ssS'warmup_strategy'
p2654
g11
(tRp2655
S'p'
F0.10000000000000001
sg2629
S'NDN'
p2656
ssS'topology'
p2657
g11
(tRp2658
S'ext_delay'
p2659
I2
sS'source_ratio'
p2660
F1
sg2629
S'ROCKET_FUEL'
p2661
sS'asn'
p2662
I3257
ssg11
(tRp2663
S'CACHE_HIT_RATIO'
p2664
g11
(tRp2665
S'MEAN_NETWORK_HITS'
p2666
F0.12918131673171834
sS'MEAN_USER_HITS'
p2667
F0.029704686945582402
sS'MEAN'
p2668
F0.15888600367730074
ssS'OVERHEAD'
p2669
g11
(tRp2670
g2668
F0.71546482371536402
ssS'ABS'
p2671
g11
(tRp2672
S'MEAN_ABS_TIME'
p2673
F5912.1273083057758
sS'NUM_ABS'
p2674
I9354
sstp2675
a(g11
(tRp2676
S'workload'
p2677
g11
(tRp2678
S'n_contents'
p2679
I10000
sS'disconnection_rate'
p2680
F0.0025000000000000001
sS'name'
p2681
S'STATIONARY_SIT'
p2682
sS'n_warmup'
p2683
I36000
sS'rate'
p2684
I10
sS'n_measured'
p2685
I108000
sS'alpha'
p2686
F0.69999999999999996
ssS'cache_policy'
p2687
g11
(tRp2688
g2681
S'LRU'
p2689
ssS'desc'
p2690
S'strategy: SIT_WITH_SCOPED_FLOODING caching probability: 0.5'
p2691
sS'strategy'
p2692
g11
(tRp2693
S'fan_out'
p2694
I1
sg2681
S'SIT_WITH_SCOPED_FLOODING'
p2695
sS'p'
F0.5
sS'scope'
p2696
I2
ssS'content_placement'
p2697
g11
(tRp2698
g2681
S'UNIFORM'
p2699
ssS'joint_cache_rsn_placement'
p2700
g11
(tRp2701
S'network_cache'
p2702
F0.90000000000000002
sS'network_rsn'
p2703
F57.600000000000001
sg2681
S'CACHE_ALL_RSN_ALL_SIT'
p2704
sS'rsn_cache_ratio'
p2705
I64
ssS'warmup_strategy'
p2706
g11
(tRp2707
S'p'
F0.10000000000000001
sg2681
S'NDN'
p2708
ssS'topology'
p2709
g11
(tRp2710
S'ext_delay'
p2711
I2
sS'source_ratio'
p2712
F1
sg2681
S'ROCKET_FUEL'
p2713
sS'asn'
p2714
I3257
ssg11
(tRp2715
S'CACHE_HIT_RATIO'
p2716
g11
(tRp2717
S'MEAN_NETWORK_HITS'
p2718
F0.13153055051421658
sS'MEAN_USER_HITS'
p2719
F0.027219197418834443
sS'MEAN'
p2720
F0.15874974793305102
ssS'OVERHEAD'
p2721
g11
(tRp2722
g2720
F0.71724137931034482
ssS'ABS'
p2723
g11
(tRp2724
S'MEAN_ABS_TIME'
p2725
F5672.8569079772233
sS'NUM_ABS'
p2726
I9203
sstp2727
a(g11
(tRp2728
S'workload'
p2729
g11
(tRp2730
S'n_contents'
p2731
I10000
sS'disconnection_rate'
p2732
F0.0025000000000000001
sS'name'
p2733
S'STATIONARY_SIT'
p2734
sS'n_warmup'
p2735
I36000
sS'rate'
p2736
I10
sS'n_measured'
p2737
I108000
sS'alpha'
p2738
F0.69999999999999996
ssS'cache_policy'
p2739
g11
(tRp2740
g2733
S'LRU'
p2741
ssS'desc'
p2742
S'strategy: SIT_WITH_SCOPED_FLOODING caching probability: 0.7'
p2743
sS'strategy'
p2744
g11
(tRp2745
S'fan_out'
p2746
I1
sg2733
S'SIT_WITH_SCOPED_FLOODING'
p2747
sS'p'
F0.69999999999999996
sS'scope'
p2748
I2
ssS'content_placement'
p2749
g11
(tRp2750
g2733
S'UNIFORM'
p2751
ssS'joint_cache_rsn_placement'
p2752
g11
(tRp2753
S'network_cache'
p2754
F0.90000000000000002
sS'network_rsn'
p2755
F57.600000000000001
sg2733
S'CACHE_ALL_RSN_ALL_SIT'
p2756
sS'rsn_cache_ratio'
p2757
I64
ssS'warmup_strategy'
p2758
g11
(tRp2759
S'p'
F0.10000000000000001
sg2733
S'NDN'
p2760
ssS'topology'
p2761
g11
(tRp2762
S'ext_delay'
p2763
I2
sS'source_ratio'
p2764
F1
sg2733
S'ROCKET_FUEL'
p2765
sS'asn'
p2766
I3257
ssg11
(tRp2767
S'CACHE_HIT_RATIO'
p2768
g11
(tRp2769
S'MEAN_NETWORK_HITS'
p2770
F0.1298232597150703
sS'MEAN_USER_HITS'
p2771
F0.026871942933412905
sS'MEAN'
p2772
F0.15669520264848322
ssS'OVERHEAD'
p2773
g11
(tRp2774
g2772
F0.69393647350105447
ssS'ABS'
p2775
g11
(tRp2776
S'MEAN_ABS_TIME'
p2777
F5249.4986418216204
sS'NUM_ABS'
p2778
I8873
sstp2779
a(g11
(tRp2780
S'workload'
p2781
g11
(tRp2782
S'n_contents'
p2783
I10000
sS'disconnection_rate'
p2784
F0.0025000000000000001
sS'name'
p2785
S'STATIONARY_SIT'
p2786
sS'n_warmup'
p2787
I36000
sS'rate'
p2788
I10
sS'n_measured'
p2789
I108000
sS'alpha'
p2790
F0.69999999999999996
ssS'cache_policy'
p2791
g11
(tRp2792
g2785
S'LRU'
p2793
ssS'desc'
p2794
S'strategy: SIT_WITH_SCOPED_FLOODING caching probability: 0.8'
p2795
sS'strategy'
p2796
g11
(tRp2797
S'fan_out'
p2798
I1
sg2785
S'SIT_WITH_SCOPED_FLOODING'
p2799
sS'p'
F0.80000000000000004
sS'scope'
p2800
I2
ssS'content_placement'
p2801
g11
(tRp2802
g2785
S'UNIFORM'
p2803
ssS'joint_cache_rsn_placement'
p2804
g11
(tRp2805
S'network_cache'
p2806
F0.90000000000000002
sS'network_rsn'
p2807
F57.600000000000001
sg2785
S'CACHE_ALL_RSN_ALL_SIT'
p2808
sS'rsn_cache_ratio'
p2809
I64
ssS'warmup_strategy'
p2810
g11
(tRp2811
S'p'
F0.10000000000000001
sg2785
S'NDN'
p2812
ssS'topology'
p2813
g11
(tRp2814
S'ext_delay'
p2815
I2
sS'source_ratio'
p2816
F1
sg2785
S'ROCKET_FUEL'
p2817
sS'asn'
p2818
I3257
ssg11
(tRp2819
S'CACHE_HIT_RATIO'
p2820
g11
(tRp2821
S'MEAN_NETWORK_HITS'
p2822
F0.12992992670123293
sS'MEAN_USER_HITS'
p2823
F0.02467483247724029
sS'MEAN'
p2824
F0.15460475917847322
ssS'OVERHEAD'
p2825
g11
(tRp2826
g2824
F0.68596437470265215
ssS'ABS'
p2827
g11
(tRp2828
S'MEAN_ABS_TIME'
p2829
F5063.4171323059736
sS'NUM_ABS'
p2830
I8777
sstp2831
a(g11
(tRp2832
S'workload'
p2833
g11
(tRp2834
S'n_contents'
p2835
I10000
sS'disconnection_rate'
p2836
F0.0025000000000000001
sS'name'
p2837
S'STATIONARY_SIT'
p2838
sS'n_warmup'
p2839
I36000
sS'rate'
p2840
I10
sS'n_measured'
p2841
I108000
sS'alpha'
p2842
F0.69999999999999996
ssS'cache_policy'
p2843
g11
(tRp2844
g2837
S'LRU'
p2845
ssS'desc'
p2846
S'strategy: SIT_WITH_SCOPED_FLOODING caching probability: 0.8'
p2847
sS'strategy'
p2848
g11
(tRp2849
S'fan_out'
p2850
I100
sg2837
S'SIT_WITH_SCOPED_FLOODING'
p2851
sS'p'
F0.80000000000000004
sS'scope'
p2852
I1
ssS'content_placement'
p2853
g11
(tRp2854
g2837
S'UNIFORM'
p2855
ssS'joint_cache_rsn_placement'
p2856
g11
(tRp2857
S'network_cache'
p2858
F0.90000000000000002
sS'network_rsn'
p2859
F57.600000000000001
sg2837
S'CACHE_ALL_RSN_ALL_SIT'
p2860
sS'rsn_cache_ratio'
p2861
I64
ssS'warmup_strategy'
p2862
g11
(tRp2863
S'p'
F0.10000000000000001
sg2837
S'NDN'
p2864
ssS'topology'
p2865
g11
(tRp2866
S'ext_delay'
p2867
I2
sS'source_ratio'
p2868
F1
sg2837
S'ROCKET_FUEL'
p2869
sS'asn'
p2870
I3257
ssg11
(tRp2871
S'CACHE_HIT_RATIO'
p2872
g11
(tRp2873
S'MEAN_NETWORK_HITS'
p2874
F0.096095672165530596
sS'MEAN_USER_HITS'
p2875
F0.017351671842858872
sS'MEAN'
p2876
F0.11344734400838946
ssS'OVERHEAD'
p2877
g11
(tRp2878
g2876
F0.39474851772677771
ssS'ABS'
p2879
g11
(tRp2880
S'MEAN_ABS_TIME'
p2881
F5473.5911660545407
sS'NUM_ABS'
p2882
I9209
sstp2883
a(g11
(tRp2884
S'workload'
p2885
g11
(tRp2886
S'n_contents'
p2887
I10000
sS'disconnection_rate'
p2888
F0.0025000000000000001
sS'name'
p2889
S'STATIONARY_SIT'
p2890
sS'n_warmup'
p2891
I36000
sS'rate'
p2892
I10
sS'n_measured'
p2893
I108000
sS'alpha'
p2894
F0.69999999999999996
ssS'cache_policy'
p2895
g11
(tRp2896
g2889
S'LRU'
p2897
ssS'desc'
p2898
S'strategy: SIT_WITH_SCOPED_FLOODING caching probability: 0.9'
p2899
sS'strategy'
p2900
g11
(tRp2901
S'fan_out'
p2902
I1
sg2889
S'SIT_WITH_SCOPED_FLOODING'
p2903
sS'p'
F0.90000000000000002
sS'scope'
p2904
I2
ssS'content_placement'
p2905
g11
(tRp2906
g2889
S'UNIFORM'
p2907
ssS'joint_cache_rsn_placement'
p2908
g11
(tRp2909
S'network_cache'
p2910
F0.90000000000000002
sS'network_rsn'
p2911
F57.600000000000001
sg2889
S'CACHE_ALL_RSN_ALL_SIT'
p2912
sS'rsn_cache_ratio'
p2913
I64
ssS'warmup_strategy'
p2914
g11
(tRp2915
S'p'
F0.10000000000000001
sg2889
S'NDN'
p2916
ssS'topology'
p2917
g11
(tRp2918
S'ext_delay'
p2919
I2
sS'source_ratio'
p2920
F1
sg2889
S'ROCKET_FUEL'
p2921
sS'asn'
p2922
I3257
ssg11
(tRp2923
S'CACHE_HIT_RATIO'
p2924
g11
(tRp2925
S'MEAN_NETWORK_HITS'
p2926
F0.12981620122317503
sS'MEAN_USER_HITS'
p2927
F0.024628794201005472
sS'MEAN'
p2928
F0.1544449954241805
ssS'OVERHEAD'
p2929
g11
(tRp2930
g2928
F0.67834206165866406
ssS'ABS'
p2931
g11
(tRp2932
S'MEAN_ABS_TIME'
p2933
F4964.0271958938574
sS'NUM_ABS'
p2934
I8678
sstp2935
a(g11
(tRp2936
S'workload'
p2937
g11
(tRp2938
S'n_contents'
p2939
I10000
sS'disconnection_rate'
p2940
F0.0025000000000000001
sS'name'
p2941
S'STATIONARY_SIT'
p2942
sS'n_warmup'
p2943
I36000
sS'rate'
p2944
I10
sS'n_measured'
p2945
I108000
sS'alpha'
p2946
F0.69999999999999996
ssS'cache_policy'
p2947
g11
(tRp2948
g2941
S'LRU'
p2949
ssS'desc'
p2950
S'strategy: SIT_WITH_SCOPED_FLOODING caching probability: 1.0'
p2951
sS'strategy'
p2952
g11
(tRp2953
S'fan_out'
p2954
I1
sg2941
S'SIT_WITH_SCOPED_FLOODING'
p2955
sS'p'
F1
sS'scope'
p2956
I2
ssS'content_placement'
p2957
g11
(tRp2958
g2941
S'UNIFORM'
p2959
ssS'joint_cache_rsn_placement'
p2960
g11
(tRp2961
S'network_cache'
p2962
F0.90000000000000002
sS'network_rsn'
p2963
F57.600000000000001
sg2941
S'CACHE_ALL_RSN_ALL_SIT'
p2964
sS'rsn_cache_ratio'
p2965
I64
ssS'warmup_strategy'
p2966
g11
(tRp2967
S'p'
F0.10000000000000001
sg2941
S'NDN'
p2968
ssS'topology'
p2969
g11
(tRp2970
S'ext_delay'
p2971
I2
sS'source_ratio'
p2972
F1
sg2941
S'ROCKET_FUEL'
p2973
sS'asn'
p2974
I3257
ssg11
(tRp2975
S'CACHE_HIT_RATIO'
p2976
g11
(tRp2977
S'MEAN_NETWORK_HITS'
p2978
F0.12843149500965029
sS'MEAN_USER_HITS'
p2979
F0.024861088166202621
sS'MEAN'
p2980
F0.15329258317585293
ssS'OVERHEAD'
p2981
g11
(tRp2982
g2980
F0.66741746884305275
ssS'ABS'
p2983
g11
(tRp2984
S'MEAN_ABS_TIME'
p2985
F4851.6040006969724
sS'NUM_ABS'
p2986
I8625
sstp2987
a(g11
(tRp2988
S'workload'
p2989
g11
(tRp2990
S'n_contents'
p2991
I10000
sS'disconnection_rate'
p2992
F0.0025000000000000001
sS'name'
p2993
S'STATIONARY_SIT'
p2994
sS'n_warmup'
p2995
I36000
sS'rate'
p2996
I10
sS'n_measured'
p2997
I108000
sS'alpha'
p2998
F0.69999999999999996
ssS'cache_policy'
p2999
g11
(tRp3000
g2993
S'LRU'
p3001
ssS'desc'
p3002
S'strategy: SIT_WITH_SCOPED_FLOODING caching probability: 0.9'
p3003
sS'strategy'
p3004
g11
(tRp3005
S'fan_out'
p3006
I100
sg2993
S'SIT_WITH_SCOPED_FLOODING'
p3007
sS'p'
F0.90000000000000002
sS'scope'
p3008
I1
ssS'content_placement'
p3009
g11
(tRp3010
g2993
S'UNIFORM'
p3011
ssS'joint_cache_rsn_placement'
p3012
g11
(tRp3013
S'network_cache'
p3014
F0.90000000000000002
sS'network_rsn'
p3015
F57.600000000000001
sg2993
S'CACHE_ALL_RSN_ALL_SIT'
p3016
sS'rsn_cache_ratio'
p3017
I64
ssS'warmup_strategy'
p3018
g11
(tRp3019
S'p'
F0.10000000000000001
sg2993
S'NDN'
p3020
ssS'topology'
p3021
g11
(tRp3022
S'ext_delay'
p3023
I2
sS'source_ratio'
p3024
F1
sg2993
S'ROCKET_FUEL'
p3025
sS'asn'
p3026
I3257
ssg11
(tRp3027
S'CACHE_HIT_RATIO'
p3028
g11
(tRp3029
S'MEAN_NETWORK_HITS'
p3030
F0.096752859193779947
sS'MEAN_USER_HITS'
p3031
F0.016675269788524513
sS'MEAN'
p3032
F0.11342812898230445
ssS'OVERHEAD'
p3033
g11
(tRp3034
g3032
F0.39467359217976222
ssS'ABS'
p3035
g11
(tRp3036
S'MEAN_ABS_TIME'
p3037
F5328.7382002642598
sS'NUM_ABS'
p3038
I9110
sstp3039
a(g11
(tRp3040
S'workload'
p3041
g11
(tRp3042
S'n_contents'
p3043
I10000
sS'disconnection_rate'
p3044
F0.0025000000000000001
sS'name'
p3045
S'STATIONARY_SIT'
p3046
sS'n_warmup'
p3047
I36000
sS'rate'
p3048
I10
sS'n_measured'
p3049
I108000
sS'alpha'
p3050
F0.69999999999999996
ssS'cache_policy'
p3051
g11
(tRp3052
g3045
S'LRU'
p3053
ssS'desc'
p3054
S'strategy: SIT_WITH_SCOPED_FLOODING caching probability: 1.0'
p3055
sS'strategy'
p3056
g11
(tRp3057
S'fan_out'
p3058
I100
sg3045
S'SIT_WITH_SCOPED_FLOODING'
p3059
sS'p'
F1
sS'scope'
p3060
I1
ssS'content_placement'
p3061
g11
(tRp3062
g3045
S'UNIFORM'
p3063
ssS'joint_cache_rsn_placement'
p3064
g11
(tRp3065
S'network_cache'
p3066
F0.90000000000000002
sS'network_rsn'
p3067
F57.600000000000001
sg3045
S'CACHE_ALL_RSN_ALL_SIT'
p3068
sS'rsn_cache_ratio'
p3069
I64
ssS'warmup_strategy'
p3070
g11
(tRp3071
S'p'
F0.10000000000000001
sg3045
S'NDN'
p3072
ssS'topology'
p3073
g11
(tRp3074
S'ext_delay'
p3075
I2
sS'source_ratio'
p3076
F1
sg3045
S'ROCKET_FUEL'
p3077
sS'asn'
p3078
I3257
ssg11
(tRp3079
S'CACHE_HIT_RATIO'
p3080
g11
(tRp3081
S'MEAN_NETWORK_HITS'
p3082
F0.097043214556482182
sS'MEAN_USER_HITS'
p3083
F0.016610746374590681
sS'MEAN'
p3084
F0.11365396093107287
ssS'OVERHEAD'
p3085
g11
(tRp3086
g3084
F0.40072669494942975
ssS'ABS'
p3087
g11
(tRp3088
S'MEAN_ABS_TIME'
p3089
F5347.9403262547776
sS'NUM_ABS'
p3090
I9078
sstp3091
a(g11
(tRp3092
S'workload'
p3093
g11
(tRp3094
S'n_contents'
p3095
I10000
sS'disconnection_rate'
p3096
F0.0025000000000000001
sS'name'
p3097
S'STATIONARY_SIT'
p3098
sS'n_warmup'
p3099
I36000
sS'rate'
p3100
I10
sS'n_measured'
p3101
I108000
sS'alpha'
p3102
F0.69999999999999996
ssS'cache_policy'
p3103
g11
(tRp3104
g3097
S'LRU'
p3105
ssS'desc'
p3106
S'strategy: SCOPED_FLOODING caching probability: 0.1'
p3107
sS'strategy'
p3108
g11
(tRp3109
S'scope'
p3110
I1
sg3097
S'SCOPED_FLOODING'
p3111
sS'p'
F0.10000000000000001
ssS'content_placement'
p3112
g11
(tRp3113
g3097
S'UNIFORM'
p3114
ssS'joint_cache_rsn_placement'
p3115
g11
(tRp3116
S'network_cache'
p3117
F0.90000000000000002
sS'network_rsn'
p3118
F57.600000000000001
sg3097
S'CACHE_ALL_RSN_ALL_SIT'
p3119
sS'rsn_cache_ratio'
p3120
I64
ssS'warmup_strategy'
p3121
g11
(tRp3122
S'p'
F0.10000000000000001
sg3097
S'NDN'
p3123
ssS'topology'
p3124
g11
(tRp3125
S'ext_delay'
p3126
I2
sS'source_ratio'
p3127
F1
sg3097
S'ROCKET_FUEL'
p3128
sS'asn'
p3129
I3257
ssg11
(tRp3130
S'CACHE_HIT_RATIO'
p3131
g11
(tRp3132
S'MEAN_NETWORK_HITS'
p3133
F0.043010969511211486
sS'MEAN_USER_HITS'
p3134
F0.0096063881271172772
sS'MEAN'
p3135
F0.052617357638328761
ssS'OVERHEAD'
p3136
g11
(tRp3137
g3135
F0.08354573318277142
ssS'ABS'
p3138
g11
(tRp3139
S'MEAN_ABS_TIME'
p3140
F5115.1229913058123
sS'NUM_ABS'
p3141
I8675
sstp3142
a(g11
(tRp3143
S'workload'
p3144
g11
(tRp3145
S'n_contents'
p3146
I10000
sS'disconnection_rate'
p3147
F0.0025000000000000001
sS'name'
p3148
S'STATIONARY_SIT'
p3149
sS'n_warmup'
p3150
I36000
sS'rate'
p3151
I10
sS'n_measured'
p3152
I108000
sS'alpha'
p3153
F0.69999999999999996
ssS'cache_policy'
p3154
g11
(tRp3155
g3148
S'LRU'
p3156
ssS'desc'
p3157
S'strategy: SIT_WITH_SCOPED_FLOODING caching probability: 0.1'
p3158
sS'strategy'
p3159
g11
(tRp3160
S'fan_out'
p3161
I100
sg3148
S'SIT_WITH_SCOPED_FLOODING'
p3162
sS'p'
F0.10000000000000001
sS'scope'
p3163
I2
ssS'content_placement'
p3164
g11
(tRp3165
g3148
S'UNIFORM'
p3166
ssS'joint_cache_rsn_placement'
p3167
g11
(tRp3168
S'network_cache'
p3169
F0.90000000000000002
sS'network_rsn'
p3170
F57.600000000000001
sg3148
S'CACHE_ALL_RSN_ALL_SIT'
p3171
sS'rsn_cache_ratio'
p3172
I64
ssS'warmup_strategy'
p3173
g11
(tRp3174
S'p'
F0.10000000000000001
sg3148
S'NDN'
p3175
ssS'topology'
p3176
g11
(tRp3177
S'ext_delay'
p3178
I2
sS'source_ratio'
p3179
F1
sg3148
S'ROCKET_FUEL'
p3180
sS'asn'
p3181
I3257
ssg11
(tRp3182
S'CACHE_HIT_RATIO'
p3183
g11
(tRp3184
S'MEAN_NETWORK_HITS'
p3185
F0.13296375438455024
sS'MEAN_USER_HITS'
p3186
F0.04791355884368826
sS'MEAN'
p3187
F0.18087731322823852
ssS'OVERHEAD'
p3188
g11
(tRp3189
g3187
F1.0105229206144417
ssS'ABS'
p3190
g11
(tRp3191
S'MEAN_ABS_TIME'
p3192
F6719.17323616463
sS'NUM_ABS'
p3193
I9745
sstp3194
a(g11
(tRp3195
S'workload'
p3196
g11
(tRp3197
S'n_contents'
p3198
I10000
sS'disconnection_rate'
p3199
F0.0025000000000000001
sS'name'
p3200
S'STATIONARY_SIT'
p3201
sS'n_warmup'
p3202
I36000
sS'rate'
p3203
I10
sS'n_measured'
p3204
I108000
sS'alpha'
p3205
F0.69999999999999996
ssS'cache_policy'
p3206
g11
(tRp3207
g3200
S'LRU'
p3208
ssS'desc'
p3209
S'strategy: SCOPED_FLOODING caching probability: 0.2'
p3210
sS'strategy'
p3211
g11
(tRp3212
S'scope'
p3213
I1
sg3200
S'SCOPED_FLOODING'
p3214
sS'p'
F0.20000000000000001
ssS'content_placement'
p3215
g11
(tRp3216
g3200
S'UNIFORM'
p3217
ssS'joint_cache_rsn_placement'
p3218
g11
(tRp3219
S'network_cache'
p3220
F0.90000000000000002
sS'network_rsn'
p3221
F57.600000000000001
sg3200
S'CACHE_ALL_RSN_ALL_SIT'
p3222
sS'rsn_cache_ratio'
p3223
I64
ssS'warmup_strategy'
p3224
g11
(tRp3225
S'p'
F0.10000000000000001
sg3200
S'NDN'
p3226
ssS'topology'
p3227
g11
(tRp3228
S'ext_delay'
p3229
I2
sS'source_ratio'
p3230
F1
sg3200
S'ROCKET_FUEL'
p3231
sS'asn'
p3232
I3257
ssg11
(tRp3233
S'CACHE_HIT_RATIO'
p3234
g11
(tRp3235
S'MEAN_NETWORK_HITS'
p3236
F0.048567925730555489
sS'MEAN_USER_HITS'
p3237
F0.0096224421483937055
sS'MEAN'
p3238
F0.058190367878949191
ssS'OVERHEAD'
p3239
g11
(tRp3240
g3238
F0.093869221896903554
ssS'ABS'
p3241
g11
(tRp3242
S'MEAN_ABS_TIME'
p3243
F5165.1887595087419
sS'NUM_ABS'
p3244
I8601
sstp3245
a(g11
(tRp3246
S'workload'
p3247
g11
(tRp3248
S'n_contents'
p3249
I10000
sS'disconnection_rate'
p3250
F0.0025000000000000001
sS'name'
p3251
S'STATIONARY_SIT'
p3252
sS'n_warmup'
p3253
I36000
sS'rate'
p3254
I10
sS'n_measured'
p3255
I108000
sS'alpha'
p3256
F0.69999999999999996
ssS'cache_policy'
p3257
g11
(tRp3258
g3251
S'LRU'
p3259
ssS'desc'
p3260
S'strategy: SCOPED_FLOODING caching probability: 0.3'
p3261
sS'strategy'
p3262
g11
(tRp3263
S'scope'
p3264
I1
sg3251
S'SCOPED_FLOODING'
p3265
sS'p'
F0.29999999999999999
ssS'content_placement'
p3266
g11
(tRp3267
g3251
S'UNIFORM'
p3268
ssS'joint_cache_rsn_placement'
p3269
g11
(tRp3270
S'network_cache'
p3271
F0.90000000000000002
sS'network_rsn'
p3272
F57.600000000000001
sg3251
S'CACHE_ALL_RSN_ALL_SIT'
p3273
sS'rsn_cache_ratio'
p3274
I64
ssS'warmup_strategy'
p3275
g11
(tRp3276
S'p'
F0.10000000000000001
sg3251
S'NDN'
p3277
ssS'topology'
p3278
g11
(tRp3279
S'ext_delay'
p3280
I2
sS'source_ratio'
p3281
F1
sg3251
S'ROCKET_FUEL'
p3282
sS'asn'
p3283
I3257
ssg11
(tRp3284
S'CACHE_HIT_RATIO'
p3285
g11
(tRp3286
S'MEAN_NETWORK_HITS'
p3287
F0.052700545108537881
sS'MEAN_USER_HITS'
p3288
F0.0095555268844950483
sS'MEAN'
p3289
F0.06225607199303293
ssS'OVERHEAD'
p3290
g11
(tRp3291
g3289
F0.099558913653517406
ssS'ABS'
p3292
g11
(tRp3293
S'MEAN_ABS_TIME'
p3294
F5120.7215547073129
sS'NUM_ABS'
p3295
I8614
sstp3296
a(g11
(tRp3297
S'workload'
p3298
g11
(tRp3299
S'n_contents'
p3300
I10000
sS'disconnection_rate'
p3301
F0.0025000000000000001
sS'name'
p3302
S'STATIONARY_SIT'
p3303
sS'n_warmup'
p3304
I36000
sS'rate'
p3305
I10
sS'n_measured'
p3306
I108000
sS'alpha'
p3307
F0.69999999999999996
ssS'cache_policy'
p3308
g11
(tRp3309
g3302
S'LRU'
p3310
ssS'desc'
p3311
S'strategy: SCOPED_FLOODING caching probability: 0.4'
p3312
sS'strategy'
p3313
g11
(tRp3314
S'scope'
p3315
I1
sg3302
S'SCOPED_FLOODING'
p3316
sS'p'
F0.40000000000000002
ssS'content_placement'
p3317
g11
(tRp3318
g3302
S'UNIFORM'
p3319
ssS'joint_cache_rsn_placement'
p3320
g11
(tRp3321
S'network_cache'
p3322
F0.90000000000000002
sS'network_rsn'
p3323
F57.600000000000001
sg3302
S'CACHE_ALL_RSN_ALL_SIT'
p3324
sS'rsn_cache_ratio'
p3325
I64
ssS'warmup_strategy'
p3326
g11
(tRp3327
S'p'
F0.10000000000000001
sg3302
S'NDN'
p3328
ssS'topology'
p3329
g11
(tRp3330
S'ext_delay'
p3331
I2
sS'source_ratio'
p3332
F1
sg3302
S'ROCKET_FUEL'
p3333
sS'asn'
p3334
I3257
ssg11
(tRp3335
S'CACHE_HIT_RATIO'
p3336
g11
(tRp3337
S'MEAN_NETWORK_HITS'
p3338
F0.054685200195174671
sS'MEAN_USER_HITS'
p3339
F0.0094441957714843355
sS'MEAN'
p3340
F0.064129395966659009
ssS'OVERHEAD'
p3341
g11
(tRp3342
g3340
F0.10338208667529629
ssS'ABS'
p3343
g11
(tRp3344
S'MEAN_ABS_TIME'
p3345
F5152.5045383888846
sS'NUM_ABS'
p3346
I8720
sstp3347
a(g11
(tRp3348
S'workload'
p3349
g11
(tRp3350
S'n_contents'
p3351
I10000
sS'disconnection_rate'
p3352
F0.0025000000000000001
sS'name'
p3353
S'STATIONARY_SIT'
p3354
sS'n_warmup'
p3355
I36000
sS'rate'
p3356
I10
sS'n_measured'
p3357
I108000
sS'alpha'
p3358
F0.69999999999999996
ssS'cache_policy'
p3359
g11
(tRp3360
g3353
S'LRU'
p3361
ssS'desc'
p3362
S'strategy: SIT_WITH_SCOPED_FLOODING caching probability: 0.2'
p3363
sS'strategy'
p3364
g11
(tRp3365
S'fan_out'
p3366
I100
sg3353
S'SIT_WITH_SCOPED_FLOODING'
p3367
sS'p'
F0.20000000000000001
sS'scope'
p3368
I2
ssS'content_placement'
p3369
g11
(tRp3370
g3353
S'UNIFORM'
p3371
ssS'joint_cache_rsn_placement'
p3372
g11
(tRp3373
S'network_cache'
p3374
F0.90000000000000002
sS'network_rsn'
p3375
F57.600000000000001
sg3353
S'CACHE_ALL_RSN_ALL_SIT'
p3376
sS'rsn_cache_ratio'
p3377
I64
ssS'warmup_strategy'
p3378
g11
(tRp3379
S'p'
F0.10000000000000001
sg3353
S'NDN'
p3380
ssS'topology'
p3381
g11
(tRp3382
S'ext_delay'
p3383
I2
sS'source_ratio'
p3384
F1
sg3353
S'ROCKET_FUEL'
p3385
sS'asn'
p3386
I3257
ssg11
(tRp3387
S'CACHE_HIT_RATIO'
p3388
g11
(tRp3389
S'MEAN_NETWORK_HITS'
p3390
F0.13687360363920861
sS'MEAN_USER_HITS'
p3391
F0.037674519893856416
sS'MEAN'
p3392
F0.17454812353306501
ssS'OVERHEAD'
p3393
g11
(tRp3394
g3392
F0.99531790648717966
ssS'ABS'
p3395
g11
(tRp3396
S'MEAN_ABS_TIME'
p3397
F6421.8921989393239
sS'NUM_ABS'
p3398
I9722
sstp3399
a(g11
(tRp3400
S'workload'
p3401
g11
(tRp3402
S'n_contents'
p3403
I10000
sS'disconnection_rate'
p3404
F0.0025000000000000001
sS'name'
p3405
S'STATIONARY_SIT'
p3406
sS'n_warmup'
p3407
I36000
sS'rate'
p3408
I10
sS'n_measured'
p3409
I108000
sS'alpha'
p3410
F0.69999999999999996
ssS'cache_policy'
p3411
g11
(tRp3412
g3405
S'LRU'
p3413
ssS'desc'
p3414
S'strategy: SCOPED_FLOODING caching probability: 0.5'
p3415
sS'strategy'
p3416
g11
(tRp3417
S'scope'
p3418
I1
sg3405
S'SCOPED_FLOODING'
p3419
sS'p'
F0.5
ssS'content_placement'
p3420
g11
(tRp3421
g3405
S'UNIFORM'
p3422
ssS'joint_cache_rsn_placement'
p3423
g11
(tRp3424
S'network_cache'
p3425
F0.90000000000000002
sS'network_rsn'
p3426
F57.600000000000001
sg3405
S'CACHE_ALL_RSN_ALL_SIT'
p3427
sS'rsn_cache_ratio'
p3428
I64
ssS'warmup_strategy'
p3429
g11
(tRp3430
S'p'
F0.10000000000000001
sg3405
S'NDN'
p3431
ssS'topology'
p3432
g11
(tRp3433
S'ext_delay'
p3434
I2
sS'source_ratio'
p3435
F1
sg3405
S'ROCKET_FUEL'
p3436
sS'asn'
p3437
I3257
ssg11
(tRp3438
S'CACHE_HIT_RATIO'
p3439
g11
(tRp3440
S'MEAN_NETWORK_HITS'
p3441
F0.05508423319166781
sS'MEAN_USER_HITS'
p3442
F0.0097257280183224333
sS'MEAN'
p3443
F0.064809961209990247
ssS'OVERHEAD'
p3444
g11
(tRp3445
g3443
F0.10340239191619423
ssS'ABS'
p3446
g11
(tRp3447
S'MEAN_ABS_TIME'
p3448
F5167.5548293771026
sS'NUM_ABS'
p3449
I8754
sstp3450
a(g11
(tRp3451
S'workload'
p3452
g11
(tRp3453
S'n_contents'
p3454
I10000
sS'disconnection_rate'
p3455
F0.0025000000000000001
sS'name'
p3456
S'STATIONARY_SIT'
p3457
sS'n_warmup'
p3458
I36000
sS'rate'
p3459
I10
sS'n_measured'
p3460
I108000
sS'alpha'
p3461
F0.69999999999999996
ssS'cache_policy'
p3462
g11
(tRp3463
g3456
S'LRU'
p3464
ssS'desc'
p3465
S'strategy: SCOPED_FLOODING caching probability: 0.6'
p3466
sS'strategy'
p3467
g11
(tRp3468
S'scope'
p3469
I1
sg3456
S'SCOPED_FLOODING'
p3470
sS'p'
F0.59999999999999998
ssS'content_placement'
p3471
g11
(tRp3472
g3456
S'UNIFORM'
p3473
ssS'joint_cache_rsn_placement'
p3474
g11
(tRp3475
S'network_cache'
p3476
F0.90000000000000002
sS'network_rsn'
p3477
F57.600000000000001
sg3456
S'CACHE_ALL_RSN_ALL_SIT'
p3478
sS'rsn_cache_ratio'
p3479
I64
ssS'warmup_strategy'
p3480
g11
(tRp3481
S'p'
F0.10000000000000001
sg3456
S'NDN'
p3482
ssS'topology'
p3483
g11
(tRp3484
S'ext_delay'
p3485
I2
sS'source_ratio'
p3486
F1
sg3456
S'ROCKET_FUEL'
p3487
sS'asn'
p3488
I3257
ssg11
(tRp3489
S'CACHE_HIT_RATIO'
p3490
g11
(tRp3491
S'MEAN_NETWORK_HITS'
p3492
F0.058532317950743998
sS'MEAN_USER_HITS'
p3493
F0.0094778896275362727
sS'MEAN'
p3494
F0.068010207578280274
ssS'OVERHEAD'
p3495
g11
(tRp3496
g3494
F0.10789716630854139
ssS'ABS'
p3497
g11
(tRp3498
S'MEAN_ABS_TIME'
p3499
F5200.6198040264562
sS'NUM_ABS'
p3500
I8830
sstp3501
a(g11
(tRp3502
S'workload'
p3503
g11
(tRp3504
S'n_contents'
p3505
I10000
sS'disconnection_rate'
p3506
F0.0025000000000000001
sS'name'
p3507
S'STATIONARY_SIT'
p3508
sS'n_warmup'
p3509
I36000
sS'rate'
p3510
I10
sS'n_measured'
p3511
I108000
sS'alpha'
p3512
F0.69999999999999996
ssS'cache_policy'
p3513
g11
(tRp3514
g3507
S'LRU'
p3515
ssS'desc'
p3516
S'strategy: SCOPED_FLOODING caching probability: 0.7'
p3517
sS'strategy'
p3518
g11
(tRp3519
S'scope'
p3520
I1
sg3507
S'SCOPED_FLOODING'
p3521
sS'p'
F0.69999999999999996
ssS'content_placement'
p3522
g11
(tRp3523
g3507
S'UNIFORM'
p3524
ssS'joint_cache_rsn_placement'
p3525
g11
(tRp3526
S'network_cache'
p3527
F0.90000000000000002
sS'network_rsn'
p3528
F57.600000000000001
sg3507
S'CACHE_ALL_RSN_ALL_SIT'
p3529
sS'rsn_cache_ratio'
p3530
I64
ssS'warmup_strategy'
p3531
g11
(tRp3532
S'p'
F0.10000000000000001
sg3507
S'NDN'
p3533
ssS'topology'
p3534
g11
(tRp3535
S'ext_delay'
p3536
I2
sS'source_ratio'
p3537
F1
sg3507
S'ROCKET_FUEL'
p3538
sS'asn'
p3539
I3257
ssg11
(tRp3540
S'CACHE_HIT_RATIO'
p3541
g11
(tRp3542
S'MEAN_NETWORK_HITS'
p3543
F0.059674954742830418
sS'MEAN_USER_HITS'
p3544
F0.008434565591649297
sS'MEAN'
p3545
F0.068109520334479715
ssS'OVERHEAD'
p3546
g11
(tRp3547
g3545
F0.11031057102654146
ssS'ABS'
p3548
g11
(tRp3549
S'MEAN_ABS_TIME'
p3550
F5201.9863788554576
sS'NUM_ABS'
p3551
I8802
sstp3552
a(g11
(tRp3553
S'workload'
p3554
g11
(tRp3555
S'n_contents'
p3556
I10000
sS'disconnection_rate'
p3557
F0.0025000000000000001
sS'name'
p3558
S'STATIONARY_SIT'
p3559
sS'n_warmup'
p3560
I36000
sS'rate'
p3561
I10
sS'n_measured'
p3562
I108000
sS'alpha'
p3563
F0.69999999999999996
ssS'cache_policy'
p3564
g11
(tRp3565
g3558
S'LRU'
p3566
ssS'desc'
p3567
S'strategy: SCOPED_FLOODING caching probability: 0.8'
p3568
sS'strategy'
p3569
g11
(tRp3570
S'scope'
p3571
I1
sg3558
S'SCOPED_FLOODING'
p3572
sS'p'
F0.80000000000000004
ssS'content_placement'
p3573
g11
(tRp3574
g3558
S'UNIFORM'
p3575
ssS'joint_cache_rsn_placement'
p3576
g11
(tRp3577
S'network_cache'
p3578
F0.90000000000000002
sS'network_rsn'
p3579
F57.600000000000001
sg3558
S'CACHE_ALL_RSN_ALL_SIT'
p3580
sS'rsn_cache_ratio'
p3581
I64
ssS'warmup_strategy'
p3582
g11
(tRp3583
S'p'
F0.10000000000000001
sg3558
S'NDN'
p3584
ssS'topology'
p3585
g11
(tRp3586
S'ext_delay'
p3587
I2
sS'source_ratio'
p3588
F1
sg3558
S'ROCKET_FUEL'
p3589
sS'asn'
p3590
I3257
ssg11
(tRp3591
S'CACHE_HIT_RATIO'
p3592
g11
(tRp3593
S'MEAN_NETWORK_HITS'
p3594
F0.060184438133350546
sS'MEAN_USER_HITS'
p3595
F0.0098834957722842582
sS'MEAN'
p3596
F0.070067933905634802
ssS'OVERHEAD'
p3597
g11
(tRp3598
g3596
F0.11094929968372813
ssS'ABS'
p3599
g11
(tRp3600
S'MEAN_ABS_TIME'
p3601
F5218.2602163586471
sS'NUM_ABS'
p3602
I8848
sstp3603
a(g11
(tRp3604
S'workload'
p3605
g11
(tRp3606
S'n_contents'
p3607
I10000
sS'disconnection_rate'
p3608
F0.0025000000000000001
sS'name'
p3609
S'STATIONARY_SIT'
p3610
sS'n_warmup'
p3611
I36000
sS'rate'
p3612
I10
sS'n_measured'
p3613
I108000
sS'alpha'
p3614
F0.69999999999999996
ssS'cache_policy'
p3615
g11
(tRp3616
g3609
S'LRU'
p3617
ssS'desc'
p3618
S'strategy: SIT_WITH_SCOPED_FLOODING caching probability: 0.3'
p3619
sS'strategy'
p3620
g11
(tRp3621
S'fan_out'
p3622
I100
sg3609
S'SIT_WITH_SCOPED_FLOODING'
p3623
sS'p'
F0.29999999999999999
sS'scope'
p3624
I2
ssS'content_placement'
p3625
g11
(tRp3626
g3609
S'UNIFORM'
p3627
ssS'joint_cache_rsn_placement'
p3628
g11
(tRp3629
S'network_cache'
p3630
F0.90000000000000002
sS'network_rsn'
p3631
F57.600000000000001
sg3609
S'CACHE_ALL_RSN_ALL_SIT'
p3632
sS'rsn_cache_ratio'
p3633
I64
ssS'warmup_strategy'
p3634
g11
(tRp3635
S'p'
F0.10000000000000001
sg3609
S'NDN'
p3636
ssS'topology'
p3637
g11
(tRp3638
S'ext_delay'
p3639
I2
sS'source_ratio'
p3640
F1
sg3609
S'ROCKET_FUEL'
p3641
sS'asn'
p3642
I3257
ssg11
(tRp3643
S'CACHE_HIT_RATIO'
p3644
g11
(tRp3645
S'MEAN_NETWORK_HITS'
p3646
F0.13757436997146127
sS'MEAN_USER_HITS'
p3647
F0.03421018687218845
sS'MEAN'
p3648
F0.17178455684364974
ssS'OVERHEAD'
p3649
g11
(tRp3650
g3648
F0.98413440608826042
ssS'ABS'
p3651
g11
(tRp3652
S'MEAN_ABS_TIME'
p3653
F5988.1414758931624
sS'NUM_ABS'
p3654
I9368
sstp3655
a(g11
(tRp3656
S'workload'
p3657
g11
(tRp3658
S'n_contents'
p3659
I10000
sS'disconnection_rate'
p3660
F0.0025000000000000001
sS'name'
p3661
S'STATIONARY_SIT'
p3662
sS'n_warmup'
p3663
I36000
sS'rate'
p3664
I10
sS'n_measured'
p3665
I108000
sS'alpha'
p3666
F0.69999999999999996
ssS'cache_policy'
p3667
g11
(tRp3668
g3661
S'LRU'
p3669
ssS'desc'
p3670
S'strategy: SIT_WITH_SCOPED_FLOODING caching probability: 0.4'
p3671
sS'strategy'
p3672
g11
(tRp3673
S'fan_out'
p3674
I100
sg3661
S'SIT_WITH_SCOPED_FLOODING'
p3675
sS'p'
F0.40000000000000002
sS'scope'
p3676
I2
ssS'content_placement'
p3677
g11
(tRp3678
g3661
S'UNIFORM'
p3679
ssS'joint_cache_rsn_placement'
p3680
g11
(tRp3681
S'network_cache'
p3682
F0.90000000000000002
sS'network_rsn'
p3683
F57.600000000000001
sg3661
S'CACHE_ALL_RSN_ALL_SIT'
p3684
sS'rsn_cache_ratio'
p3685
I64
ssS'warmup_strategy'
p3686
g11
(tRp3687
S'p'
F0.10000000000000001
sg3661
S'NDN'
p3688
ssS'topology'
p3689
g11
(tRp3690
S'ext_delay'
p3691
I2
sS'source_ratio'
p3692
F1
sg3661
S'ROCKET_FUEL'
p3693
sS'asn'
p3694
I3257
ssg11
(tRp3695
S'CACHE_HIT_RATIO'
p3696
g11
(tRp3697
S'MEAN_NETWORK_HITS'
p3698
F0.13641258101072345
sS'MEAN_USER_HITS'
p3699
F0.032101822464016522
sS'MEAN'
p3700
F0.16851440347473998
ssS'OVERHEAD'
p3701
g11
(tRp3702
g3700
F0.96897495977189962
ssS'ABS'
p3703
g11
(tRp3704
S'MEAN_ABS_TIME'
p3705
F5719.3644430351924
sS'NUM_ABS'
p3706
I9236
sstp3707
a(g11
(tRp3708
S'workload'
p3709
g11
(tRp3710
S'n_contents'
p3711
I10000
sS'disconnection_rate'
p3712
F0.0025000000000000001
sS'name'
p3713
S'STATIONARY_SIT'
p3714
sS'n_warmup'
p3715
I36000
sS'rate'
p3716
I10
sS'n_measured'
p3717
I108000
sS'alpha'
p3718
F0.69999999999999996
ssS'cache_policy'
p3719
g11
(tRp3720
g3713
S'LRU'
p3721
ssS'desc'
p3722
S'strategy: SCOPED_FLOODING caching probability: 0.9'
p3723
sS'strategy'
p3724
g11
(tRp3725
S'scope'
p3726
I1
sg3713
S'SCOPED_FLOODING'
p3727
sS'p'
F0.90000000000000002
ssS'content_placement'
p3728
g11
(tRp3729
g3713
S'UNIFORM'
p3730
ssS'joint_cache_rsn_placement'
p3731
g11
(tRp3732
S'network_cache'
p3733
F0.90000000000000002
sS'network_rsn'
p3734
F57.600000000000001
sg3713
S'CACHE_ALL_RSN_ALL_SIT'
p3735
sS'rsn_cache_ratio'
p3736
I64
ssS'warmup_strategy'
p3737
g11
(tRp3738
S'p'
F0.10000000000000001
sg3713
S'NDN'
p3739
ssS'topology'
p3740
g11
(tRp3741
S'ext_delay'
p3742
I2
sS'source_ratio'
p3743
F1
sg3713
S'ROCKET_FUEL'
p3744
sS'asn'
p3745
I3257
ssg11
(tRp3746
S'CACHE_HIT_RATIO'
p3747
g11
(tRp3748
S'MEAN_NETWORK_HITS'
p3749
F0.062165214585350112
sS'MEAN_USER_HITS'
p3750
F0.009204582123265569
sS'MEAN'
p3751
F0.071369796708615679
ssS'OVERHEAD'
p3752
g11
(tRp3753
g3751
F0.11410132300742175
ssS'ABS'
p3754
g11
(tRp3755
S'MEAN_ABS_TIME'
p3756
F5273.087170768039
sS'NUM_ABS'
p3757
I8848
sstp3758
a(g11
(tRp3759
S'workload'
p3760
g11
(tRp3761
S'n_contents'
p3762
I10000
sS'disconnection_rate'
p3763
F0.0025000000000000001
sS'name'
p3764
S'STATIONARY_SIT'
p3765
sS'n_warmup'
p3766
I36000
sS'rate'
p3767
I10
sS'n_measured'
p3768
I108000
sS'alpha'
p3769
F0.69999999999999996
ssS'cache_policy'
p3770
g11
(tRp3771
g3764
S'LRU'
p3772
ssS'desc'
p3773
S'strategy: SIT_WITH_SCOPED_FLOODING caching probability: 0.6'
p3774
sS'strategy'
p3775
g11
(tRp3776
S'fan_out'
p3777
I100
sg3764
S'SIT_WITH_SCOPED_FLOODING'
p3778
sS'p'
F0.59999999999999998
sS'scope'
p3779
I2
ssS'content_placement'
p3780
g11
(tRp3781
g3764
S'UNIFORM'
p3782
ssS'joint_cache_rsn_placement'
p3783
g11
(tRp3784
S'network_cache'
p3785
F0.90000000000000002
sS'network_rsn'
p3786
F57.600000000000001
sg3764
S'CACHE_ALL_RSN_ALL_SIT'
p3787
sS'rsn_cache_ratio'
p3788
I64
ssS'warmup_strategy'
p3789
g11
(tRp3790
S'p'
F0.10000000000000001
sg3764
S'NDN'
p3791
ssS'topology'
p3792
g11
(tRp3793
S'ext_delay'
p3794
I2
sS'source_ratio'
p3795
F1
sg3764
S'ROCKET_FUEL'
p3796
sS'asn'
p3797
I3257
ssg11
(tRp3798
S'CACHE_HIT_RATIO'
p3799
g11
(tRp3800
S'MEAN_NETWORK_HITS'
p3801
F0.13442453716585412
sS'MEAN_USER_HITS'
p3802
F0.028215643814293721
sS'MEAN'
p3803
F0.16264018098014782
ssS'OVERHEAD'
p3804
g11
(tRp3805
g3803
F0.92626107434783833
ssS'ABS'
p3806
g11
(tRp3807
S'MEAN_ABS_TIME'
p3808
F5056.7319356863145
sS'NUM_ABS'
p3809
I8747
sstp3810
a(g11
(tRp3811
S'workload'
p3812
g11
(tRp3813
S'n_contents'
p3814
I10000
sS'disconnection_rate'
p3815
F0.0025000000000000001
sS'name'
p3816
S'STATIONARY_SIT'
p3817
sS'n_warmup'
p3818
I36000
sS'rate'
p3819
I10
sS'n_measured'
p3820
I108000
sS'alpha'
p3821
F0.69999999999999996
ssS'cache_policy'
p3822
g11
(tRp3823
g3816
S'LRU'
p3824
ssS'desc'
p3825
S'strategy: SIT_WITH_SCOPED_FLOODING caching probability: 0.5'
p3826
sS'strategy'
p3827
g11
(tRp3828
S'fan_out'
p3829
I100
sg3816
S'SIT_WITH_SCOPED_FLOODING'
p3830
sS'p'
F0.5
sS'scope'
p3831
I2
ssS'content_placement'
p3832
g11
(tRp3833
g3816
S'UNIFORM'
p3834
ssS'joint_cache_rsn_placement'
p3835
g11
(tRp3836
S'network_cache'
p3837
F0.90000000000000002
sS'network_rsn'
p3838
F57.600000000000001
sg3816
S'CACHE_ALL_RSN_ALL_SIT'
p3839
sS'rsn_cache_ratio'
p3840
I64
ssS'warmup_strategy'
p3841
g11
(tRp3842
S'p'
F0.10000000000000001
sg3816
S'NDN'
p3843
ssS'topology'
p3844
g11
(tRp3845
S'ext_delay'
p3846
I2
sS'source_ratio'
p3847
F1
sg3816
S'ROCKET_FUEL'
p3848
sS'asn'
p3849
I3257
ssg11
(tRp3850
S'CACHE_HIT_RATIO'
p3851
g11
(tRp3852
S'MEAN_NETWORK_HITS'
p3853
F0.13507139574447499
sS'MEAN_USER_HITS'
p3854
F0.029735460827077974
sS'MEAN'
p3855
F0.16480685657155297
ssS'OVERHEAD'
p3856
g11
(tRp3857
g3855
F0.95049868173865371
ssS'ABS'
p3858
g11
(tRp3859
S'MEAN_ABS_TIME'
p3860
F5323.6006790033825
sS'NUM_ABS'
p3861
I8920
sstp3862
a(g11
(tRp3863
S'workload'
p3864
g11
(tRp3865
S'n_contents'
p3866
I10000
sS'disconnection_rate'
p3867
F0.0025000000000000001
sS'name'
p3868
S'STATIONARY_SIT'
p3869
sS'n_warmup'
p3870
I36000
sS'rate'
p3871
I10
sS'n_measured'
p3872
I108000
sS'alpha'
p3873
F0.69999999999999996
ssS'cache_policy'
p3874
g11
(tRp3875
g3868
S'LRU'
p3876
ssS'desc'
p3877
S'strategy: SCOPED_FLOODING caching probability: 1.0'
p3878
sS'strategy'
p3879
g11
(tRp3880
S'scope'
p3881
I1
sg3868
S'SCOPED_FLOODING'
p3882
sS'p'
F1
ssS'content_placement'
p3883
g11
(tRp3884
g3868
S'UNIFORM'
p3885
ssS'joint_cache_rsn_placement'
p3886
g11
(tRp3887
S'network_cache'
p3888
F0.90000000000000002
sS'network_rsn'
p3889
F57.600000000000001
sg3868
S'CACHE_ALL_RSN_ALL_SIT'
p3890
sS'rsn_cache_ratio'
p3891
I64
ssS'warmup_strategy'
p3892
g11
(tRp3893
S'p'
F0.10000000000000001
sg3868
S'NDN'
p3894
ssS'topology'
p3895
g11
(tRp3896
S'ext_delay'
p3897
I2
sS'source_ratio'
p3898
F1
sg3868
S'ROCKET_FUEL'
p3899
sS'asn'
p3900
I3257
ssg11
(tRp3901
S'CACHE_HIT_RATIO'
p3902
g11
(tRp3903
S'MEAN_NETWORK_HITS'
p3904
F0.062292345408212636
sS'MEAN_USER_HITS'
p3905
F0.0087819747750072577
sS'MEAN'
p3906
F0.071074320183219894
ssS'OVERHEAD'
p3907
g11
(tRp3908
g3906
F0.11362133479565176
ssS'ABS'
p3909
g11
(tRp3910
S'MEAN_ABS_TIME'
p3911
F5286.0339644058431
sS'NUM_ABS'
p3912
I8866
sstp3913
a(g11
(tRp3914
S'workload'
p3915
g11
(tRp3916
S'n_contents'
p3917
I10000
sS'disconnection_rate'
p3918
F0.0025000000000000001
sS'name'
p3919
S'STATIONARY_SIT'
p3920
sS'n_warmup'
p3921
I36000
sS'rate'
p3922
I10
sS'n_measured'
p3923
I108000
sS'alpha'
p3924
F0.69999999999999996
ssS'cache_policy'
p3925
g11
(tRp3926
g3919
S'LRU'
p3927
ssS'desc'
p3928
S'strategy: SIT_WITH_SCOPED_FLOODING caching probability: 0.7'
p3929
sS'strategy'
p3930
g11
(tRp3931
S'fan_out'
p3932
I100
sg3919
S'SIT_WITH_SCOPED_FLOODING'
p3933
sS'p'
F0.69999999999999996
sS'scope'
p3934
I2
ssS'content_placement'
p3935
g11
(tRp3936
g3919
S'UNIFORM'
p3937
ssS'joint_cache_rsn_placement'
p3938
g11
(tRp3939
S'network_cache'
p3940
F0.90000000000000002
sS'network_rsn'
p3941
F57.600000000000001
sg3919
S'CACHE_ALL_RSN_ALL_SIT'
p3942
sS'rsn_cache_ratio'
p3943
I64
ssS'warmup_strategy'
p3944
g11
(tRp3945
S'p'
F0.10000000000000001
sg3919
S'NDN'
p3946
ssS'topology'
p3947
g11
(tRp3948
S'ext_delay'
p3949
I2
sS'source_ratio'
p3950
F1
sg3919
S'ROCKET_FUEL'
p3951
sS'asn'
p3952
I3257
ssg11
(tRp3953
S'CACHE_HIT_RATIO'
p3954
g11
(tRp3955
S'MEAN_NETWORK_HITS'
p3956
F0.13490994985569404
sS'MEAN_USER_HITS'
p3957
F0.027672078812015284
sS'MEAN'
p3958
F0.16258202866770932
ssS'OVERHEAD'
p3959
g11
(tRp3960
g3958
F0.9418624336918141
ssS'ABS'
p3961
g11
(tRp3962
S'MEAN_ABS_TIME'
p3963
F4868.0945350530792
sS'NUM_ABS'
p3964
I8636
sstp3965
a(g11
(tRp3966
S'workload'
p3967
g11
(tRp3968
S'n_contents'
p3969
I10000
sS'disconnection_rate'
p3970
F0.0025000000000000001
sS'name'
p3971
S'STATIONARY_SIT'
p3972
sS'n_warmup'
p3973
I36000
sS'rate'
p3974
I10
sS'n_measured'
p3975
I108000
sS'alpha'
p3976
F0.69999999999999996
ssS'cache_policy'
p3977
g11
(tRp3978
g3971
S'LRU'
p3979
ssS'desc'
p3980
S'strategy: SIT_WITH_SCOPED_FLOODING caching probability: 0.8'
p3981
sS'strategy'
p3982
g11
(tRp3983
S'fan_out'
p3984
I100
sg3971
S'SIT_WITH_SCOPED_FLOODING'
p3985
sS'p'
F0.80000000000000004
sS'scope'
p3986
I2
ssS'content_placement'
p3987
g11
(tRp3988
g3971
S'UNIFORM'
p3989
ssS'joint_cache_rsn_placement'
p3990
g11
(tRp3991
S'network_cache'
p3992
F0.90000000000000002
sS'network_rsn'
p3993
F57.600000000000001
sg3971
S'CACHE_ALL_RSN_ALL_SIT'
p3994
sS'rsn_cache_ratio'
p3995
I64
ssS'warmup_strategy'
p3996
g11
(tRp3997
S'p'
F0.10000000000000001
sg3971
S'NDN'
p3998
ssS'topology'
p3999
g11
(tRp4000
S'ext_delay'
p4001
I2
sS'source_ratio'
p4002
F1
sg3971
S'ROCKET_FUEL'
p4003
sS'asn'
p4004
I3257
ssg11
(tRp4005
S'CACHE_HIT_RATIO'
p4006
g11
(tRp4007
S'MEAN_NETWORK_HITS'
p4008
F0.13356413111896576
sS'MEAN_USER_HITS'
p4009
F0.02863587210897529
sS'MEAN'
p4010
F0.16220000322794106
ssS'OVERHEAD'
p4011
g11
(tRp4012
g4010
F0.92295711680304715
ssS'ABS'
p4013
g11
(tRp4014
S'MEAN_ABS_TIME'
p4015
F4807.530083073616
sS'NUM_ABS'
p4016
I8573
sstp4017
a(g11
(tRp4018
S'workload'
p4019
g11
(tRp4020
S'n_contents'
p4021
I10000
sS'disconnection_rate'
p4022
F0.0025000000000000001
sS'name'
p4023
S'STATIONARY_SIT'
p4024
sS'n_warmup'
p4025
I36000
sS'rate'
p4026
I10
sS'n_measured'
p4027
I108000
sS'alpha'
p4028
F0.69999999999999996
ssS'cache_policy'
p4029
g11
(tRp4030
g4023
S'LRU'
p4031
ssS'desc'
p4032
S'strategy: SIT_WITH_SCOPED_FLOODING caching probability: 0.9'
p4033
sS'strategy'
p4034
g11
(tRp4035
S'fan_out'
p4036
I100
sg4023
S'SIT_WITH_SCOPED_FLOODING'
p4037
sS'p'
F0.90000000000000002
sS'scope'
p4038
I2
ssS'content_placement'
p4039
g11
(tRp4040
g4023
S'UNIFORM'
p4041
ssS'joint_cache_rsn_placement'
p4042
g11
(tRp4043
S'network_cache'
p4044
F0.90000000000000002
sS'network_rsn'
p4045
F57.600000000000001
sg4023
S'CACHE_ALL_RSN_ALL_SIT'
p4046
sS'rsn_cache_ratio'
p4047
I64
ssS'warmup_strategy'
p4048
g11
(tRp4049
S'p'
F0.10000000000000001
sg4023
S'NDN'
p4050
ssS'topology'
p4051
g11
(tRp4052
S'ext_delay'
p4053
I2
sS'source_ratio'
p4054
F1
sg4023
S'ROCKET_FUEL'
p4055
sS'asn'
p4056
I3257
ssg11
(tRp4057
S'CACHE_HIT_RATIO'
p4058
g11
(tRp4059
S'MEAN_NETWORK_HITS'
p4060
F0.13239428665932532
sS'MEAN_USER_HITS'
p4061
F0.026517580906050962
sS'MEAN'
p4062
F0.15891186756537629
ssS'OVERHEAD'
p4063
g11
(tRp4064
g4062
F0.90974583620734861
ssS'ABS'
p4065
g11
(tRp4066
S'MEAN_ABS_TIME'
p4067
F4684.8131638732202
sS'NUM_ABS'
p4068
I8395
sstp4069
a(g11
(tRp4070
S'workload'
p4071
g11
(tRp4072
S'n_contents'
p4073
I10000
sS'disconnection_rate'
p4074
F0.0025000000000000001
sS'name'
p4075
S'STATIONARY_SIT'
p4076
sS'n_warmup'
p4077
I36000
sS'rate'
p4078
I10
sS'n_measured'
p4079
I108000
sS'alpha'
p4080
F0.69999999999999996
ssS'cache_policy'
p4081
g11
(tRp4082
g4075
S'LRU'
p4083
ssS'desc'
p4084
S'strategy: SCOPED_FLOODING caching probability: 0.1'
p4085
sS'strategy'
p4086
g11
(tRp4087
S'scope'
p4088
I2
sg4075
S'SCOPED_FLOODING'
p4089
sS'p'
F0.10000000000000001
ssS'content_placement'
p4090
g11
(tRp4091
g4075
S'UNIFORM'
p4092
ssS'joint_cache_rsn_placement'
p4093
g11
(tRp4094
S'network_cache'
p4095
F0.90000000000000002
sS'network_rsn'
p4096
F57.600000000000001
sg4075
S'CACHE_ALL_RSN_ALL_SIT'
p4097
sS'rsn_cache_ratio'
p4098
I64
ssS'warmup_strategy'
p4099
g11
(tRp4100
S'p'
F0.10000000000000001
sg4075
S'NDN'
p4101
ssS'topology'
p4102
g11
(tRp4103
S'ext_delay'
p4104
I2
sS'source_ratio'
p4105
F1
sg4075
S'ROCKET_FUEL'
p4106
sS'asn'
p4107
I3257
ssg11
(tRp4108
S'CACHE_HIT_RATIO'
p4109
g11
(tRp4110
S'MEAN_NETWORK_HITS'
p4111
F0.10990132149352561
sS'MEAN_USER_HITS'
p4112
F0.014783629126894833
sS'MEAN'
p4113
F0.12468495062042044
ssS'OVERHEAD'
p4114
g11
(tRp4115
g4113
F0.44749714691281856
ssS'ABS'
p4116
g11
(tRp4117
S'MEAN_ABS_TIME'
p4118
F5919.0550246080638
sS'NUM_ABS'
p4119
I9434
sstp4120
a(g11
(tRp4121
S'workload'
p4122
g11
(tRp4123
S'n_contents'
p4124
I10000
sS'disconnection_rate'
p4125
F0.0025000000000000001
sS'name'
p4126
S'STATIONARY_SIT'
p4127
sS'n_warmup'
p4128
I36000
sS'rate'
p4129
I10
sS'n_measured'
p4130
I108000
sS'alpha'
p4131
F0.69999999999999996
ssS'cache_policy'
p4132
g11
(tRp4133
g4126
S'LRU'
p4134
ssS'desc'
p4135
S'strategy: SIT_WITH_SCOPED_FLOODING caching probability: 1.0'
p4136
sS'strategy'
p4137
g11
(tRp4138
S'fan_out'
p4139
I100
sg4126
S'SIT_WITH_SCOPED_FLOODING'
p4140
sS'p'
F1
sS'scope'
p4141
I2
ssS'content_placement'
p4142
g11
(tRp4143
g4126
S'UNIFORM'
p4144
ssS'joint_cache_rsn_placement'
p4145
g11
(tRp4146
S'network_cache'
p4147
F0.90000000000000002
sS'network_rsn'
p4148
F57.600000000000001
sg4126
S'CACHE_ALL_RSN_ALL_SIT'
p4149
sS'rsn_cache_ratio'
p4150
I64
ssS'warmup_strategy'
p4151
g11
(tRp4152
S'p'
F0.10000000000000001
sg4126
S'NDN'
p4153
ssS'topology'
p4154
g11
(tRp4155
S'ext_delay'
p4156
I2
sS'source_ratio'
p4157
F1
sg4126
S'ROCKET_FUEL'
p4158
sS'asn'
p4159
I3257
ssg11
(tRp4160
S'CACHE_HIT_RATIO'
p4161
g11
(tRp4162
S'MEAN_NETWORK_HITS'
p4163
F0.13111269747163709
sS'MEAN_USER_HITS'
p4164
F0.025892630279858195
sS'MEAN'
p4165
F0.15700532775149528
ssS'OVERHEAD'
p4166
g11
(tRp4167
g4165
F0.90278164285109319
ssS'ABS'
p4168
g11
(tRp4169
S'MEAN_ABS_TIME'
p4170
F4580.2975616108533
sS'NUM_ABS'
p4171
I8361
sstp4172
a(g11
(tRp4173
S'workload'
p4174
g11
(tRp4175
S'n_contents'
p4176
I10000
sS'disconnection_rate'
p4177
F0.0025000000000000001
sS'name'
p4178
S'STATIONARY_SIT'
p4179
sS'n_warmup'
p4180
I36000
sS'rate'
p4181
I10
sS'n_measured'
p4182
I108000
sS'alpha'
p4183
F0.69999999999999996
ssS'cache_policy'
p4184
g11
(tRp4185
g4178
S'LRU'
p4186
ssS'desc'
p4187
S'strategy: SCOPED_FLOODING caching probability: 0.2'
p4188
sS'strategy'
p4189
g11
(tRp4190
S'scope'
p4191
I2
sg4178
S'SCOPED_FLOODING'
p4192
sS'p'
F0.20000000000000001
ssS'content_placement'
p4193
g11
(tRp4194
g4178
S'UNIFORM'
p4195
ssS'joint_cache_rsn_placement'
p4196
g11
(tRp4197
S'network_cache'
p4198
F0.90000000000000002
sS'network_rsn'
p4199
F57.600000000000001
sg4178
S'CACHE_ALL_RSN_ALL_SIT'
p4200
sS'rsn_cache_ratio'
p4201
I64
ssS'warmup_strategy'
p4202
g11
(tRp4203
S'p'
F0.10000000000000001
sg4178
S'NDN'
p4204
ssS'topology'
p4205
g11
(tRp4206
S'ext_delay'
p4207
I2
sS'source_ratio'
p4208
F1
sg4178
S'ROCKET_FUEL'
p4209
sS'asn'
p4210
I3257
ssg11
(tRp4211
S'CACHE_HIT_RATIO'
p4212
g11
(tRp4213
S'MEAN_NETWORK_HITS'
p4214
F0.11003970733477113
sS'MEAN_USER_HITS'
p4215
F0.012593473484772136
sS'MEAN'
p4216
F0.12263318081954326
ssS'OVERHEAD'
p4217
g11
(tRp4218
g4216
F0.45763005663838108
ssS'ABS'
p4219
g11
(tRp4220
S'MEAN_ABS_TIME'
p4221
F5721.0155517990306
sS'NUM_ABS'
p4222
I9421
sstp4223
a(g11
(tRp4224
S'workload'
p4225
g11
(tRp4226
S'n_contents'
p4227
I10000
sS'disconnection_rate'
p4228
F0.0025000000000000001
sS'name'
p4229
S'STATIONARY_SIT'
p4230
sS'n_warmup'
p4231
I36000
sS'rate'
p4232
I10
sS'n_measured'
p4233
I108000
sS'alpha'
p4234
F0.69999999999999996
ssS'cache_policy'
p4235
g11
(tRp4236
g4229
S'LRU'
p4237
ssS'desc'
p4238
S'strategy: SCOPED_FLOODING caching probability: 0.3'
p4239
sS'strategy'
p4240
g11
(tRp4241
S'scope'
p4242
I2
sg4229
S'SCOPED_FLOODING'
p4243
sS'p'
F0.29999999999999999
ssS'content_placement'
p4244
g11
(tRp4245
g4229
S'UNIFORM'
p4246
ssS'joint_cache_rsn_placement'
p4247
g11
(tRp4248
S'network_cache'
p4249
F0.90000000000000002
sS'network_rsn'
p4250
F57.600000000000001
sg4229
S'CACHE_ALL_RSN_ALL_SIT'
p4251
sS'rsn_cache_ratio'
p4252
I64
ssS'warmup_strategy'
p4253
g11
(tRp4254
S'p'
F0.10000000000000001
sg4229
S'NDN'
p4255
ssS'topology'
p4256
g11
(tRp4257
S'ext_delay'
p4258
I2
sS'source_ratio'
p4259
F1
sg4229
S'ROCKET_FUEL'
p4260
sS'asn'
p4261
I3257
ssg11
(tRp4262
S'CACHE_HIT_RATIO'
p4263
g11
(tRp4264
S'MEAN_NETWORK_HITS'
p4265
F0.10647940935722033
sS'MEAN_USER_HITS'
p4266
F0.013056398966133202
sS'MEAN'
p4267
F0.11953580832335353
ssS'OVERHEAD'
p4268
g11
(tRp4269
g4267
F0.44917157592106483
ssS'ABS'
p4270
g11
(tRp4271
S'MEAN_ABS_TIME'
p4272
F5502.8445148424998
sS'NUM_ABS'
p4273
I9090
sstp4274
a(g11
(tRp4275
S'workload'
p4276
g11
(tRp4277
S'n_contents'
p4278
I10000
sS'disconnection_rate'
p4279
F0.0025000000000000001
sS'name'
p4280
S'STATIONARY_SIT'
p4281
sS'n_warmup'
p4282
I36000
sS'rate'
p4283
I10
sS'n_measured'
p4284
I108000
sS'alpha'
p4285
F0.69999999999999996
ssS'cache_policy'
p4286
g11
(tRp4287
g4280
S'LRU'
p4288
ssS'desc'
p4289
S'strategy: SCOPED_FLOODING caching probability: 0.5'
p4290
sS'strategy'
p4291
g11
(tRp4292
S'scope'
p4293
I2
sg4280
S'SCOPED_FLOODING'
p4294
sS'p'
F0.5
ssS'content_placement'
p4295
g11
(tRp4296
g4280
S'UNIFORM'
p4297
ssS'joint_cache_rsn_placement'
p4298
g11
(tRp4299
S'network_cache'
p4300
F0.90000000000000002
sS'network_rsn'
p4301
F57.600000000000001
sg4280
S'CACHE_ALL_RSN_ALL_SIT'
p4302
sS'rsn_cache_ratio'
p4303
I64
ssS'warmup_strategy'
p4304
g11
(tRp4305
S'p'
F0.10000000000000001
sg4280
S'NDN'
p4306
ssS'topology'
p4307
g11
(tRp4308
S'ext_delay'
p4309
I2
sS'source_ratio'
p4310
F1
sg4280
S'ROCKET_FUEL'
p4311
sS'asn'
p4312
I3257
ssg11
(tRp4313
S'CACHE_HIT_RATIO'
p4314
g11
(tRp4315
S'MEAN_NETWORK_HITS'
p4316
F0.1047516111599545
sS'MEAN_USER_HITS'
p4317
F0.011929439663168763
sS'MEAN'
p4318
F0.11668105082312327
ssS'OVERHEAD'
p4319
g11
(tRp4320
g4318
F0.45394784600617849
ssS'ABS'
p4321
g11
(tRp4322
S'MEAN_ABS_TIME'
p4323
F5238.3987202363123
sS'NUM_ABS'
p4324
I8980
sstp4325
a(g11
(tRp4326
S'workload'
p4327
g11
(tRp4328
S'n_contents'
p4329
I10000
sS'disconnection_rate'
p4330
F0.0025000000000000001
sS'name'
p4331
S'STATIONARY_SIT'
p4332
sS'n_warmup'
p4333
I36000
sS'rate'
p4334
I10
sS'n_measured'
p4335
I108000
sS'alpha'
p4336
F0.69999999999999996
ssS'cache_policy'
p4337
g11
(tRp4338
g4331
S'LRU'
p4339
ssS'desc'
p4340
S'strategy: SCOPED_FLOODING caching probability: 0.6'
p4341
sS'strategy'
p4342
g11
(tRp4343
S'scope'
p4344
I2
sg4331
S'SCOPED_FLOODING'
p4345
sS'p'
F0.59999999999999998
ssS'content_placement'
p4346
g11
(tRp4347
g4331
S'UNIFORM'
p4348
ssS'joint_cache_rsn_placement'
p4349
g11
(tRp4350
S'network_cache'
p4351
F0.90000000000000002
sS'network_rsn'
p4352
F57.600000000000001
sg4331
S'CACHE_ALL_RSN_ALL_SIT'
p4353
sS'rsn_cache_ratio'
p4354
I64
ssS'warmup_strategy'
p4355
g11
(tRp4356
S'p'
F0.10000000000000001
sg4331
S'NDN'
p4357
ssS'topology'
p4358
g11
(tRp4359
S'ext_delay'
p4360
I2
sS'source_ratio'
p4361
F1
sg4331
S'ROCKET_FUEL'
p4362
sS'asn'
p4363
I3257
ssg11
(tRp4364
S'CACHE_HIT_RATIO'
p4365
g11
(tRp4366
S'MEAN_NETWORK_HITS'
p4367
F0.10446653925861416
sS'MEAN_USER_HITS'
p4368
F0.012103764988589722
sS'MEAN'
p4369
F0.11657030424720388
ssS'OVERHEAD'
p4370
g11
(tRp4371
g4369
F0.45476207755763604
ssS'ABS'
p4372
g11
(tRp4373
S'MEAN_ABS_TIME'
p4374
F5188.6550981813189
sS'NUM_ABS'
p4375
I8933
sstp4376
a(g11
(tRp4377
S'workload'
p4378
g11
(tRp4379
S'n_contents'
p4380
I10000
sS'disconnection_rate'
p4381
F0.0025000000000000001
sS'name'
p4382
S'STATIONARY_SIT'
p4383
sS'n_warmup'
p4384
I36000
sS'rate'
p4385
I10
sS'n_measured'
p4386
I108000
sS'alpha'
p4387
F0.69999999999999996
ssS'cache_policy'
p4388
g11
(tRp4389
g4382
S'LRU'
p4390
ssS'desc'
p4391
S'strategy: SCOPED_FLOODING caching probability: 0.4'
p4392
sS'strategy'
p4393
g11
(tRp4394
S'scope'
p4395
I2
sg4382
S'SCOPED_FLOODING'
p4396
sS'p'
F0.40000000000000002
ssS'content_placement'
p4397
g11
(tRp4398
g4382
S'UNIFORM'
p4399
ssS'joint_cache_rsn_placement'
p4400
g11
(tRp4401
S'network_cache'
p4402
F0.90000000000000002
sS'network_rsn'
p4403
F57.600000000000001
sg4382
S'CACHE_ALL_RSN_ALL_SIT'
p4404
sS'rsn_cache_ratio'
p4405
I64
ssS'warmup_strategy'
p4406
g11
(tRp4407
S'p'
F0.10000000000000001
sg4382
S'NDN'
p4408
ssS'topology'
p4409
g11
(tRp4410
S'ext_delay'
p4411
I2
sS'source_ratio'
p4412
F1
sg4382
S'ROCKET_FUEL'
p4413
sS'asn'
p4414
I3257
ssg11
(tRp4415
S'CACHE_HIT_RATIO'
p4416
g11
(tRp4417
S'MEAN_NETWORK_HITS'
p4418
F0.10529265205086236
sS'MEAN_USER_HITS'
p4419
F0.012437409793502713
sS'MEAN'
p4420
F0.11773006184436506
ssS'OVERHEAD'
p4421
g11
(tRp4422
g4420
F0.45427790454842326
ssS'ABS'
p4423
g11
(tRp4424
S'MEAN_ABS_TIME'
p4425
F5422.6030952675737
sS'NUM_ABS'
p4426
I9144
sstp4427
a(g11
(tRp4428
S'workload'
p4429
g11
(tRp4430
S'n_contents'
p4431
I10000
sS'disconnection_rate'
p4432
F0.0025000000000000001
sS'name'
p4433
S'STATIONARY_SIT'
p4434
sS'n_warmup'
p4435
I36000
sS'rate'
p4436
I10
sS'n_measured'
p4437
I108000
sS'alpha'
p4438
F0.69999999999999996
ssS'cache_policy'
p4439
g11
(tRp4440
g4433
S'LRU'
p4441
ssS'desc'
p4442
S'strategy: SCOPED_FLOODING caching probability: 0.8'
p4443
sS'strategy'
p4444
g11
(tRp4445
S'scope'
p4446
I2
sg4433
S'SCOPED_FLOODING'
p4447
sS'p'
F0.80000000000000004
ssS'content_placement'
p4448
g11
(tRp4449
g4433
S'UNIFORM'
p4450
ssS'joint_cache_rsn_placement'
p4451
g11
(tRp4452
S'network_cache'
p4453
F0.90000000000000002
sS'network_rsn'
p4454
F57.600000000000001
sg4433
S'CACHE_ALL_RSN_ALL_SIT'
p4455
sS'rsn_cache_ratio'
p4456
I64
ssS'warmup_strategy'
p4457
g11
(tRp4458
S'p'
F0.10000000000000001
sg4433
S'NDN'
p4459
ssS'topology'
p4460
g11
(tRp4461
S'ext_delay'
p4462
I2
sS'source_ratio'
p4463
F1
sg4433
S'ROCKET_FUEL'
p4464
sS'asn'
p4465
I3257
ssg11
(tRp4466
S'CACHE_HIT_RATIO'
p4467
g11
(tRp4468
S'MEAN_NETWORK_HITS'
p4469
F0.10344563367558456
sS'MEAN_USER_HITS'
p4470
F0.01175161110797448
sS'MEAN'
p4471
F0.11519724478355904
ssS'OVERHEAD'
p4472
g11
(tRp4473
g4471
F0.45267496350306091
ssS'ABS'
p4474
g11
(tRp4475
S'MEAN_ABS_TIME'
p4476
F5014.7250115482138
sS'NUM_ABS'
p4477
I8873
sstp4478
a(g11
(tRp4479
S'workload'
p4480
g11
(tRp4481
S'n_contents'
p4482
I10000
sS'disconnection_rate'
p4483
F0.0025000000000000001
sS'name'
p4484
S'STATIONARY_SIT'
p4485
sS'n_warmup'
p4486
I36000
sS'rate'
p4487
I10
sS'n_measured'
p4488
I108000
sS'alpha'
p4489
F0.69999999999999996
ssS'cache_policy'
p4490
g11
(tRp4491
g4484
S'LRU'
p4492
ssS'desc'
p4493
S'strategy: SCOPED_FLOODING caching probability: 0.7'
p4494
sS'strategy'
p4495
g11
(tRp4496
S'scope'
p4497
I2
sg4484
S'SCOPED_FLOODING'
p4498
sS'p'
F0.69999999999999996
ssS'content_placement'
p4499
g11
(tRp4500
g4484
S'UNIFORM'
p4501
ssS'joint_cache_rsn_placement'
p4502
g11
(tRp4503
S'network_cache'
p4504
F0.90000000000000002
sS'network_rsn'
p4505
F57.600000000000001
sg4484
S'CACHE_ALL_RSN_ALL_SIT'
p4506
sS'rsn_cache_ratio'
p4507
I64
ssS'warmup_strategy'
p4508
g11
(tRp4509
S'p'
F0.10000000000000001
sg4484
S'NDN'
p4510
ssS'topology'
p4511
g11
(tRp4512
S'ext_delay'
p4513
I2
sS'source_ratio'
p4514
F1
sg4484
S'ROCKET_FUEL'
p4515
sS'asn'
p4516
I3257
ssg11
(tRp4517
S'CACHE_HIT_RATIO'
p4518
g11
(tRp4519
S'MEAN_NETWORK_HITS'
p4520
F0.10333186791912527
sS'MEAN_USER_HITS'
p4521
F0.011430230822904021
sS'MEAN'
p4522
F0.11476209874202929
ssS'OVERHEAD'
p4523
g11
(tRp4524
g4522
F0.45268392628832094
ssS'ABS'
p4525
g11
(tRp4526
S'MEAN_ABS_TIME'
p4527
F5051.9612661823503
sS'NUM_ABS'
p4528
I8876
sstp4529
a(g11
(tRp4530
S'workload'
p4531
g11
(tRp4532
S'n_contents'
p4533
I10000
sS'disconnection_rate'
p4534
F0.0025000000000000001
sS'name'
p4535
S'STATIONARY_SIT'
p4536
sS'n_warmup'
p4537
I36000
sS'rate'
p4538
I10
sS'n_measured'
p4539
I108000
sS'alpha'
p4540
F0.69999999999999996
ssS'cache_policy'
p4541
g11
(tRp4542
g4535
S'LRU'
p4543
ssS'desc'
p4544
S'strategy: SCOPED_FLOODING caching probability: 0.9'
p4545
sS'strategy'
p4546
g11
(tRp4547
S'scope'
p4548
I2
sg4535
S'SCOPED_FLOODING'
p4549
sS'p'
F0.90000000000000002
ssS'content_placement'
p4550
g11
(tRp4551
g4535
S'UNIFORM'
p4552
ssS'joint_cache_rsn_placement'
p4553
g11
(tRp4554
S'network_cache'
p4555
F0.90000000000000002
sS'network_rsn'
p4556
F57.600000000000001
sg4535
S'CACHE_ALL_RSN_ALL_SIT'
p4557
sS'rsn_cache_ratio'
p4558
I64
ssS'warmup_strategy'
p4559
g11
(tRp4560
S'p'
F0.10000000000000001
sg4535
S'NDN'
p4561
ssS'topology'
p4562
g11
(tRp4563
S'ext_delay'
p4564
I2
sS'source_ratio'
p4565
F1
sg4535
S'ROCKET_FUEL'
p4566
sS'asn'
p4567
I3257
ssg11
(tRp4568
S'CACHE_HIT_RATIO'
p4569
g11
(tRp4570
S'MEAN_NETWORK_HITS'
p4571
F0.1026627314366815
sS'MEAN_USER_HITS'
p4572
F0.011962937874975809
sS'MEAN'
p4573
F0.11462566931165731
ssS'OVERHEAD'
p4574
g11
(tRp4575
g4573
F0.45408763950712855
ssS'ABS'
p4576
g11
(tRp4577
S'MEAN_ABS_TIME'
p4578
F5033.3212843043557
sS'NUM_ABS'
p4579
I8861
sstp4580
a(g11
(tRp4581
S'workload'
p4582
g11
(tRp4583
S'n_contents'
p4584
I10000
sS'disconnection_rate'
p4585
F0.0025000000000000001
sS'name'
p4586
S'STATIONARY_SIT'
p4587
sS'n_warmup'
p4588
I36000
sS'rate'
p4589
I10
sS'n_measured'
p4590
I108000
sS'alpha'
p4591
F0.69999999999999996
ssS'cache_policy'
p4592
g11
(tRp4593
g4586
S'LRU'
p4594
ssS'desc'
p4595
S'strategy: SCOPED_FLOODING caching probability: 1.0'
p4596
sS'strategy'
p4597
g11
(tRp4598
S'scope'
p4599
I2
sg4586
S'SCOPED_FLOODING'
p4600
sS'p'
F1
ssS'content_placement'
p4601
g11
(tRp4602
g4586
S'UNIFORM'
p4603
ssS'joint_cache_rsn_placement'
p4604
g11
(tRp4605
S'network_cache'
p4606
F0.90000000000000002
sS'network_rsn'
p4607
F57.600000000000001
sg4586
S'CACHE_ALL_RSN_ALL_SIT'
p4608
sS'rsn_cache_ratio'
p4609
I64
ssS'warmup_strategy'
p4610
g11
(tRp4611
S'p'
F0.10000000000000001
sg4586
S'NDN'
p4612
ssS'topology'
p4613
g11
(tRp4614
S'ext_delay'
p4615
I2
sS'source_ratio'
p4616
F1
sg4586
S'ROCKET_FUEL'
p4617
sS'asn'
p4618
I3257
ssg11
(tRp4619
S'CACHE_HIT_RATIO'
p4620
g11
(tRp4621
S'MEAN_NETWORK_HITS'
p4622
F0.10187757274233671
sS'MEAN_USER_HITS'
p4623
F0.01138558175726617
sS'MEAN'
p4624
F0.11326315449960288
ssS'OVERHEAD'
p4625
g11
(tRp4626
g4624
F0.4610354267375712
ssS'ABS'
p4627
g11
(tRp4628
S'MEAN_ABS_TIME'
p4629
F4959.9994121754817
sS'NUM_ABS'
p4630
I8882
sstp4631
a(g11
(tRp4632
S'workload'
p4633
g11
(tRp4634
S'n_contents'
p4635
I10000
sS'disconnection_rate'
p4636
F0.0025000000000000001
sS'name'
p4637
S'STATIONARY_SIT'
p4638
sS'n_warmup'
p4639
I36000
sS'rate'
p4640
I10
sS'n_measured'
p4641
I108000
sS'alpha'
p4642
F0.69999999999999996
ssS'cache_policy'
p4643
g11
(tRp4644
g4637
S'LRU'
p4645
ssS'desc'
p4646
S'strategy: SCOPED_FLOODING caching probability: 0.4'
p4647
sS'strategy'
p4648
g11
(tRp4649
S'scope'
p4650
I100
sg4637
S'SCOPED_FLOODING'
p4651
sS'p'
F0.40000000000000002
ssS'content_placement'
p4652
g11
(tRp4653
g4637
S'UNIFORM'
p4654
ssS'joint_cache_rsn_placement'
p4655
g11
(tRp4656
S'network_cache'
p4657
F0.90000000000000002
sS'network_rsn'
p4658
F57.600000000000001
sg4637
S'CACHE_ALL_RSN_ALL_SIT'
p4659
sS'rsn_cache_ratio'
p4660
I64
ssS'warmup_strategy'
p4661
g11
(tRp4662
S'p'
F0.10000000000000001
sg4637
S'NDN'
p4663
ssS'topology'
p4664
g11
(tRp4665
S'ext_delay'
p4666
I2
sS'source_ratio'
p4667
F1
sg4637
S'ROCKET_FUEL'
p4668
sS'asn'
p4669
I3257
ssg11
(tRp4670
S'CACHE_HIT_RATIO'
p4671
g11
(tRp4672
S'MEAN_NETWORK_HITS'
p4673
F0.13714214276784598
sS'MEAN_USER_HITS'
p4674
F0.033072682472405822
sS'MEAN'
p4675
F0.1702148252402518
ssS'OVERHEAD'
p4676
g11
(tRp4677
g4675
F3.6957442260927778
ssS'ABS'
p4678
g11
(tRp4679
S'MEAN_ABS_TIME'
p4680
F4427.1210080107903
sS'NUM_ABS'
p4681
I8021
sstp4682
a(g11
(tRp4683
S'workload'
p4684
g11
(tRp4685
S'n_contents'
p4686
I10000
sS'disconnection_rate'
p4687
F0.0025000000000000001
sS'name'
p4688
S'STATIONARY_SIT'
p4689
sS'n_warmup'
p4690
I36000
sS'rate'
p4691
I10
sS'n_measured'
p4692
I108000
sS'alpha'
p4693
F0.69999999999999996
ssS'cache_policy'
p4694
g11
(tRp4695
g4688
S'LRU'
p4696
ssS'desc'
p4697
S'strategy: SCOPED_FLOODING caching probability: 0.3'
p4698
sS'strategy'
p4699
g11
(tRp4700
S'scope'
p4701
I100
sg4688
S'SCOPED_FLOODING'
p4702
sS'p'
F0.29999999999999999
ssS'content_placement'
p4703
g11
(tRp4704
g4688
S'UNIFORM'
p4705
ssS'joint_cache_rsn_placement'
p4706
g11
(tRp4707
S'network_cache'
p4708
F0.90000000000000002
sS'network_rsn'
p4709
F57.600000000000001
sg4688
S'CACHE_ALL_RSN_ALL_SIT'
p4710
sS'rsn_cache_ratio'
p4711
I64
ssS'warmup_strategy'
p4712
g11
(tRp4713
S'p'
F0.10000000000000001
sg4688
S'NDN'
p4714
ssS'topology'
p4715
g11
(tRp4716
S'ext_delay'
p4717
I2
sS'source_ratio'
p4718
F1
sg4688
S'ROCKET_FUEL'
p4719
sS'asn'
p4720
I3257
ssg11
(tRp4721
S'CACHE_HIT_RATIO'
p4722
g11
(tRp4723
S'MEAN_NETWORK_HITS'
p4724
F0.14456791716396244
sS'MEAN_USER_HITS'
p4725
F0.033567465565626918
sS'MEAN'
p4726
F0.17813538272958937
ssS'OVERHEAD'
p4727
g11
(tRp4728
g4726
F3.8474525015322087
ssS'ABS'
p4729
g11
(tRp4730
S'MEAN_ABS_TIME'
p4731
F4449.1488669376158
sS'NUM_ABS'
p4732
I8121
sstp4733
a(g11
(tRp4734
S'workload'
p4735
g11
(tRp4736
S'n_contents'
p4737
I10000
sS'disconnection_rate'
p4738
F0.0025000000000000001
sS'name'
p4739
S'STATIONARY_SIT'
p4740
sS'n_warmup'
p4741
I36000
sS'rate'
p4742
I10
sS'n_measured'
p4743
I108000
sS'alpha'
p4744
F0.69999999999999996
ssS'cache_policy'
p4745
g11
(tRp4746
g4739
S'LRU'
p4747
ssS'desc'
p4748
S'strategy: SCOPED_FLOODING caching probability: 0.5'
p4749
sS'strategy'
p4750
g11
(tRp4751
S'scope'
p4752
I100
sg4739
S'SCOPED_FLOODING'
p4753
sS'p'
F0.5
ssS'content_placement'
p4754
g11
(tRp4755
g4739
S'UNIFORM'
p4756
ssS'joint_cache_rsn_placement'
p4757
g11
(tRp4758
S'network_cache'
p4759
F0.90000000000000002
sS'network_rsn'
p4760
F57.600000000000001
sg4739
S'CACHE_ALL_RSN_ALL_SIT'
p4761
sS'rsn_cache_ratio'
p4762
I64
ssS'warmup_strategy'
p4763
g11
(tRp4764
S'p'
F0.10000000000000001
sg4739
S'NDN'
p4765
ssS'topology'
p4766
g11
(tRp4767
S'ext_delay'
p4768
I2
sS'source_ratio'
p4769
F1
sg4739
S'ROCKET_FUEL'
p4770
sS'asn'
p4771
I3257
ssg11
(tRp4772
S'CACHE_HIT_RATIO'
p4773
g11
(tRp4774
S'MEAN_NETWORK_HITS'
p4775
F0.13238040308626789
sS'MEAN_USER_HITS'
p4776
F0.033403646894170698
sS'MEAN'
p4777
F0.16578404998043858
ssS'OVERHEAD'
p4778
g11
(tRp4779
g4777
F3.6100582002686168
ssS'ABS'
p4780
g11
(tRp4781
S'MEAN_ABS_TIME'
p4782
F4445.3509354928647
sS'NUM_ABS'
p4783
I8104
sstp4784
a(g11
(tRp4785
S'workload'
p4786
g11
(tRp4787
S'n_contents'
p4788
I10000
sS'disconnection_rate'
p4789
F0.0025000000000000001
sS'name'
p4790
S'STATIONARY_SIT'
p4791
sS'n_warmup'
p4792
I36000
sS'rate'
p4793
I10
sS'n_measured'
p4794
I108000
sS'alpha'
p4795
F0.69999999999999996
ssS'cache_policy'
p4796
g11
(tRp4797
g4790
S'LRU'
p4798
ssS'desc'
p4799
S'strategy: SCOPED_FLOODING caching probability: 0.2'
p4800
sS'strategy'
p4801
g11
(tRp4802
S'scope'
p4803
I100
sg4790
S'SCOPED_FLOODING'
p4804
sS'p'
F0.20000000000000001
ssS'content_placement'
p4805
g11
(tRp4806
g4790
S'UNIFORM'
p4807
ssS'joint_cache_rsn_placement'
p4808
g11
(tRp4809
S'network_cache'
p4810
F0.90000000000000002
sS'network_rsn'
p4811
F57.600000000000001
sg4790
S'CACHE_ALL_RSN_ALL_SIT'
p4812
sS'rsn_cache_ratio'
p4813
I64
ssS'warmup_strategy'
p4814
g11
(tRp4815
S'p'
F0.10000000000000001
sg4790
S'NDN'
p4816
ssS'topology'
p4817
g11
(tRp4818
S'ext_delay'
p4819
I2
sS'source_ratio'
p4820
F1
sg4790
S'ROCKET_FUEL'
p4821
sS'asn'
p4822
I3257
ssg11
(tRp4823
S'CACHE_HIT_RATIO'
p4824
g11
(tRp4825
S'MEAN_NETWORK_HITS'
p4826
F0.15667903525046381
sS'MEAN_USER_HITS'
p4827
F0.034992336855690892
sS'MEAN'
p4828
F0.1916713721061547
ssS'OVERHEAD'
p4829
g11
(tRp4830
g4828
F3.9435589255465033
ssS'ABS'
p4831
g11
(tRp4832
S'MEAN_ABS_TIME'
p4833
F4463.8592101916765
sS'NUM_ABS'
p4834
I8006
sstp4835
a(g11
(tRp4836
S'workload'
p4837
g11
(tRp4838
S'n_contents'
p4839
I10000
sS'disconnection_rate'
p4840
F0.0025000000000000001
sS'name'
p4841
S'STATIONARY_SIT'
p4842
sS'n_warmup'
p4843
I36000
sS'rate'
p4844
I10
sS'n_measured'
p4845
I108000
sS'alpha'
p4846
F0.69999999999999996
ssS'cache_policy'
p4847
g11
(tRp4848
g4841
S'LRU'
p4849
ssS'desc'
p4850
S'strategy: SCOPED_FLOODING caching probability: 0.1'
p4851
sS'strategy'
p4852
g11
(tRp4853
S'scope'
p4854
I100
sg4841
S'SCOPED_FLOODING'
p4855
sS'p'
F0.10000000000000001
ssS'content_placement'
p4856
g11
(tRp4857
g4841
S'UNIFORM'
p4858
ssS'joint_cache_rsn_placement'
p4859
g11
(tRp4860
S'network_cache'
p4861
F0.90000000000000002
sS'network_rsn'
p4862
F57.600000000000001
sg4841
S'CACHE_ALL_RSN_ALL_SIT'
p4863
sS'rsn_cache_ratio'
p4864
I64
ssS'warmup_strategy'
p4865
g11
(tRp4866
S'p'
F0.10000000000000001
sg4841
S'NDN'
p4867
ssS'topology'
p4868
g11
(tRp4869
S'ext_delay'
p4870
I2
sS'source_ratio'
p4871
F1
sg4841
S'ROCKET_FUEL'
p4872
sS'asn'
p4873
I3257
ssg11
(tRp4874
S'CACHE_HIT_RATIO'
p4875
g11
(tRp4876
S'MEAN_NETWORK_HITS'
p4877
F0.17616170741347184
sS'MEAN_USER_HITS'
p4878
F0.036038942707115031
sS'MEAN'
p4879
F0.21220065012058689
ssS'OVERHEAD'
p4880
g11
(tRp4881
g4879
F4.1480597207546559
ssS'ABS'
p4882
g11
(tRp4883
S'MEAN_ABS_TIME'
p4884
F4801.1557226550449
sS'NUM_ABS'
p4885
I7863
sstp4886
a(g11
(tRp4887
S'workload'
p4888
g11
(tRp4889
S'n_contents'
p4890
I10000
sS'disconnection_rate'
p4891
F0.0025000000000000001
sS'name'
p4892
S'STATIONARY_SIT'
p4893
sS'n_warmup'
p4894
I36000
sS'rate'
p4895
I10
sS'n_measured'
p4896
I108000
sS'alpha'
p4897
F0.69999999999999996
ssS'cache_policy'
p4898
g11
(tRp4899
g4892
S'LRU'
p4900
ssS'desc'
p4901
S'strategy: SCOPED_FLOODING caching probability: 0.8'
p4902
sS'strategy'
p4903
g11
(tRp4904
S'scope'
p4905
I100
sg4892
S'SCOPED_FLOODING'
p4906
sS'p'
F0.80000000000000004
ssS'content_placement'
p4907
g11
(tRp4908
g4892
S'UNIFORM'
p4909
ssS'joint_cache_rsn_placement'
p4910
g11
(tRp4911
S'network_cache'
p4912
F0.90000000000000002
sS'network_rsn'
p4913
F57.600000000000001
sg4892
S'CACHE_ALL_RSN_ALL_SIT'
p4914
sS'rsn_cache_ratio'
p4915
I64
ssS'warmup_strategy'
p4916
g11
(tRp4917
S'p'
F0.10000000000000001
sg4892
S'NDN'
p4918
ssS'topology'
p4919
g11
(tRp4920
S'ext_delay'
p4921
I2
sS'source_ratio'
p4922
F1
sg4892
S'ROCKET_FUEL'
p4923
sS'asn'
p4924
I3257
ssg11
(tRp4925
S'CACHE_HIT_RATIO'
p4926
g11
(tRp4927
S'MEAN_NETWORK_HITS'
p4928
F0.12474643803409324
sS'MEAN_USER_HITS'
p4929
F0.034137607020288993
sS'MEAN'
p4930
F0.15888404505438222
ssS'OVERHEAD'
p4931
g11
(tRp4932
g4930
F3.5111526937052107
ssS'ABS'
p4933
g11
(tRp4934
S'MEAN_ABS_TIME'
p4935
F4548.0050463331781
sS'NUM_ABS'
p4936
I7943
sstp4937
a(g11
(tRp4938
S'workload'
p4939
g11
(tRp4940
S'n_contents'
p4941
I10000
sS'disconnection_rate'
p4942
F0.0025000000000000001
sS'name'
p4943
S'STATIONARY_SIT'
p4944
sS'n_warmup'
p4945
I36000
sS'rate'
p4946
I10
sS'n_measured'
p4947
I108000
sS'alpha'
p4948
F0.69999999999999996
ssS'cache_policy'
p4949
g11
(tRp4950
g4943
S'LRU'
p4951
ssS'desc'
p4952
S'strategy: SCOPED_FLOODING caching probability: 1.0'
p4953
sS'strategy'
p4954
g11
(tRp4955
S'scope'
p4956
I100
sg4943
S'SCOPED_FLOODING'
p4957
sS'p'
F1
ssS'content_placement'
p4958
g11
(tRp4959
g4943
S'UNIFORM'
p4960
ssS'joint_cache_rsn_placement'
p4961
g11
(tRp4962
S'network_cache'
p4963
F0.90000000000000002
sS'network_rsn'
p4964
F57.600000000000001
sg4943
S'CACHE_ALL_RSN_ALL_SIT'
p4965
sS'rsn_cache_ratio'
p4966
I64
ssS'warmup_strategy'
p4967
g11
(tRp4968
S'p'
F0.10000000000000001
sg4943
S'NDN'
p4969
ssS'topology'
p4970
g11
(tRp4971
S'ext_delay'
p4972
I2
sS'source_ratio'
p4973
F1
sg4943
S'ROCKET_FUEL'
p4974
sS'asn'
p4975
I3257
ssg11
(tRp4976
S'CACHE_HIT_RATIO'
p4977
g11
(tRp4978
S'MEAN_NETWORK_HITS'
p4979
F0.122764562108269
sS'MEAN_USER_HITS'
p4980
F0.033786672474570255
sS'MEAN'
p4981
F0.15655123458283926
ssS'OVERHEAD'
p4982
g11
(tRp4983
g4981
F3.4661326621978077
ssS'ABS'
p4984
g11
(tRp4985
S'MEAN_ABS_TIME'
p4986
F4486.9196728184297
sS'NUM_ABS'
p4987
I7907
sstp4988
a(g11
(tRp4989
S'workload'
p4990
g11
(tRp4991
S'n_contents'
p4992
I10000
sS'disconnection_rate'
p4993
F0.0025000000000000001
sS'name'
p4994
S'STATIONARY_SIT'
p4995
sS'n_warmup'
p4996
I36000
sS'rate'
p4997
I10
sS'n_measured'
p4998
I108000
sS'alpha'
p4999
F0.69999999999999996
ssS'cache_policy'
p5000
g11
(tRp5001
g4994
S'LRU'
p5002
ssS'desc'
p5003
S'strategy: SCOPED_FLOODING caching probability: 0.9'
p5004
sS'strategy'
p5005
g11
(tRp5006
S'scope'
p5007
I100
sg4994
S'SCOPED_FLOODING'
p5008
sS'p'
F0.90000000000000002
ssS'content_placement'
p5009
g11
(tRp5010
g4994
S'UNIFORM'
p5011
ssS'joint_cache_rsn_placement'
p5012
g11
(tRp5013
S'network_cache'
p5014
F0.90000000000000002
sS'network_rsn'
p5015
F57.600000000000001
sg4994
S'CACHE_ALL_RSN_ALL_SIT'
p5016
sS'rsn_cache_ratio'
p5017
I64
ssS'warmup_strategy'
p5018
g11
(tRp5019
S'p'
F0.10000000000000001
sg4994
S'NDN'
p5020
ssS'topology'
p5021
g11
(tRp5022
S'ext_delay'
p5023
I2
sS'source_ratio'
p5024
F1
sg4994
S'ROCKET_FUEL'
p5025
sS'asn'
p5026
I3257
ssg11
(tRp5027
S'CACHE_HIT_RATIO'
p5028
g11
(tRp5029
S'MEAN_NETWORK_HITS'
p5030
F0.12388342470170913
sS'MEAN_USER_HITS'
p5031
F0.034190583682683004
sS'MEAN'
p5032
F0.15807400838439215
ssS'OVERHEAD'
p5033
g11
(tRp5034
g5032
F3.4563084488874556
ssS'ABS'
p5035
g11
(tRp5036
S'MEAN_ABS_TIME'
p5037
F4555.523453148463
sS'NUM_ABS'
p5038
I7962
sstp5039
a(g11
(tRp5040
S'workload'
p5041
g11
(tRp5042
S'n_contents'
p5043
I10000
sS'disconnection_rate'
p5044
F0.0025000000000000001
sS'name'
p5045
S'STATIONARY_SIT'
p5046
sS'n_warmup'
p5047
I36000
sS'rate'
p5048
I10
sS'n_measured'
p5049
I108000
sS'alpha'
p5050
F0.69999999999999996
ssS'cache_policy'
p5051
g11
(tRp5052
g5045
S'LRU'
p5053
ssS'desc'
p5054
S'strategy: SCOPED_FLOODING caching probability: 0.6'
p5055
sS'strategy'
p5056
g11
(tRp5057
S'scope'
p5058
I100
sg5045
S'SCOPED_FLOODING'
p5059
sS'p'
F0.59999999999999998
ssS'content_placement'
p5060
g11
(tRp5061
g5045
S'UNIFORM'
p5062
ssS'joint_cache_rsn_placement'
p5063
g11
(tRp5064
S'network_cache'
p5065
F0.90000000000000002
sS'network_rsn'
p5066
F57.600000000000001
sg5045
S'CACHE_ALL_RSN_ALL_SIT'
p5067
sS'rsn_cache_ratio'
p5068
I64
ssS'warmup_strategy'
p5069
g11
(tRp5070
S'p'
F0.10000000000000001
sg5045
S'NDN'
p5071
ssS'topology'
p5072
g11
(tRp5073
S'ext_delay'
p5074
I2
sS'source_ratio'
p5075
F1
sg5045
S'ROCKET_FUEL'
p5076
sS'asn'
p5077
I3257
ssg11
(tRp5078
S'CACHE_HIT_RATIO'
p5079
g11
(tRp5080
S'MEAN_NETWORK_HITS'
p5081
F0.12878952844112168
sS'MEAN_USER_HITS'
p5082
F0.034086601662997103
sS'MEAN'
p5083
F0.16287613010411878
ssS'OVERHEAD'
p5084
g11
(tRp5085
g5083
F3.5558821868976476
ssS'ABS'
p5086
g11
(tRp5087
S'MEAN_ABS_TIME'
p5088
F4494.8422211425386
sS'NUM_ABS'
p5089
I8028
sstp5090
a(g11
(tRp5091
S'workload'
p5092
g11
(tRp5093
S'n_contents'
p5094
I10000
sS'disconnection_rate'
p5095
F0.0025000000000000001
sS'name'
p5096
S'STATIONARY_SIT'
p5097
sS'n_warmup'
p5098
I36000
sS'rate'
p5099
I10
sS'n_measured'
p5100
I108000
sS'alpha'
p5101
F0.69999999999999996
ssS'cache_policy'
p5102
g11
(tRp5103
g5096
S'LRU'
p5104
ssS'desc'
p5105
S'strategy: SCOPED_FLOODING caching probability: 0.7'
p5106
sS'strategy'
p5107
g11
(tRp5108
S'scope'
p5109
I100
sg5096
S'SCOPED_FLOODING'
p5110
sS'p'
F0.69999999999999996
ssS'content_placement'
p5111
g11
(tRp5112
g5096
S'UNIFORM'
p5113
ssS'joint_cache_rsn_placement'
p5114
g11
(tRp5115
S'network_cache'
p5116
F0.90000000000000002
sS'network_rsn'
p5117
F57.600000000000001
sg5096
S'CACHE_ALL_RSN_ALL_SIT'
p5118
sS'rsn_cache_ratio'
p5119
I64
ssS'warmup_strategy'
p5120
g11
(tRp5121
S'p'
F0.10000000000000001
sg5096
S'NDN'
p5122
ssS'topology'
p5123
g11
(tRp5124
S'ext_delay'
p5125
I2
sS'source_ratio'
p5126
F1
sg5096
S'ROCKET_FUEL'
p5127
sS'asn'
p5128
I3257
ssg11
(tRp5129
S'CACHE_HIT_RATIO'
p5130
g11
(tRp5131
S'MEAN_NETWORK_HITS'
p5132
F0.12783367192286607
sS'MEAN_USER_HITS'
p5133
F0.032343362032827061
sS'MEAN'
p5134
F0.16017703395569313
ssS'OVERHEAD'
p5135
g11
(tRp5136
g5134
F3.5041477217761439
ssS'ABS'
p5137
g11
(tRp5138
S'MEAN_ABS_TIME'
p5139
F4508.0801111524606
sS'NUM_ABS'
p5140
I8018
sstp5141
atRp5142
sb.