ccopy_reg
_reconstructor
p1
(cicarus.results.readwrite
ResultSet
p2
c__builtin__
object
p3
NtRp4
(dp5
S'attr'
p6
(dp7
sS'_results'
p8
ccollections
deque
p9
((lp10
(cicarus.util
Tree
p11
(tRp12
S'workload'
p13
g11
(tRp14
S'n_contents'
p15
I10000
sS'disconnection_rate'
p16
F0.0025000000000000001
sS'name'
p17
S'STATIONARY_SIT'
p18
sS'n_warmup'
p19
I120000
sS'rate'
p20
I100
sS'n_measured'
p21
I360000
sS'alpha'
p22
F0.69999999999999996
ssS'cache_policy'
p23
g11
(tRp24
g17
S'LRU'
p25
ssS'desc'
p26
S'strategy: SCOPED_FLOODING scope: 0'
p27
sS'strategy'
p28
g11
(tRp29
S'p'
F1
sg17
S'SCOPED_FLOODING'
p30
sS'scope'
p31
I0
ssS'content_placement'
p32
g11
(tRp33
g17
S'UNIFORM'
p34
ssS'joint_cache_rsn_placement'
p35
g11
(tRp36
S'network_cache'
p37
F1
sS'network_rsn'
p38
F64
sS'rsn_cache_ratio'
p39
I64
sg17
S'CACHE_ALL_RSN_ALL_SIT'
p40
ssS'warmup_strategy'
p41
g11
(tRp42
S'p'
F0.5
sg17
S'NDN'
p43
ssS'topology'
p44
g11
(tRp45
S'ext_delay'
p46
I2
sS'source_ratio'
p47
F1
sg17
S'ROCKET_FUEL'
p48
sS'asn'
p49
I3257
ssg11
(tRp50
S'LATENCY'
p51
g11
(tRp52
S'MEAN'
p53
F1.5527661024650687
ssS'CACHE_HIT_RATIO'
p54
g11
(tRp55
S'MEAN_NETWORK_HITS'
p56
F0.019686107343538074
sS'MEAN_USER_HITS'
p57
F0.02433136863948597
sg53
F0.044017475983024044
ssS'OVERHEAD'
p58
g11
(tRp59
g53
F1.5527661024650687
ssS'ABS'
p60
g11
(tRp61
S'NUM_UNIQUE'
p62
I9943
sS'MEAN_ABS_TIME'
p63
F2058.086070162321
sS'NUM_ABS'
p64
I5772
sstp65
a(g11
(tRp66
S'workload'
p67
g11
(tRp68
S'n_contents'
p69
I10000
sS'disconnection_rate'
p70
F0.0025000000000000001
sS'name'
p71
S'STATIONARY_SIT'
p72
sS'n_warmup'
p73
I120000
sS'rate'
p74
I100
sS'n_measured'
p75
I360000
sS'alpha'
p76
F0.69999999999999996
ssS'cache_policy'
p77
g11
(tRp78
g71
S'LRU'
p79
ssS'desc'
p80
S'strategy: SIT_WITH_SCOPED_FLOODING fan_out 1 scope: 0'
p81
sS'strategy'
p82
g11
(tRp83
S'p'
F0.5
sS'fan_out'
p84
I1
sg71
S'SIT_WITH_SCOPED_FLOODING'
p85
sS'scope'
p86
I0
ssS'content_placement'
p87
g11
(tRp88
g71
S'UNIFORM'
p89
ssS'joint_cache_rsn_placement'
p90
g11
(tRp91
S'network_cache'
p92
F1
sS'network_rsn'
p93
F64
sS'rsn_cache_ratio'
p94
I64
sg71
S'CACHE_ALL_RSN_ALL_SIT'
p95
ssS'warmup_strategy'
p96
g11
(tRp97
S'p'
F0.5
sg71
S'NDN'
p98
ssS'topology'
p99
g11
(tRp100
S'ext_delay'
p101
I2
sS'source_ratio'
p102
F1
sg71
S'ROCKET_FUEL'
p103
sS'asn'
p104
I3257
ssg11
(tRp105
S'LATENCY'
p106
g11
(tRp107
S'MEAN'
p108
F1.7655953150400532
ssS'CACHE_HIT_RATIO'
p109
g11
(tRp110
S'MEAN_NETWORK_HITS'
p111
F0.032168884456225996
sS'MEAN_USER_HITS'
p112
F0.031642714039501522
sg108
F0.063811598495727526
ssS'OVERHEAD'
p113
g11
(tRp114
g108
F1.7655953150400532
ssS'ABS'
p115
g11
(tRp116
S'NUM_UNIQUE'
p117
I9945
sS'MEAN_ABS_TIME'
p118
F1922.9565971301429
sS'NUM_ABS'
p119
I6480
sstp120
a(g11
(tRp121
S'workload'
p122
g11
(tRp123
S'n_contents'
p124
I10000
sS'disconnection_rate'
p125
F0.0025000000000000001
sS'name'
p126
S'STATIONARY_SIT'
p127
sS'n_warmup'
p128
I120000
sS'rate'
p129
I100
sS'n_measured'
p130
I360000
sS'alpha'
p131
F0.69999999999999996
ssS'cache_policy'
p132
g11
(tRp133
g126
S'LRU'
p134
ssS'desc'
p135
S'strategy: SIT_WITH_SCOPED_FLOODING fan_out 100 scope: 0'
p136
sS'strategy'
p137
g11
(tRp138
S'p'
F0.5
sS'fan_out'
p139
I100
sg126
S'SIT_WITH_SCOPED_FLOODING'
p140
sS'scope'
p141
I0
ssS'content_placement'
p142
g11
(tRp143
g126
S'UNIFORM'
p144
ssS'joint_cache_rsn_placement'
p145
g11
(tRp146
S'network_cache'
p147
F1
sS'network_rsn'
p148
F64
sS'rsn_cache_ratio'
p149
I64
sg126
S'CACHE_ALL_RSN_ALL_SIT'
p150
ssS'warmup_strategy'
p151
g11
(tRp152
S'p'
F0.5
sg126
S'NDN'
p153
ssS'topology'
p154
g11
(tRp155
S'ext_delay'
p156
I2
sS'source_ratio'
p157
F1
sg126
S'ROCKET_FUEL'
p158
sS'asn'
p159
I3257
ssg11
(tRp160
S'LATENCY'
p161
g11
(tRp162
S'MEAN'
p163
F1.7187005893344833
ssS'CACHE_HIT_RATIO'
p164
g11
(tRp165
S'MEAN_NETWORK_HITS'
p166
F0.038799495750233948
sS'MEAN_USER_HITS'
p167
F0.03073599726135905
sg163
F0.069535493011592994
ssS'OVERHEAD'
p168
g11
(tRp169
g163
F2.0435891907431363
ssS'ABS'
p170
g11
(tRp171
S'NUM_UNIQUE'
p172
I9946
sS'MEAN_ABS_TIME'
p173
F1743.0647168379137
sS'NUM_ABS'
p174
I7262
sstp175
a(g11
(tRp176
S'workload'
p177
g11
(tRp178
S'n_contents'
p179
I10000
sS'disconnection_rate'
p180
F0.0025000000000000001
sS'name'
p181
S'STATIONARY_SIT'
p182
sS'n_warmup'
p183
I120000
sS'rate'
p184
I100
sS'n_measured'
p185
I360000
sS'alpha'
p186
F0.69999999999999996
ssS'cache_policy'
p187
g11
(tRp188
g181
S'LRU'
p189
ssS'desc'
p190
S'strategy: SCOPED_FLOODING scope: 1'
p191
sS'strategy'
p192
g11
(tRp193
S'p'
F1
sg181
S'SCOPED_FLOODING'
p194
sS'scope'
p195
I1
ssS'content_placement'
p196
g11
(tRp197
g181
S'UNIFORM'
p198
ssS'joint_cache_rsn_placement'
p199
g11
(tRp200
S'network_cache'
p201
F1
sS'network_rsn'
p202
F64
sS'rsn_cache_ratio'
p203
I64
sg181
S'CACHE_ALL_RSN_ALL_SIT'
p204
ssS'warmup_strategy'
p205
g11
(tRp206
S'p'
F0.5
sg181
S'NDN'
p207
ssS'topology'
p208
g11
(tRp209
S'ext_delay'
p210
I2
sS'source_ratio'
p211
F1
sg181
S'ROCKET_FUEL'
p212
sS'asn'
p213
I3257
ssg11
(tRp214
S'LATENCY'
p215
g11
(tRp216
S'MEAN'
p217
F1.5370868407605627
ssS'CACHE_HIT_RATIO'
p218
g11
(tRp219
S'MEAN_NETWORK_HITS'
p220
F0.067162500562311628
sS'MEAN_USER_HITS'
p221
F0.025763869103850211
sg217
F0.092926369666161843
ssS'OVERHEAD'
p222
g11
(tRp223
g217
F1.9870236398354086
ssS'ABS'
p224
g11
(tRp225
S'NUM_UNIQUE'
p226
I9948
sS'MEAN_ABS_TIME'
p227
F1365.1326076325768
sS'NUM_ABS'
p228
I9482
sstp229
a(g11
(tRp230
S'workload'
p231
g11
(tRp232
S'n_contents'
p233
I10000
sS'disconnection_rate'
p234
F0.0025000000000000001
sS'name'
p235
S'STATIONARY_SIT'
p236
sS'n_warmup'
p237
I120000
sS'rate'
p238
I100
sS'n_measured'
p239
I360000
sS'alpha'
p240
F0.69999999999999996
ssS'cache_policy'
p241
g11
(tRp242
g235
S'LRU'
p243
ssS'desc'
p244
S'strategy: SIT_WITH_SCOPED_FLOODING fan_out 1 scope: 1'
p245
sS'strategy'
p246
g11
(tRp247
S'p'
F0.5
sS'fan_out'
p248
I1
sg235
S'SIT_WITH_SCOPED_FLOODING'
p249
sS'scope'
p250
I1
ssS'content_placement'
p251
g11
(tRp252
g235
S'UNIFORM'
p253
ssS'joint_cache_rsn_placement'
p254
g11
(tRp255
S'network_cache'
p256
F1
sS'network_rsn'
p257
F64
sS'rsn_cache_ratio'
p258
I64
sg235
S'CACHE_ALL_RSN_ALL_SIT'
p259
ssS'warmup_strategy'
p260
g11
(tRp261
S'p'
F0.5
sg235
S'NDN'
p262
ssS'topology'
p263
g11
(tRp264
S'ext_delay'
p265
I2
sS'source_ratio'
p266
F1
sg235
S'ROCKET_FUEL'
p267
sS'asn'
p268
I3257
ssg11
(tRp269
S'LATENCY'
p270
g11
(tRp271
S'MEAN'
p272
F2.6413095776167497
ssS'CACHE_HIT_RATIO'
p273
g11
(tRp274
S'MEAN_NETWORK_HITS'
p275
F0.088702620262026202
sS'MEAN_USER_HITS'
p276
F0.082782028202820282
sg272
F0.17148464846484648
ssS'OVERHEAD'
p277
g11
(tRp278
g272
F3.764066076661758
ssS'ABS'
p279
g11
(tRp280
S'NUM_UNIQUE'
p281
I9938
sS'MEAN_ABS_TIME'
p282
F1380.0283091438523
sS'NUM_ABS'
p283
I9183
sstp284
a(g11
(tRp285
S'workload'
p286
g11
(tRp287
S'n_contents'
p288
I10000
sS'disconnection_rate'
p289
F0.0025000000000000001
sS'name'
p290
S'STATIONARY_SIT'
p291
sS'n_warmup'
p292
I120000
sS'rate'
p293
I100
sS'n_measured'
p294
I360000
sS'alpha'
p295
F0.69999999999999996
ssS'cache_policy'
p296
g11
(tRp297
g290
S'LRU'
p298
ssS'desc'
p299
S'strategy: SCOPED_FLOODING scope: 2'
p300
sS'strategy'
p301
g11
(tRp302
S'p'
F1
sg290
S'SCOPED_FLOODING'
p303
sS'scope'
p304
I2
ssS'content_placement'
p305
g11
(tRp306
g290
S'UNIFORM'
p307
ssS'joint_cache_rsn_placement'
p308
g11
(tRp309
S'network_cache'
p310
F1
sS'network_rsn'
p311
F64
sS'rsn_cache_ratio'
p312
I64
sg290
S'CACHE_ALL_RSN_ALL_SIT'
p313
ssS'warmup_strategy'
p314
g11
(tRp315
S'p'
F0.5
sg290
S'NDN'
p316
ssS'topology'
p317
g11
(tRp318
S'ext_delay'
p319
I2
sS'source_ratio'
p320
F1
sg290
S'ROCKET_FUEL'
p321
sS'asn'
p322
I3257
ssg11
(tRp323
S'LATENCY'
p324
g11
(tRp325
S'MEAN'
p326
F1.9730779857705325
ssS'CACHE_HIT_RATIO'
p327
g11
(tRp328
S'MEAN_NETWORK_HITS'
p329
F0.098502909793282786
sS'MEAN_USER_HITS'
p330
F0.046287903886183639
sg326
F0.14479081367946642
ssS'OVERHEAD'
p331
g11
(tRp332
g326
F6.2711628790495269
ssS'ABS'
p333
g11
(tRp334
S'NUM_UNIQUE'
p335
I9950
sS'MEAN_ABS_TIME'
p336
F1225.6665178530932
sS'NUM_ABS'
p337
I9536
sstp338
a(g11
(tRp339
S'workload'
p340
g11
(tRp341
S'n_contents'
p342
I10000
sS'disconnection_rate'
p343
F0.0025000000000000001
sS'name'
p344
S'STATIONARY_SIT'
p345
sS'n_warmup'
p346
I120000
sS'rate'
p347
I100
sS'n_measured'
p348
I360000
sS'alpha'
p349
F0.69999999999999996
ssS'cache_policy'
p350
g11
(tRp351
g344
S'LRU'
p352
ssS'desc'
p353
S'strategy: SIT_WITH_SCOPED_FLOODING fan_out 100 scope: 1'
p354
sS'strategy'
p355
g11
(tRp356
S'p'
F0.5
sS'fan_out'
p357
I100
sg344
S'SIT_WITH_SCOPED_FLOODING'
p358
sS'scope'
p359
I1
ssS'content_placement'
p360
g11
(tRp361
g344
S'UNIFORM'
p362
ssS'joint_cache_rsn_placement'
p363
g11
(tRp364
S'network_cache'
p365
F1
sS'network_rsn'
p366
F64
sS'rsn_cache_ratio'
p367
I64
sg344
S'CACHE_ALL_RSN_ALL_SIT'
p368
ssS'warmup_strategy'
p369
g11
(tRp370
S'p'
F0.5
sg344
S'NDN'
p371
ssS'topology'
p372
g11
(tRp373
S'ext_delay'
p374
I2
sS'source_ratio'
p375
F1
sg344
S'ROCKET_FUEL'
p376
sS'asn'
p377
I3257
ssg11
(tRp378
S'LATENCY'
p379
g11
(tRp380
S'MEAN'
p381
F2.7192536502592239
ssS'CACHE_HIT_RATIO'
p382
g11
(tRp383
S'MEAN_NETWORK_HITS'
p384
F0.095346965102238265
sS'MEAN_USER_HITS'
p385
F0.091028182711370337
sg381
F0.18637514781360862
ssS'OVERHEAD'
p386
g11
(tRp387
g381
F8.1687335260464522
ssS'ABS'
p388
g11
(tRp389
S'NUM_UNIQUE'
p390
I9944
sS'MEAN_ABS_TIME'
p391
F1387.7404031774765
sS'NUM_ABS'
p392
I9191
sstp393
a(g11
(tRp394
S'workload'
p395
g11
(tRp396
S'n_contents'
p397
I10000
sS'disconnection_rate'
p398
F0.0025000000000000001
sS'name'
p399
S'STATIONARY_SIT'
p400
sS'n_warmup'
p401
I120000
sS'rate'
p402
I100
sS'n_measured'
p403
I360000
sS'alpha'
p404
F0.69999999999999996
ssS'cache_policy'
p405
g11
(tRp406
g399
S'LRU'
p407
ssS'desc'
p408
S'strategy: SIT_WITH_SCOPED_FLOODING fan_out 1 scope: 2'
p409
sS'strategy'
p410
g11
(tRp411
S'p'
F0.5
sS'fan_out'
p412
I1
sg399
S'SIT_WITH_SCOPED_FLOODING'
p413
sS'scope'
p414
I2
ssS'content_placement'
p415
g11
(tRp416
g399
S'UNIFORM'
p417
ssS'joint_cache_rsn_placement'
p418
g11
(tRp419
S'network_cache'
p420
F1
sS'network_rsn'
p421
F64
sS'rsn_cache_ratio'
p422
I64
sg399
S'CACHE_ALL_RSN_ALL_SIT'
p423
ssS'warmup_strategy'
p424
g11
(tRp425
S'p'
F0.5
sg399
S'NDN'
p426
ssS'topology'
p427
g11
(tRp428
S'ext_delay'
p429
I2
sS'source_ratio'
p430
F1
sg399
S'ROCKET_FUEL'
p431
sS'asn'
p432
I3257
ssg11
(tRp433
S'LATENCY'
p434
g11
(tRp435
S'MEAN'
p436
F3.9498099689040025
ssS'CACHE_HIT_RATIO'
p437
g11
(tRp438
S'MEAN_NETWORK_HITS'
p439
F0.11329340838123869
sS'MEAN_USER_HITS'
p440
F0.16177608929716994
sg436
F0.27506949767840866
ssS'OVERHEAD'
p441
g11
(tRp442
g436
F10.002986852394027
ssS'ABS'
p443
g11
(tRp444
S'NUM_UNIQUE'
p445
I9943
sS'MEAN_ABS_TIME'
p446
F1719.9886913366167
sS'NUM_ABS'
p447
I8188
sstp448
a(g11
(tRp449
S'workload'
p450
g11
(tRp451
S'n_contents'
p452
I10000
sS'disconnection_rate'
p453
F0.0025000000000000001
sS'name'
p454
S'STATIONARY_SIT'
p455
sS'n_warmup'
p456
I120000
sS'rate'
p457
I100
sS'n_measured'
p458
I360000
sS'alpha'
p459
F0.69999999999999996
ssS'cache_policy'
p460
g11
(tRp461
g454
S'LRU'
p462
ssS'desc'
p463
S'strategy: SCOPED_FLOODING scope: 3'
p464
sS'strategy'
p465
g11
(tRp466
S'p'
F1
sg454
S'SCOPED_FLOODING'
p467
sS'scope'
p468
I3
ssS'content_placement'
p469
g11
(tRp470
g454
S'UNIFORM'
p471
ssS'joint_cache_rsn_placement'
p472
g11
(tRp473
S'network_cache'
p474
F1
sS'network_rsn'
p475
F64
sS'rsn_cache_ratio'
p476
I64
sg454
S'CACHE_ALL_RSN_ALL_SIT'
p477
ssS'warmup_strategy'
p478
g11
(tRp479
S'p'
F0.5
sg454
S'NDN'
p480
ssS'topology'
p481
g11
(tRp482
S'ext_delay'
p483
I2
sS'source_ratio'
p484
F1
sg454
S'ROCKET_FUEL'
p485
sS'asn'
p486
I3257
ssg11
(tRp487
S'LATENCY'
p488
g11
(tRp489
S'MEAN'
p490
F2.6229662186452667
ssS'CACHE_HIT_RATIO'
p491
g11
(tRp492
S'MEAN_NETWORK_HITS'
p493
F0.10704740628010451
sS'MEAN_USER_HITS'
p494
F0.10843931993647676
sg490
F0.21548672621658127
ssS'OVERHEAD'
p495
g11
(tRp496
g490
F15.266273150027253
ssS'ABS'
p497
g11
(tRp498
S'NUM_UNIQUE'
p499
I9950
sS'MEAN_ABS_TIME'
p500
F1476.3672452113005
sS'NUM_ABS'
p501
I8925
sstp502
a(g11
(tRp503
S'workload'
p504
g11
(tRp505
S'n_contents'
p506
I10000
sS'disconnection_rate'
p507
F0.0025000000000000001
sS'name'
p508
S'STATIONARY_SIT'
p509
sS'n_warmup'
p510
I120000
sS'rate'
p511
I100
sS'n_measured'
p512
I360000
sS'alpha'
p513
F0.69999999999999996
ssS'cache_policy'
p514
g11
(tRp515
g508
S'LRU'
p516
ssS'desc'
p517
S'strategy: SIT_WITH_SCOPED_FLOODING fan_out 100 scope: 2'
p518
sS'strategy'
p519
g11
(tRp520
S'p'
F0.5
sS'fan_out'
p521
I100
sg508
S'SIT_WITH_SCOPED_FLOODING'
p522
sS'scope'
p523
I2
ssS'content_placement'
p524
g11
(tRp525
g508
S'UNIFORM'
p526
ssS'joint_cache_rsn_placement'
p527
g11
(tRp528
S'network_cache'
p529
F1
sS'network_rsn'
p530
F64
sS'rsn_cache_ratio'
p531
I64
sg508
S'CACHE_ALL_RSN_ALL_SIT'
p532
ssS'warmup_strategy'
p533
g11
(tRp534
S'p'
F0.5
sg508
S'NDN'
p535
ssS'topology'
p536
g11
(tRp537
S'ext_delay'
p538
I2
sS'source_ratio'
p539
F1
sg508
S'ROCKET_FUEL'
p540
sS'asn'
p541
I3257
ssg11
(tRp542
S'LATENCY'
p543
g11
(tRp544
S'MEAN'
p545
F3.7064525000887185
ssS'CACHE_HIT_RATIO'
p546
g11
(tRp547
S'MEAN_NETWORK_HITS'
p548
F0.11362264127357163
sS'MEAN_USER_HITS'
p549
F0.1681832103055797
sg545
F0.28180585157915133
ssS'OVERHEAD'
p550
g11
(tRp551
g545
F18.427131019553567
ssS'ABS'
p552
g11
(tRp553
S'NUM_UNIQUE'
p554
I9956
sS'MEAN_ABS_TIME'
p555
F1754.0777812846186
sS'NUM_ABS'
p556
I8146
sstp557
a(g11
(tRp558
S'workload'
p559
g11
(tRp560
S'n_contents'
p561
I10000
sS'disconnection_rate'
p562
F0.0025000000000000001
sS'name'
p563
S'STATIONARY_SIT'
p564
sS'n_warmup'
p565
I120000
sS'rate'
p566
I100
sS'n_measured'
p567
I360000
sS'alpha'
p568
F0.69999999999999996
ssS'cache_policy'
p569
g11
(tRp570
g563
S'LRU'
p571
ssS'desc'
p572
S'strategy: SIT_WITH_SCOPED_FLOODING fan_out 1 scope: 3'
p573
sS'strategy'
p574
g11
(tRp575
S'p'
F0.5
sS'fan_out'
p576
I1
sg563
S'SIT_WITH_SCOPED_FLOODING'
p577
sS'scope'
p578
I3
ssS'content_placement'
p579
g11
(tRp580
g563
S'UNIFORM'
p581
ssS'joint_cache_rsn_placement'
p582
g11
(tRp583
S'network_cache'
p584
F1
sS'network_rsn'
p585
F64
sS'rsn_cache_ratio'
p586
I64
sg563
S'CACHE_ALL_RSN_ALL_SIT'
p587
ssS'warmup_strategy'
p588
g11
(tRp589
S'p'
F0.5
sg563
S'NDN'
p590
ssS'topology'
p591
g11
(tRp592
S'ext_delay'
p593
I2
sS'source_ratio'
p594
F1
sg563
S'ROCKET_FUEL'
p595
sS'asn'
p596
I3257
ssg11
(tRp597
S'LATENCY'
p598
g11
(tRp599
S'MEAN'
p600
F4.64704871847729
ssS'CACHE_HIT_RATIO'
p601
g11
(tRp602
S'MEAN_NETWORK_HITS'
p603
F0.11616525892489947
sS'MEAN_USER_HITS'
p604
F0.21128501801917796
sg600
F0.32745027694407741
ssS'OVERHEAD'
p605
g11
(tRp606
g600
F16.872057689518005
ssS'ABS'
p607
g11
(tRp608
S'NUM_UNIQUE'
p609
I9935
sS'MEAN_ABS_TIME'
p610
F1973.0954907964397
sS'NUM_ABS'
p611
I7355
sstp612
a(g11
(tRp613
S'workload'
p614
g11
(tRp615
S'n_contents'
p616
I10000
sS'disconnection_rate'
p617
F0.0025000000000000001
sS'name'
p618
S'STATIONARY_SIT'
p619
sS'n_warmup'
p620
I120000
sS'rate'
p621
I100
sS'n_measured'
p622
I360000
sS'alpha'
p623
F0.69999999999999996
ssS'cache_policy'
p624
g11
(tRp625
g618
S'LRU'
p626
ssS'desc'
p627
S'strategy: SIT_WITH_SCOPED_FLOODING fan_out 100 scope: 4'
p628
sS'strategy'
p629
g11
(tRp630
S'p'
F0.5
sS'fan_out'
p631
I100
sg618
S'SIT_WITH_SCOPED_FLOODING'
p632
sS'scope'
p633
I4
ssS'content_placement'
p634
g11
(tRp635
g618
S'UNIFORM'
p636
ssS'joint_cache_rsn_placement'
p637
g11
(tRp638
S'network_cache'
p639
F1
sS'network_rsn'
p640
F64
sS'rsn_cache_ratio'
p641
I64
sg618
S'CACHE_ALL_RSN_ALL_SIT'
p642
ssS'warmup_strategy'
p643
g11
(tRp644
S'p'
F0.5
sg618
S'NDN'
p645
ssS'topology'
p646
g11
(tRp647
S'ext_delay'
p648
I2
sS'source_ratio'
p649
F1
sg618
S'ROCKET_FUEL'
p650
sS'asn'
p651
I3257
ssg11
(tRp652
S'LATENCY'
p653
g11
(tRp654
S'MEAN'
p655
F4.5000615657398972
ssS'CACHE_HIT_RATIO'
p656
g11
(tRp657
S'MEAN_NETWORK_HITS'
p658
F0.11518745715729589
sS'MEAN_USER_HITS'
p659
F0.24037446399711798
sg655
F0.35556192115441387
ssS'OVERHEAD'
p660
g11
(tRp661
g655
F34.443333133977603
ssS'ABS'
p662
g11
(tRp663
S'NUM_UNIQUE'
p664
I9947
sS'MEAN_ABS_TIME'
p665
F2143.055273835696
sS'NUM_ABS'
p666
I6830
sstp667
a(g11
(tRp668
S'workload'
p669
g11
(tRp670
S'n_contents'
p671
I10000
sS'disconnection_rate'
p672
F0.0025000000000000001
sS'name'
p673
S'STATIONARY_SIT'
p674
sS'n_warmup'
p675
I120000
sS'rate'
p676
I100
sS'n_measured'
p677
I360000
sS'alpha'
p678
F0.69999999999999996
ssS'cache_policy'
p679
g11
(tRp680
g673
S'LRU'
p681
ssS'desc'
p682
S'strategy: SIT_WITH_SCOPED_FLOODING fan_out 100 scope: 3'
p683
sS'strategy'
p684
g11
(tRp685
S'p'
F0.5
sS'fan_out'
p686
I100
sg673
S'SIT_WITH_SCOPED_FLOODING'
p687
sS'scope'
p688
I3
ssS'content_placement'
p689
g11
(tRp690
g673
S'UNIFORM'
p691
ssS'joint_cache_rsn_placement'
p692
g11
(tRp693
S'network_cache'
p694
F1
sS'network_rsn'
p695
F64
sS'rsn_cache_ratio'
p696
I64
sg673
S'CACHE_ALL_RSN_ALL_SIT'
p697
ssS'warmup_strategy'
p698
g11
(tRp699
S'p'
F0.5
sg673
S'NDN'
p700
ssS'topology'
p701
g11
(tRp702
S'ext_delay'
p703
I2
sS'source_ratio'
p704
F1
sg673
S'ROCKET_FUEL'
p705
sS'asn'
p706
I3257
ssg11
(tRp707
S'LATENCY'
p708
g11
(tRp709
S'MEAN'
p710
F4.2065707888063928
ssS'CACHE_HIT_RATIO'
p711
g11
(tRp712
S'MEAN_NETWORK_HITS'
p713
F0.11611692578498098
sS'MEAN_USER_HITS'
p714
F0.21273121871452647
sg710
F0.32884814449950744
ssS'OVERHEAD'
p715
g11
(tRp716
g710
F27.11145326049353
ssS'ABS'
p717
g11
(tRp718
S'NUM_UNIQUE'
p719
I9941
sS'MEAN_ABS_TIME'
p720
F1984.4016621073447
sS'NUM_ABS'
p721
I7359
sstp722
a(g11
(tRp723
S'workload'
p724
g11
(tRp725
S'n_contents'
p726
I10000
sS'disconnection_rate'
p727
F0.0025000000000000001
sS'name'
p728
S'STATIONARY_SIT'
p729
sS'n_warmup'
p730
I120000
sS'rate'
p731
I100
sS'n_measured'
p732
I360000
sS'alpha'
p733
F0.69999999999999996
ssS'cache_policy'
p734
g11
(tRp735
g728
S'LRU'
p736
ssS'desc'
p737
S'strategy: SIT_WITH_SCOPED_FLOODING fan_out 1 scope: 4'
p738
sS'strategy'
p739
g11
(tRp740
S'p'
F0.5
sS'fan_out'
p741
I1
sg728
S'SIT_WITH_SCOPED_FLOODING'
p742
sS'scope'
p743
I4
ssS'content_placement'
p744
g11
(tRp745
g728
S'UNIFORM'
p746
ssS'joint_cache_rsn_placement'
p747
g11
(tRp748
S'network_cache'
p749
F1
sS'network_rsn'
p750
F64
sS'rsn_cache_ratio'
p751
I64
sg728
S'CACHE_ALL_RSN_ALL_SIT'
p752
ssS'warmup_strategy'
p753
g11
(tRp754
S'p'
F0.5
sg728
S'NDN'
p755
ssS'topology'
p756
g11
(tRp757
S'ext_delay'
p758
I2
sS'source_ratio'
p759
F1
sg728
S'ROCKET_FUEL'
p760
sS'asn'
p761
I3257
ssg11
(tRp762
S'LATENCY'
p763
g11
(tRp764
S'MEAN'
p765
F4.9418039945187191
ssS'CACHE_HIT_RATIO'
p766
g11
(tRp767
S'MEAN_NETWORK_HITS'
p768
F0.1138904749351248
sS'MEAN_USER_HITS'
p769
F0.23804853426422101
sg765
F0.35193900919934579
ssS'OVERHEAD'
p770
g11
(tRp771
g765
F23.129967410520933
ssS'ABS'
p772
g11
(tRp773
S'NUM_UNIQUE'
p774
I9943
sS'MEAN_ABS_TIME'
p775
F2125.2318756316408
sS'NUM_ABS'
p776
I6826
sstp777
a(g11
(tRp778
S'workload'
p779
g11
(tRp780
S'n_contents'
p781
I10000
sS'disconnection_rate'
p782
F0.0025000000000000001
sS'name'
p783
S'STATIONARY_SIT'
p784
sS'n_warmup'
p785
I120000
sS'rate'
p786
I100
sS'n_measured'
p787
I360000
sS'alpha'
p788
F0.69999999999999996
ssS'cache_policy'
p789
g11
(tRp790
g783
S'LRU'
p791
ssS'desc'
p792
S'strategy: SCOPED_FLOODING scope: 4'
p793
sS'strategy'
p794
g11
(tRp795
S'p'
F1
sg783
S'SCOPED_FLOODING'
p796
sS'scope'
p797
I4
ssS'content_placement'
p798
g11
(tRp799
g783
S'UNIFORM'
p800
ssS'joint_cache_rsn_placement'
p801
g11
(tRp802
S'network_cache'
p803
F1
sS'network_rsn'
p804
F64
sS'rsn_cache_ratio'
p805
I64
sg783
S'CACHE_ALL_RSN_ALL_SIT'
p806
ssS'warmup_strategy'
p807
g11
(tRp808
S'p'
F0.5
sg783
S'NDN'
p809
ssS'topology'
p810
g11
(tRp811
S'ext_delay'
p812
I2
sS'source_ratio'
p813
F1
sg783
S'ROCKET_FUEL'
p814
sS'asn'
p815
I3257
ssg11
(tRp816
S'LATENCY'
p817
g11
(tRp818
S'MEAN'
p819
F3.1166285941410532
ssS'CACHE_HIT_RATIO'
p820
g11
(tRp821
S'MEAN_NETWORK_HITS'
p822
F0.1040770131650816
sS'MEAN_USER_HITS'
p823
F0.18208384005919476
sg819
F0.28616085322427637
ssS'OVERHEAD'
p824
g11
(tRp825
g819
F27.982834605086722
ssS'ABS'
p826
g11
(tRp827
S'NUM_UNIQUE'
p828
I9930
sS'MEAN_ABS_TIME'
p829
F1779.5168379494303
sS'NUM_ABS'
p830
I8034
sstp831
a(g11
(tRp832
S'workload'
p833
g11
(tRp834
S'n_contents'
p835
I10000
sS'disconnection_rate'
p836
F0.0025000000000000001
sS'name'
p837
S'STATIONARY_SIT'
p838
sS'n_warmup'
p839
I120000
sS'rate'
p840
I100
sS'n_measured'
p841
I360000
sS'alpha'
p842
F0.69999999999999996
ssS'cache_policy'
p843
g11
(tRp844
g837
S'LRU'
p845
ssS'desc'
p846
S'strategy: SIT_WITH_SCOPED_FLOODING fan_out 1 scope: 5'
p847
sS'strategy'
p848
g11
(tRp849
S'p'
F0.5
sS'fan_out'
p850
I1
sg837
S'SIT_WITH_SCOPED_FLOODING'
p851
sS'scope'
p852
I5
ssS'content_placement'
p853
g11
(tRp854
g837
S'UNIFORM'
p855
ssS'joint_cache_rsn_placement'
p856
g11
(tRp857
S'network_cache'
p858
F1
sS'network_rsn'
p859
F64
sS'rsn_cache_ratio'
p860
I64
sg837
S'CACHE_ALL_RSN_ALL_SIT'
p861
ssS'warmup_strategy'
p862
g11
(tRp863
S'p'
F0.5
sg837
S'NDN'
p864
ssS'topology'
p865
g11
(tRp866
S'ext_delay'
p867
I2
sS'source_ratio'
p868
F1
sg837
S'ROCKET_FUEL'
p869
sS'asn'
p870
I3257
ssg11
(tRp871
S'LATENCY'
p872
g11
(tRp873
S'MEAN'
p874
F5.1015322912381738
ssS'CACHE_HIT_RATIO'
p875
g11
(tRp876
S'MEAN_NETWORK_HITS'
p877
F0.11143798040617921
sS'MEAN_USER_HITS'
p878
F0.25328314021234138
sg874
F0.36472112061852063
ssS'OVERHEAD'
p879
g11
(tRp880
g874
F27.824074454956808
ssS'ABS'
p881
g11
(tRp882
S'NUM_UNIQUE'
p883
I9948
sS'MEAN_ABS_TIME'
p884
F2214.5046000968455
sS'NUM_ABS'
p885
I6585
sstp886
a(g11
(tRp887
S'workload'
p888
g11
(tRp889
S'n_contents'
p890
I10000
sS'disconnection_rate'
p891
F0.0025000000000000001
sS'name'
p892
S'STATIONARY_SIT'
p893
sS'n_warmup'
p894
I120000
sS'rate'
p895
I100
sS'n_measured'
p896
I360000
sS'alpha'
p897
F0.69999999999999996
ssS'cache_policy'
p898
g11
(tRp899
g892
S'LRU'
p900
ssS'desc'
p901
S'strategy: SIT_WITH_SCOPED_FLOODING fan_out 100 scope: 5'
p902
sS'strategy'
p903
g11
(tRp904
S'p'
F0.5
sS'fan_out'
p905
I100
sg892
S'SIT_WITH_SCOPED_FLOODING'
p906
sS'scope'
p907
I5
ssS'content_placement'
p908
g11
(tRp909
g892
S'UNIFORM'
p910
ssS'joint_cache_rsn_placement'
p911
g11
(tRp912
S'network_cache'
p913
F1
sS'network_rsn'
p914
F64
sS'rsn_cache_ratio'
p915
I64
sg892
S'CACHE_ALL_RSN_ALL_SIT'
p916
ssS'warmup_strategy'
p917
g11
(tRp918
S'p'
F0.5
sg892
S'NDN'
p919
ssS'topology'
p920
g11
(tRp921
S'ext_delay'
p922
I2
sS'source_ratio'
p923
F1
sg892
S'ROCKET_FUEL'
p924
sS'asn'
p925
I3257
ssg11
(tRp926
S'LATENCY'
p927
g11
(tRp928
S'MEAN'
p929
F4.608260587482107
ssS'CACHE_HIT_RATIO'
p930
g11
(tRp931
S'MEAN_NETWORK_HITS'
p932
F0.11297673302950348
sS'MEAN_USER_HITS'
p933
F0.25095821340049573
sg929
F0.36393494642999918
ssS'OVERHEAD'
p934
g11
(tRp935
g929
F39.406098636852022
ssS'ABS'
p936
g11
(tRp937
S'NUM_UNIQUE'
p938
I9956
sS'MEAN_ABS_TIME'
p939
F2205.0740710110235
sS'NUM_ABS'
p940
I6590
sstp941
a(g11
(tRp942
S'workload'
p943
g11
(tRp944
S'n_contents'
p945
I10000
sS'disconnection_rate'
p946
F0.0025000000000000001
sS'name'
p947
S'STATIONARY_SIT'
p948
sS'n_warmup'
p949
I120000
sS'rate'
p950
I100
sS'n_measured'
p951
I360000
sS'alpha'
p952
F0.69999999999999996
ssS'cache_policy'
p953
g11
(tRp954
g947
S'LRU'
p955
ssS'desc'
p956
S'strategy: SIT_WITH_SCOPED_FLOODING fan_out 1 scope: 6'
p957
sS'strategy'
p958
g11
(tRp959
S'p'
F0.5
sS'fan_out'
p960
I1
sg947
S'SIT_WITH_SCOPED_FLOODING'
p961
sS'scope'
p962
I6
ssS'content_placement'
p963
g11
(tRp964
g947
S'UNIFORM'
p965
ssS'joint_cache_rsn_placement'
p966
g11
(tRp967
S'network_cache'
p968
F1
sS'network_rsn'
p969
F64
sS'rsn_cache_ratio'
p970
I64
sg947
S'CACHE_ALL_RSN_ALL_SIT'
p971
ssS'warmup_strategy'
p972
g11
(tRp973
S'p'
F0.5
sg947
S'NDN'
p974
ssS'topology'
p975
g11
(tRp976
S'ext_delay'
p977
I2
sS'source_ratio'
p978
F1
sg947
S'ROCKET_FUEL'
p979
sS'asn'
p980
I3257
ssg11
(tRp981
S'LATENCY'
p982
g11
(tRp983
S'MEAN'
p984
F5.1751180205111513
ssS'CACHE_HIT_RATIO'
p985
g11
(tRp986
S'MEAN_NETWORK_HITS'
p987
F0.10823298568366588
sS'MEAN_USER_HITS'
p988
F0.26028482693545463
sg984
F0.36851781261912053
ssS'OVERHEAD'
p989
g11
(tRp990
g984
F31.385299663573715
ssS'ABS'
p991
g11
(tRp992
S'NUM_UNIQUE'
p993
I9948
sS'MEAN_ABS_TIME'
p994
F2234.4472930117277
sS'NUM_ABS'
p995
I6489
sstp996
a(g11
(tRp997
S'workload'
p998
g11
(tRp999
S'n_contents'
p1000
I10000
sS'disconnection_rate'
p1001
F0.0025000000000000001
sS'name'
p1002
S'STATIONARY_SIT'
p1003
sS'n_warmup'
p1004
I120000
sS'rate'
p1005
I100
sS'n_measured'
p1006
I360000
sS'alpha'
p1007
F0.69999999999999996
ssS'cache_policy'
p1008
g11
(tRp1009
g1002
S'LRU'
p1010
ssS'desc'
p1011
S'strategy: SIT_WITH_SCOPED_FLOODING fan_out 1 scope: 7'
p1012
sS'strategy'
p1013
g11
(tRp1014
S'p'
F0.5
sS'fan_out'
p1015
I1
sg1002
S'SIT_WITH_SCOPED_FLOODING'
p1016
sS'scope'
p1017
I7
ssS'content_placement'
p1018
g11
(tRp1019
g1002
S'UNIFORM'
p1020
ssS'joint_cache_rsn_placement'
p1021
g11
(tRp1022
S'network_cache'
p1023
F1
sS'network_rsn'
p1024
F64
sS'rsn_cache_ratio'
p1025
I64
sg1002
S'CACHE_ALL_RSN_ALL_SIT'
p1026
ssS'warmup_strategy'
p1027
g11
(tRp1028
S'p'
F0.5
sg1002
S'NDN'
p1029
ssS'topology'
p1030
g11
(tRp1031
S'ext_delay'
p1032
I2
sS'source_ratio'
p1033
F1
sg1002
S'ROCKET_FUEL'
p1034
sS'asn'
p1035
I3257
ssg11
(tRp1036
S'LATENCY'
p1037
g11
(tRp1038
S'MEAN'
p1039
F5.2151837540525285
ssS'CACHE_HIT_RATIO'
p1040
g11
(tRp1041
S'MEAN_NETWORK_HITS'
p1042
F0.10663525775438781
sS'MEAN_USER_HITS'
p1043
F0.26322343965100098
sg1039
F0.36985869740538879
ssS'OVERHEAD'
p1044
g11
(tRp1045
g1039
F33.350229713694588
ssS'ABS'
p1046
g11
(tRp1047
S'NUM_UNIQUE'
p1048
I9954
sS'MEAN_ABS_TIME'
p1049
F2248.6390064394914
sS'NUM_ABS'
p1050
I6493
sstp1051
a(g11
(tRp1052
S'workload'
p1053
g11
(tRp1054
S'n_contents'
p1055
I10000
sS'disconnection_rate'
p1056
F0.0025000000000000001
sS'name'
p1057
S'STATIONARY_SIT'
p1058
sS'n_warmup'
p1059
I120000
sS'rate'
p1060
I100
sS'n_measured'
p1061
I360000
sS'alpha'
p1062
F0.69999999999999996
ssS'cache_policy'
p1063
g11
(tRp1064
g1057
S'LRU'
p1065
ssS'desc'
p1066
S'strategy: SIT_WITH_SCOPED_FLOODING fan_out 100 scope: 6'
p1067
sS'strategy'
p1068
g11
(tRp1069
S'p'
F0.5
sS'fan_out'
p1070
I100
sg1057
S'SIT_WITH_SCOPED_FLOODING'
p1071
sS'scope'
p1072
I6
ssS'content_placement'
p1073
g11
(tRp1074
g1057
S'UNIFORM'
p1075
ssS'joint_cache_rsn_placement'
p1076
g11
(tRp1077
S'network_cache'
p1078
F1
sS'network_rsn'
p1079
F64
sS'rsn_cache_ratio'
p1080
I64
sg1057
S'CACHE_ALL_RSN_ALL_SIT'
p1081
ssS'warmup_strategy'
p1082
g11
(tRp1083
S'p'
F0.5
sg1057
S'NDN'
p1084
ssS'topology'
p1085
g11
(tRp1086
S'ext_delay'
p1087
I2
sS'source_ratio'
p1088
F1
sg1057
S'ROCKET_FUEL'
p1089
sS'asn'
p1090
I3257
ssg11
(tRp1091
S'LATENCY'
p1092
g11
(tRp1093
S'MEAN'
p1094
F4.6891533674119676
ssS'CACHE_HIT_RATIO'
p1095
g11
(tRp1096
S'MEAN_NETWORK_HITS'
p1097
F0.11080844573900216
sS'MEAN_USER_HITS'
p1098
F0.25797882314702536
sg1094
F0.36878726888602753
ssS'OVERHEAD'
p1099
g11
(tRp1100
g1094
F42.81425336605605
ssS'ABS'
p1101
g11
(tRp1102
S'NUM_UNIQUE'
p1103
I9948
sS'MEAN_ABS_TIME'
p1104
F2243.0744100116899
sS'NUM_ABS'
p1105
I6481
sstp1106
a(g11
(tRp1107
S'workload'
p1108
g11
(tRp1109
S'n_contents'
p1110
I10000
sS'disconnection_rate'
p1111
F0.0025000000000000001
sS'name'
p1112
S'STATIONARY_SIT'
p1113
sS'n_warmup'
p1114
I120000
sS'rate'
p1115
I100
sS'n_measured'
p1116
I360000
sS'alpha'
p1117
F0.69999999999999996
ssS'cache_policy'
p1118
g11
(tRp1119
g1112
S'LRU'
p1120
ssS'desc'
p1121
S'strategy: SIT_WITH_SCOPED_FLOODING fan_out 1 scope: 10'
p1122
sS'strategy'
p1123
g11
(tRp1124
S'p'
F0.5
sS'fan_out'
p1125
I1
sg1112
S'SIT_WITH_SCOPED_FLOODING'
p1126
sS'scope'
p1127
I10
ssS'content_placement'
p1128
g11
(tRp1129
g1112
S'UNIFORM'
p1130
ssS'joint_cache_rsn_placement'
p1131
g11
(tRp1132
S'network_cache'
p1133
F1
sS'network_rsn'
p1134
F64
sS'rsn_cache_ratio'
p1135
I64
sg1112
S'CACHE_ALL_RSN_ALL_SIT'
p1136
ssS'warmup_strategy'
p1137
g11
(tRp1138
S'p'
F0.5
sg1112
S'NDN'
p1139
ssS'topology'
p1140
g11
(tRp1141
S'ext_delay'
p1142
I2
sS'source_ratio'
p1143
F1
sg1112
S'ROCKET_FUEL'
p1144
sS'asn'
p1145
I3257
ssg11
(tRp1146
S'LATENCY'
p1147
g11
(tRp1148
S'MEAN'
p1149
F5.2733666876826186
ssS'CACHE_HIT_RATIO'
p1150
g11
(tRp1151
S'MEAN_NETWORK_HITS'
p1152
F0.10469781884750676
sS'MEAN_USER_HITS'
p1153
F0.26394756736830927
sg1149
F0.368645386215816
ssS'OVERHEAD'
p1154
g11
(tRp1155
g1149
F35.578430176195027
ssS'ABS'
p1156
g11
(tRp1157
S'NUM_UNIQUE'
p1158
I9954
sS'MEAN_ABS_TIME'
p1159
F2241.7614113956697
sS'NUM_ABS'
p1160
I6500
sstp1161
a(g11
(tRp1162
S'workload'
p1163
g11
(tRp1164
S'n_contents'
p1165
I10000
sS'disconnection_rate'
p1166
F0.0025000000000000001
sS'name'
p1167
S'STATIONARY_SIT'
p1168
sS'n_warmup'
p1169
I120000
sS'rate'
p1170
I100
sS'n_measured'
p1171
I360000
sS'alpha'
p1172
F0.69999999999999996
ssS'cache_policy'
p1173
g11
(tRp1174
g1167
S'LRU'
p1175
ssS'desc'
p1176
S'strategy: SIT_WITH_SCOPED_FLOODING fan_out 100 scope: 8'
p1177
sS'strategy'
p1178
g11
(tRp1179
S'p'
F0.5
sS'fan_out'
p1180
I100
sg1167
S'SIT_WITH_SCOPED_FLOODING'
p1181
sS'scope'
p1182
I8
ssS'content_placement'
p1183
g11
(tRp1184
g1167
S'UNIFORM'
p1185
ssS'joint_cache_rsn_placement'
p1186
g11
(tRp1187
S'network_cache'
p1188
F1
sS'network_rsn'
p1189
F64
sS'rsn_cache_ratio'
p1190
I64
sg1167
S'CACHE_ALL_RSN_ALL_SIT'
p1191
ssS'warmup_strategy'
p1192
g11
(tRp1193
S'p'
F0.5
sg1167
S'NDN'
p1194
ssS'topology'
p1195
g11
(tRp1196
S'ext_delay'
p1197
I2
sS'source_ratio'
p1198
F1
sg1167
S'ROCKET_FUEL'
p1199
sS'asn'
p1200
I3257
ssg11
(tRp1201
S'LATENCY'
p1202
g11
(tRp1203
S'MEAN'
p1204
F4.7639251103556752
ssS'CACHE_HIT_RATIO'
p1205
g11
(tRp1206
S'MEAN_NETWORK_HITS'
p1207
F0.10712503798294612
sS'MEAN_USER_HITS'
p1208
F0.26255688063413701
sg1204
F0.36968191861708316
ssS'OVERHEAD'
p1209
g11
(tRp1210
g1204
F46.415248532819184
ssS'ABS'
p1211
g11
(tRp1212
S'NUM_UNIQUE'
p1213
I9943
sS'MEAN_ABS_TIME'
p1214
F2245.6279708358261
sS'NUM_ABS'
p1215
I6433
sstp1216
a(g11
(tRp1217
S'workload'
p1218
g11
(tRp1219
S'n_contents'
p1220
I10000
sS'disconnection_rate'
p1221
F0.0025000000000000001
sS'name'
p1222
S'STATIONARY_SIT'
p1223
sS'n_warmup'
p1224
I120000
sS'rate'
p1225
I100
sS'n_measured'
p1226
I360000
sS'alpha'
p1227
F0.69999999999999996
ssS'cache_policy'
p1228
g11
(tRp1229
g1222
S'LRU'
p1230
ssS'desc'
p1231
S'strategy: SIT_WITH_SCOPED_FLOODING fan_out 100 scope: 7'
p1232
sS'strategy'
p1233
g11
(tRp1234
S'p'
F0.5
sS'fan_out'
p1235
I100
sg1222
S'SIT_WITH_SCOPED_FLOODING'
p1236
sS'scope'
p1237
I7
ssS'content_placement'
p1238
g11
(tRp1239
g1222
S'UNIFORM'
p1240
ssS'joint_cache_rsn_placement'
p1241
g11
(tRp1242
S'network_cache'
p1243
F1
sS'network_rsn'
p1244
F64
sS'rsn_cache_ratio'
p1245
I64
sg1222
S'CACHE_ALL_RSN_ALL_SIT'
p1246
ssS'warmup_strategy'
p1247
g11
(tRp1248
S'p'
F0.5
sg1222
S'NDN'
p1249
ssS'topology'
p1250
g11
(tRp1251
S'ext_delay'
p1252
I2
sS'source_ratio'
p1253
F1
sg1222
S'ROCKET_FUEL'
p1254
sS'asn'
p1255
I3257
ssg11
(tRp1256
S'LATENCY'
p1257
g11
(tRp1258
S'MEAN'
p1259
F4.7498475152568993
ssS'CACHE_HIT_RATIO'
p1260
g11
(tRp1261
S'MEAN_NETWORK_HITS'
p1262
F0.10832198157891448
sS'MEAN_USER_HITS'
p1263
F0.26253796068335478
sg1259
F0.37085994226226926
ssS'OVERHEAD'
p1264
g11
(tRp1265
g1259
F45.389798180966537
ssS'ABS'
p1266
g11
(tRp1267
S'NUM_UNIQUE'
p1268
I9947
sS'MEAN_ABS_TIME'
p1269
F2269.7897986588155
sS'NUM_ABS'
p1270
I6427
sstp1271
a(g11
(tRp1272
S'workload'
p1273
g11
(tRp1274
S'n_contents'
p1275
I10000
sS'disconnection_rate'
p1276
F0.0025000000000000001
sS'name'
p1277
S'STATIONARY_SIT'
p1278
sS'n_warmup'
p1279
I120000
sS'rate'
p1280
I100
sS'n_measured'
p1281
I360000
sS'alpha'
p1282
F0.69999999999999996
ssS'cache_policy'
p1283
g11
(tRp1284
g1277
S'LRU'
p1285
ssS'desc'
p1286
S'strategy: SCOPED_FLOODING scope: 5'
p1287
sS'strategy'
p1288
g11
(tRp1289
S'p'
F1
sg1277
S'SCOPED_FLOODING'
p1290
sS'scope'
p1291
I5
ssS'content_placement'
p1292
g11
(tRp1293
g1277
S'UNIFORM'
p1294
ssS'joint_cache_rsn_placement'
p1295
g11
(tRp1296
S'network_cache'
p1297
F1
sS'network_rsn'
p1298
F64
sS'rsn_cache_ratio'
p1299
I64
sg1277
S'CACHE_ALL_RSN_ALL_SIT'
p1300
ssS'warmup_strategy'
p1301
g11
(tRp1302
S'p'
F0.5
sg1277
S'NDN'
p1303
ssS'topology'
p1304
g11
(tRp1305
S'ext_delay'
p1306
I2
sS'source_ratio'
p1307
F1
sg1277
S'ROCKET_FUEL'
p1308
sS'asn'
p1309
I3257
ssg11
(tRp1310
S'LATENCY'
p1311
g11
(tRp1312
S'MEAN'
p1313
F3.426992242395928
ssS'CACHE_HIT_RATIO'
p1314
g11
(tRp1315
S'MEAN_NETWORK_HITS'
p1316
F0.10061040386139183
sS'MEAN_USER_HITS'
p1317
F0.23110860039543771
sg1313
F0.33171900425682954
ssS'OVERHEAD'
p1318
g11
(tRp1319
g1313
F42.024866530779867
ssS'ABS'
p1320
g11
(tRp1321
S'NUM_UNIQUE'
p1322
I9949
sS'MEAN_ABS_TIME'
p1323
F2009.3576101451463
sS'NUM_ABS'
p1324
I7334
sstp1325
a(g11
(tRp1326
S'workload'
p1327
g11
(tRp1328
S'n_contents'
p1329
I10000
sS'disconnection_rate'
p1330
F0.0025000000000000001
sS'name'
p1331
S'STATIONARY_SIT'
p1332
sS'n_warmup'
p1333
I120000
sS'rate'
p1334
I100
sS'n_measured'
p1335
I360000
sS'alpha'
p1336
F0.69999999999999996
ssS'cache_policy'
p1337
g11
(tRp1338
g1331
S'LRU'
p1339
ssS'desc'
p1340
S'strategy: SIT_WITH_SCOPED_FLOODING fan_out 100 scope: 10'
p1341
sS'strategy'
p1342
g11
(tRp1343
S'p'
F0.5
sS'fan_out'
p1344
I100
sg1331
S'SIT_WITH_SCOPED_FLOODING'
p1345
sS'scope'
p1346
I10
ssS'content_placement'
p1347
g11
(tRp1348
g1331
S'UNIFORM'
p1349
ssS'joint_cache_rsn_placement'
p1350
g11
(tRp1351
S'network_cache'
p1352
F1
sS'network_rsn'
p1353
F64
sS'rsn_cache_ratio'
p1354
I64
sg1331
S'CACHE_ALL_RSN_ALL_SIT'
p1355
ssS'warmup_strategy'
p1356
g11
(tRp1357
S'p'
F0.5
sg1331
S'NDN'
p1358
ssS'topology'
p1359
g11
(tRp1360
S'ext_delay'
p1361
I2
sS'source_ratio'
p1362
F1
sg1331
S'ROCKET_FUEL'
p1363
sS'asn'
p1364
I3257
ssg11
(tRp1365
S'LATENCY'
p1366
g11
(tRp1367
S'MEAN'
p1368
F4.7811983178188351
ssS'CACHE_HIT_RATIO'
p1369
g11
(tRp1370
S'MEAN_NETWORK_HITS'
p1371
F0.10708402594643236
sS'MEAN_USER_HITS'
p1372
F0.26321755758583193
sg1368
F0.37030158353226433
ssS'OVERHEAD'
p1373
g11
(tRp1374
g1368
F47.265456558278935
ssS'ABS'
p1375
g11
(tRp1376
S'NUM_UNIQUE'
p1377
I9950
sS'MEAN_ABS_TIME'
p1378
F2246.1111570328544
sS'NUM_ABS'
p1379
I6448
sstp1380
a(g11
(tRp1381
S'workload'
p1382
g11
(tRp1383
S'n_contents'
p1384
I10000
sS'disconnection_rate'
p1385
F0.0025000000000000001
sS'name'
p1386
S'STATIONARY_SIT'
p1387
sS'n_warmup'
p1388
I120000
sS'rate'
p1389
I100
sS'n_measured'
p1390
I360000
sS'alpha'
p1391
F0.69999999999999996
ssS'cache_policy'
p1392
g11
(tRp1393
g1386
S'LRU'
p1394
ssS'desc'
p1395
S'strategy: SIT_WITH_SCOPED_FLOODING fan_out 1 scope: 9'
p1396
sS'strategy'
p1397
g11
(tRp1398
S'p'
F0.5
sS'fan_out'
p1399
I1
sg1386
S'SIT_WITH_SCOPED_FLOODING'
p1400
sS'scope'
p1401
I9
ssS'content_placement'
p1402
g11
(tRp1403
g1386
S'UNIFORM'
p1404
ssS'joint_cache_rsn_placement'
p1405
g11
(tRp1406
S'network_cache'
p1407
F1
sS'network_rsn'
p1408
F64
sS'rsn_cache_ratio'
p1409
I64
sg1386
S'CACHE_ALL_RSN_ALL_SIT'
p1410
ssS'warmup_strategy'
p1411
g11
(tRp1412
S'p'
F0.5
sg1386
S'NDN'
p1413
ssS'topology'
p1414
g11
(tRp1415
S'ext_delay'
p1416
I2
sS'source_ratio'
p1417
F1
sg1386
S'ROCKET_FUEL'
p1418
sS'asn'
p1419
I3257
ssg11
(tRp1420
S'LATENCY'
p1421
g11
(tRp1422
S'MEAN'
p1423
F5.2710595498566803
ssS'CACHE_HIT_RATIO'
p1424
g11
(tRp1425
S'MEAN_NETWORK_HITS'
p1426
F0.10497865114204206
sS'MEAN_USER_HITS'
p1427
F0.26338755206009917
sg1423
F0.36836620320214125
ssS'OVERHEAD'
p1428
g11
(tRp1429
g1423
F35.118787632083311
ssS'ABS'
p1430
g11
(tRp1431
S'NUM_UNIQUE'
p1432
I9942
sS'MEAN_ABS_TIME'
p1433
F2238.346038274954
sS'NUM_ABS'
p1434
I6496
sstp1435
a(g11
(tRp1436
S'workload'
p1437
g11
(tRp1438
S'n_contents'
p1439
I10000
sS'disconnection_rate'
p1440
F0.0025000000000000001
sS'name'
p1441
S'STATIONARY_SIT'
p1442
sS'n_warmup'
p1443
I120000
sS'rate'
p1444
I100
sS'n_measured'
p1445
I360000
sS'alpha'
p1446
F0.69999999999999996
ssS'cache_policy'
p1447
g11
(tRp1448
g1441
S'LRU'
p1449
ssS'desc'
p1450
S'strategy: SIT_WITH_SCOPED_FLOODING fan_out 100 scope: 9'
p1451
sS'strategy'
p1452
g11
(tRp1453
S'p'
F0.5
sS'fan_out'
p1454
I100
sg1441
S'SIT_WITH_SCOPED_FLOODING'
p1455
sS'scope'
p1456
I9
ssS'content_placement'
p1457
g11
(tRp1458
g1441
S'UNIFORM'
p1459
ssS'joint_cache_rsn_placement'
p1460
g11
(tRp1461
S'network_cache'
p1462
F1
sS'network_rsn'
p1463
F64
sS'rsn_cache_ratio'
p1464
I64
sg1441
S'CACHE_ALL_RSN_ALL_SIT'
p1465
ssS'warmup_strategy'
p1466
g11
(tRp1467
S'p'
F0.5
sg1441
S'NDN'
p1468
ssS'topology'
p1469
g11
(tRp1470
S'ext_delay'
p1471
I2
sS'source_ratio'
p1472
F1
sg1441
S'ROCKET_FUEL'
p1473
sS'asn'
p1474
I3257
ssg11
(tRp1475
S'LATENCY'
p1476
g11
(tRp1477
S'MEAN'
p1478
F4.7904532604726029
ssS'CACHE_HIT_RATIO'
p1479
g11
(tRp1480
S'MEAN_NETWORK_HITS'
p1481
F0.10723324164253586
sS'MEAN_USER_HITS'
p1482
F0.26235107535683799
sg1478
F0.36958431699937389
ssS'OVERHEAD'
p1483
g11
(tRp1484
g1478
F46.722629884622151
ssS'ABS'
p1485
g11
(tRp1486
S'NUM_UNIQUE'
p1487
I9931
sS'MEAN_ABS_TIME'
p1488
F2244.338735409382
sS'NUM_ABS'
p1489
I6400
sstp1490
a(g11
(tRp1491
S'workload'
p1492
g11
(tRp1493
S'n_contents'
p1494
I10000
sS'disconnection_rate'
p1495
F0.0025000000000000001
sS'name'
p1496
S'STATIONARY_SIT'
p1497
sS'n_warmup'
p1498
I120000
sS'rate'
p1499
I100
sS'n_measured'
p1500
I360000
sS'alpha'
p1501
F0.69999999999999996
ssS'cache_policy'
p1502
g11
(tRp1503
g1496
S'LRU'
p1504
ssS'desc'
p1505
S'strategy: SCOPED_FLOODING scope: 6'
p1506
sS'strategy'
p1507
g11
(tRp1508
S'p'
F1
sg1496
S'SCOPED_FLOODING'
p1509
sS'scope'
p1510
I6
ssS'content_placement'
p1511
g11
(tRp1512
g1496
S'UNIFORM'
p1513
ssS'joint_cache_rsn_placement'
p1514
g11
(tRp1515
S'network_cache'
p1516
F1
sS'network_rsn'
p1517
F64
sS'rsn_cache_ratio'
p1518
I64
sg1496
S'CACHE_ALL_RSN_ALL_SIT'
p1519
ssS'warmup_strategy'
p1520
g11
(tRp1521
S'p'
F0.5
sg1496
S'NDN'
p1522
ssS'topology'
p1523
g11
(tRp1524
S'ext_delay'
p1525
I2
sS'source_ratio'
p1526
F1
sg1496
S'ROCKET_FUEL'
p1527
sS'asn'
p1528
I3257
ssg11
(tRp1529
S'LATENCY'
p1530
g11
(tRp1531
S'MEAN'
p1532
F3.5899510139103663
ssS'CACHE_HIT_RATIO'
p1533
g11
(tRp1534
S'MEAN_NETWORK_HITS'
p1535
F0.097733765949598955
sS'MEAN_USER_HITS'
p1536
F0.2588408134686197
sg1532
F0.35657457941821863
ssS'OVERHEAD'
p1537
g11
(tRp1538
g1532
F54.482921492515331
ssS'ABS'
p1539
g11
(tRp1540
S'NUM_UNIQUE'
p1541
I9954
sS'MEAN_ABS_TIME'
p1542
F2151.1398000558374
sS'NUM_ABS'
p1543
I6786
sstp1544
a(g11
(tRp1545
S'workload'
p1546
g11
(tRp1547
S'n_contents'
p1548
I10000
sS'disconnection_rate'
p1549
F0.0025000000000000001
sS'name'
p1550
S'STATIONARY_SIT'
p1551
sS'n_warmup'
p1552
I120000
sS'rate'
p1553
I100
sS'n_measured'
p1554
I360000
sS'alpha'
p1555
F0.69999999999999996
ssS'cache_policy'
p1556
g11
(tRp1557
g1550
S'LRU'
p1558
ssS'desc'
p1559
S'strategy: SIT_WITH_SCOPED_FLOODING fan_out 1 scope: 8'
p1560
sS'strategy'
p1561
g11
(tRp1562
S'p'
F0.5
sS'fan_out'
p1563
I1
sg1550
S'SIT_WITH_SCOPED_FLOODING'
p1564
sS'scope'
p1565
I8
ssS'content_placement'
p1566
g11
(tRp1567
g1550
S'UNIFORM'
p1568
ssS'joint_cache_rsn_placement'
p1569
g11
(tRp1570
S'network_cache'
p1571
F1
sS'network_rsn'
p1572
F64
sS'rsn_cache_ratio'
p1573
I64
sg1550
S'CACHE_ALL_RSN_ALL_SIT'
p1574
ssS'warmup_strategy'
p1575
g11
(tRp1576
S'p'
F0.5
sg1550
S'NDN'
p1577
ssS'topology'
p1578
g11
(tRp1579
S'ext_delay'
p1580
I2
sS'source_ratio'
p1581
F1
sg1550
S'ROCKET_FUEL'
p1582
sS'asn'
p1583
I3257
ssg11
(tRp1584
S'LATENCY'
p1585
g11
(tRp1586
S'MEAN'
p1587
F5.2703250733911942
ssS'CACHE_HIT_RATIO'
p1588
g11
(tRp1589
S'MEAN_NETWORK_HITS'
p1590
F0.10477009583194781
sS'MEAN_USER_HITS'
p1591
F0.26698060609394181
sg1587
F0.3717507019258896
ssS'OVERHEAD'
p1592
g11
(tRp1593
g1587
F34.738919022526808
ssS'ABS'
p1594
g11
(tRp1595
S'NUM_UNIQUE'
p1596
I9938
sS'MEAN_ABS_TIME'
p1597
F2269.3697404082104
sS'NUM_ABS'
p1598
I6372
sstp1599
a(g11
(tRp1600
S'workload'
p1601
g11
(tRp1602
S'n_contents'
p1603
I10000
sS'disconnection_rate'
p1604
F0.0025000000000000001
sS'name'
p1605
S'STATIONARY_SIT'
p1606
sS'n_warmup'
p1607
I120000
sS'rate'
p1608
I100
sS'n_measured'
p1609
I360000
sS'alpha'
p1610
F0.69999999999999996
ssS'cache_policy'
p1611
g11
(tRp1612
g1605
S'LRU'
p1613
ssS'desc'
p1614
S'strategy: SCOPED_FLOODING scope: 7'
p1615
sS'strategy'
p1616
g11
(tRp1617
S'p'
F1
sg1605
S'SCOPED_FLOODING'
p1618
sS'scope'
p1619
I7
ssS'content_placement'
p1620
g11
(tRp1621
g1605
S'UNIFORM'
p1622
ssS'joint_cache_rsn_placement'
p1623
g11
(tRp1624
S'network_cache'
p1625
F1
sS'network_rsn'
p1626
F64
sS'rsn_cache_ratio'
p1627
I64
sg1605
S'CACHE_ALL_RSN_ALL_SIT'
p1628
ssS'warmup_strategy'
p1629
g11
(tRp1630
S'p'
F0.5
sg1605
S'NDN'
p1631
ssS'topology'
p1632
g11
(tRp1633
S'ext_delay'
p1634
I2
sS'source_ratio'
p1635
F1
sg1605
S'ROCKET_FUEL'
p1636
sS'asn'
p1637
I3257
ssg11
(tRp1638
S'LATENCY'
p1639
g11
(tRp1640
S'MEAN'
p1641
F3.678863451925503
ssS'CACHE_HIT_RATIO'
p1642
g11
(tRp1643
S'MEAN_NETWORK_HITS'
p1644
F0.096256704549716812
sS'MEAN_USER_HITS'
p1645
F0.27041371291399424
sg1641
F0.36667041746371104
ssS'OVERHEAD'
p1646
g11
(tRp1647
g1641
F62.707826128466891
ssS'ABS'
p1648
g11
(tRp1649
S'NUM_UNIQUE'
p1650
I9941
sS'MEAN_ABS_TIME'
p1651
F2228.0344059792415
sS'NUM_ABS'
p1652
I6557
sstp1653
a(g11
(tRp1654
S'workload'
p1655
g11
(tRp1656
S'n_contents'
p1657
I10000
sS'disconnection_rate'
p1658
F0.0025000000000000001
sS'name'
p1659
S'STATIONARY_SIT'
p1660
sS'n_warmup'
p1661
I120000
sS'rate'
p1662
I100
sS'n_measured'
p1663
I360000
sS'alpha'
p1664
F0.69999999999999996
ssS'cache_policy'
p1665
g11
(tRp1666
g1659
S'LRU'
p1667
ssS'desc'
p1668
S'strategy: SCOPED_FLOODING scope: 10'
p1669
sS'strategy'
p1670
g11
(tRp1671
S'p'
F1
sg1659
S'SCOPED_FLOODING'
p1672
sS'scope'
p1673
I10
ssS'content_placement'
p1674
g11
(tRp1675
g1659
S'UNIFORM'
p1676
ssS'joint_cache_rsn_placement'
p1677
g11
(tRp1678
S'network_cache'
p1679
F1
sS'network_rsn'
p1680
F64
sS'rsn_cache_ratio'
p1681
I64
sg1659
S'CACHE_ALL_RSN_ALL_SIT'
p1682
ssS'warmup_strategy'
p1683
g11
(tRp1684
S'p'
F0.5
sg1659
S'NDN'
p1685
ssS'topology'
p1686
g11
(tRp1687
S'ext_delay'
p1688
I2
sS'source_ratio'
p1689
F1
sg1659
S'ROCKET_FUEL'
p1690
sS'asn'
p1691
I3257
ssg11
(tRp1692
S'LATENCY'
p1693
g11
(tRp1694
S'MEAN'
p1695
F3.7107813108151557
ssS'CACHE_HIT_RATIO'
p1696
g11
(tRp1697
S'MEAN_NETWORK_HITS'
p1698
F0.094235974370995471
sS'MEAN_USER_HITS'
p1699
F0.27515299265510235
sg1695
F0.3693889670260978
ssS'OVERHEAD'
p1700
g11
(tRp1701
g1695
F69.524982654459919
ssS'ABS'
p1702
g11
(tRp1703
S'NUM_UNIQUE'
p1704
I9947
sS'MEAN_ABS_TIME'
p1705
F2242.2108628001743
sS'NUM_ABS'
p1706
I6511
sstp1707
a(g11
(tRp1708
S'workload'
p1709
g11
(tRp1710
S'n_contents'
p1711
I10000
sS'disconnection_rate'
p1712
F0.0025000000000000001
sS'name'
p1713
S'STATIONARY_SIT'
p1714
sS'n_warmup'
p1715
I120000
sS'rate'
p1716
I100
sS'n_measured'
p1717
I360000
sS'alpha'
p1718
F0.69999999999999996
ssS'cache_policy'
p1719
g11
(tRp1720
g1713
S'LRU'
p1721
ssS'desc'
p1722
S'strategy: SCOPED_FLOODING scope: 9'
p1723
sS'strategy'
p1724
g11
(tRp1725
S'p'
F1
sg1713
S'SCOPED_FLOODING'
p1726
sS'scope'
p1727
I9
ssS'content_placement'
p1728
g11
(tRp1729
g1713
S'UNIFORM'
p1730
ssS'joint_cache_rsn_placement'
p1731
g11
(tRp1732
S'network_cache'
p1733
F1
sS'network_rsn'
p1734
F64
sS'rsn_cache_ratio'
p1735
I64
sg1713
S'CACHE_ALL_RSN_ALL_SIT'
p1736
ssS'warmup_strategy'
p1737
g11
(tRp1738
S'p'
F0.5
sg1713
S'NDN'
p1739
ssS'topology'
p1740
g11
(tRp1741
S'ext_delay'
p1742
I2
sS'source_ratio'
p1743
F1
sg1713
S'ROCKET_FUEL'
p1744
sS'asn'
p1745
I3257
ssg11
(tRp1746
S'LATENCY'
p1747
g11
(tRp1748
S'MEAN'
p1749
F3.7160106506525374
ssS'CACHE_HIT_RATIO'
p1750
g11
(tRp1751
S'MEAN_NETWORK_HITS'
p1752
F0.094632756001975141
sS'MEAN_USER_HITS'
p1753
F0.27673152529236383
sg1749
F0.37136428129433896
ssS'OVERHEAD'
p1754
g11
(tRp1755
g1749
F68.933517576606263
ssS'ABS'
p1756
g11
(tRp1757
S'NUM_UNIQUE'
p1758
I9952
sS'MEAN_ABS_TIME'
p1759
F2262.2250347656304
sS'NUM_ABS'
p1760
I6477
sstp1761
a(g11
(tRp1762
S'workload'
p1763
g11
(tRp1764
S'n_contents'
p1765
I10000
sS'disconnection_rate'
p1766
F0.0025000000000000001
sS'name'
p1767
S'STATIONARY_SIT'
p1768
sS'n_warmup'
p1769
I120000
sS'rate'
p1770
I100
sS'n_measured'
p1771
I360000
sS'alpha'
p1772
F0.69999999999999996
ssS'cache_policy'
p1773
g11
(tRp1774
g1767
S'LRU'
p1775
ssS'desc'
p1776
S'strategy: SCOPED_FLOODING scope: 8'
p1777
sS'strategy'
p1778
g11
(tRp1779
S'p'
F1
sg1767
S'SCOPED_FLOODING'
p1780
sS'scope'
p1781
I8
ssS'content_placement'
p1782
g11
(tRp1783
g1767
S'UNIFORM'
p1784
ssS'joint_cache_rsn_placement'
p1785
g11
(tRp1786
S'network_cache'
p1787
F1
sS'network_rsn'
p1788
F64
sS'rsn_cache_ratio'
p1789
I64
sg1767
S'CACHE_ALL_RSN_ALL_SIT'
p1790
ssS'warmup_strategy'
p1791
g11
(tRp1792
S'p'
F0.5
sg1767
S'NDN'
p1793
ssS'topology'
p1794
g11
(tRp1795
S'ext_delay'
p1796
I2
sS'source_ratio'
p1797
F1
sg1767
S'ROCKET_FUEL'
p1798
sS'asn'
p1799
I3257
ssg11
(tRp1800
S'LATENCY'
p1801
g11
(tRp1802
S'MEAN'
p1803
F3.6773091671945348
ssS'CACHE_HIT_RATIO'
p1804
g11
(tRp1805
S'MEAN_NETWORK_HITS'
p1806
F0.096465803521323043
sS'MEAN_USER_HITS'
p1807
F0.27053219797099604
sg1803
F0.36699800149231904
ssS'OVERHEAD'
p1808
g11
(tRp1809
g1803
F67.368526805478936
ssS'ABS'
p1810
g11
(tRp1811
S'NUM_UNIQUE'
p1812
I9954
sS'MEAN_ABS_TIME'
p1813
F2222.4966448504629
sS'NUM_ABS'
p1814
I6548
sstp1815
atRp1816
sb.