ccopy_reg
_reconstructor
p1
(cicarus.results.readwrite
ResultSet
p2
c__builtin__
object
p3
NtRp4
(dp5
S'attr'
p6
(dp7
sS'_results'
p8
ccollections
deque
p9
((lp10
(cicarus.util
Tree
p11
(tRp12
S'workload'
p13
g11
(tRp14
S'n_contents'
p15
I10000
sS'name'
p16
S'STATIONARY'
p17
sS'n_warmup'
p18
I360000
sS'rate'
p19
I1000
sS'n_measured'
p20
I3600000
sS'alpha'
p21
F0.80000000000000004
ssS'cache_policy'
p22
g11
(tRp23
g16
S'LRU'
p24
ssS'desc'
p25
S'RSN size sensitivity -> RSN/cache ratio: 2.0'
p26
sS'strategy'
p27
g11
(tRp28
S'p'
F0.10000000000000001
sg16
S'LIRA_DFIB_OPH'
p29
ssS'content_placement'
p30
g11
(tRp31
g16
S'LOWEST_DEGREE'
p32
ssS'joint_cache_rsn_placement'
p33
g11
(tRp34
S'network_cache'
p35
F0.94999999999999996
sS'network_rsn'
p36
F1.8999999999999999
sg16
S'CACHE_ALL_RSN_ALL'
p37
sS'rsn_cache_ratio'
p38
F2
ssS'warmup_strategy'
p39
g11
(tRp40
S'p'
F0.10000000000000001
sg16
S'NDN'
p41
ssS'topology'
p42
g11
(tRp43
S'ext_delay'
p44
I5
sS'source_ratio'
p45
F0.10000000000000001
sg16
S'ROCKET_FUEL'
p46
sS'asn'
p47
I3257
ssg11
(tRp48
S'SAT_RATE'
p49
g11
(tRp50
S'MEAN_CACHE_HIT'
p51
F0.26618611111111112
sS'MEAN_SERVER_HIT'
p52
F0.73381333333333332
sS'MEAN'
p53
F0.99999944444444444
ssS'CACHE_HIT_RATIO'
p54
g11
(tRp55
S'MEAN_OFF_PATH'
p56
F0.0093815226052646819
sS'MEAN_ON_PATH'
p57
F0.25680458850584642
sg53
F0.26618611111111112
ssS'OVERHEAD'
p58
g11
(tRp59
g53
F5.695061388888889
ssS'LATENCY'
p60
g11
(tRp61
g53
F103.13756012109147
sstp62
a(g11
(tRp63
S'workload'
p64
g11
(tRp65
S'n_contents'
p66
I10000
sS'name'
p67
S'STATIONARY'
p68
sS'n_warmup'
p69
I360000
sS'rate'
p70
I1000
sS'n_measured'
p71
I3600000
sS'alpha'
p72
F0.80000000000000004
ssS'cache_policy'
p73
g11
(tRp74
g67
S'LRU'
p75
ssS'desc'
p76
S'RSN size sensitivity -> RSN/cache ratio: 4.0'
p77
sS'strategy'
p78
g11
(tRp79
S'p'
F0.10000000000000001
sg67
S'LIRA_DFIB_OPH'
p80
ssS'content_placement'
p81
g11
(tRp82
g67
S'LOWEST_DEGREE'
p83
ssS'joint_cache_rsn_placement'
p84
g11
(tRp85
S'network_cache'
p86
F0.94999999999999996
sS'network_rsn'
p87
F3.7999999999999998
sg67
S'CACHE_ALL_RSN_ALL'
p88
sS'rsn_cache_ratio'
p89
F4
ssS'warmup_strategy'
p90
g11
(tRp91
S'p'
F0.10000000000000001
sg67
S'NDN'
p92
ssS'topology'
p93
g11
(tRp94
S'ext_delay'
p95
I5
sS'source_ratio'
p96
F0.10000000000000001
sg67
S'ROCKET_FUEL'
p97
sS'asn'
p98
I3257
ssg11
(tRp99
S'SAT_RATE'
p100
g11
(tRp101
S'MEAN_CACHE_HIT'
p102
F0.27468638888888891
sS'MEAN_SERVER_HIT'
p103
F0.72531222222222225
sS'MEAN'
p104
F0.9999986111111111
ssS'CACHE_HIT_RATIO'
p105
g11
(tRp106
S'MEAN_OFF_PATH'
p107
F0.020556253105494148
sS'MEAN_ON_PATH'
p108
F0.25413013578339477
sg104
F0.27468638888888891
ssS'OVERHEAD'
p109
g11
(tRp110
g104
F5.7174705555555558
ssS'LATENCY'
p111
g11
(tRp112
g104
F102.01827415639826
sstp113
a(g11
(tRp114
S'workload'
p115
g11
(tRp116
S'n_contents'
p117
I10000
sS'name'
p118
S'STATIONARY'
p119
sS'n_warmup'
p120
I360000
sS'rate'
p121
I1000
sS'n_measured'
p122
I3600000
sS'alpha'
p123
F0.80000000000000004
ssS'cache_policy'
p124
g11
(tRp125
g118
S'LRU'
p126
ssS'desc'
p127
S'RSN size sensitivity -> RSN/cache ratio: 8.0'
p128
sS'strategy'
p129
g11
(tRp130
S'p'
F0.10000000000000001
sg118
S'LIRA_DFIB_OPH'
p131
ssS'content_placement'
p132
g11
(tRp133
g118
S'LOWEST_DEGREE'
p134
ssS'joint_cache_rsn_placement'
p135
g11
(tRp136
S'network_cache'
p137
F0.94999999999999996
sS'network_rsn'
p138
F7.5999999999999996
sg118
S'CACHE_ALL_RSN_ALL'
p139
sS'rsn_cache_ratio'
p140
F8
ssS'warmup_strategy'
p141
g11
(tRp142
S'p'
F0.10000000000000001
sg118
S'NDN'
p143
ssS'topology'
p144
g11
(tRp145
S'ext_delay'
p146
I5
sS'source_ratio'
p147
F0.10000000000000001
sg118
S'ROCKET_FUEL'
p148
sS'asn'
p149
I3257
ssg11
(tRp150
S'SAT_RATE'
p151
g11
(tRp152
S'MEAN_CACHE_HIT'
p153
F0.30008694444444445
sS'MEAN_SERVER_HIT'
p154
F0.69990666666666668
sS'MEAN'
p155
F0.99999361111111107
ssS'CACHE_HIT_RATIO'
p156
g11
(tRp157
S'MEAN_OFF_PATH'
p158
F0.054553729017386851
sS'MEAN_ON_PATH'
p159
F0.24553321542705758
sg155
F0.30008694444444445
ssS'OVERHEAD'
p160
g11
(tRp161
g155
F5.8088613888888885
ssS'LATENCY'
p162
g11
(tRp163
g155
F98.864488559013751
sstp164
a(g11
(tRp165
S'workload'
p166
g11
(tRp167
S'n_contents'
p168
I10000
sS'name'
p169
S'STATIONARY'
p170
sS'n_warmup'
p171
I360000
sS'rate'
p172
I1000
sS'n_measured'
p173
I3600000
sS'alpha'
p174
F0.80000000000000004
ssS'cache_policy'
p175
g11
(tRp176
g169
S'LRU'
p177
ssS'desc'
p178
S'RSN size sensitivity -> RSN/cache ratio: 2.0'
p179
sS'strategy'
p180
g11
(tRp181
S'p'
F0.10000000000000001
sg169
S'LIRA_DFIB'
p182
ssS'content_placement'
p183
g11
(tRp184
g169
S'LOWEST_DEGREE'
p185
ssS'joint_cache_rsn_placement'
p186
g11
(tRp187
S'network_cache'
p188
F0.94999999999999996
sS'network_rsn'
p189
F1.8999999999999999
sg169
S'CACHE_ALL_RSN_ALL'
p190
sS'rsn_cache_ratio'
p191
F2
ssS'warmup_strategy'
p192
g11
(tRp193
S'p'
F0.10000000000000001
sg169
S'NDN'
p194
ssS'topology'
p195
g11
(tRp196
S'ext_delay'
p197
I5
sS'source_ratio'
p198
F0.10000000000000001
sg169
S'ROCKET_FUEL'
p199
sS'asn'
p200
I3257
ssg11
(tRp201
S'SAT_RATE'
p202
g11
(tRp203
S'MEAN_CACHE_HIT'
p204
F0.26701666666666668
sS'MEAN_SERVER_HIT'
p205
F0.73298333333333332
sS'MEAN'
p206
F1
ssS'CACHE_HIT_RATIO'
p207
g11
(tRp208
S'MEAN_OFF_PATH'
p209
F0.0093143345047082202
sS'MEAN_ON_PATH'
p210
F0.25770233216195848
sg206
F0.26701666666666668
ssS'OVERHEAD'
p211
g11
(tRp212
g206
F5.6502508333333337
ssS'LATENCY'
p213
g11
(tRp214
g206
F102.76914425644419
sstp215
a(g11
(tRp216
S'workload'
p217
g11
(tRp218
S'n_contents'
p219
I10000
sS'name'
p220
S'STATIONARY'
p221
sS'n_warmup'
p222
I360000
sS'rate'
p223
I1000
sS'n_measured'
p224
I3600000
sS'alpha'
p225
F0.80000000000000004
ssS'cache_policy'
p226
g11
(tRp227
g220
S'LRU'
p228
ssS'desc'
p229
S'RSN size sensitivity -> RSN/cache ratio: 2.0'
p230
sS'strategy'
p231
g11
(tRp232
S'p'
F0.10000000000000001
sg220
S'LIRA_BC_HYBRID'
p233
ssS'content_placement'
p234
g11
(tRp235
g220
S'LOWEST_DEGREE'
p236
ssS'joint_cache_rsn_placement'
p237
g11
(tRp238
S'network_cache'
p239
F0.94999999999999996
sS'network_rsn'
p240
F1.8999999999999999
sg220
S'CACHE_ALL_RSN_ALL'
p241
sS'rsn_cache_ratio'
p242
F2
ssS'warmup_strategy'
p243
g11
(tRp244
S'p'
F0.10000000000000001
sg220
S'NDN'
p245
ssS'topology'
p246
g11
(tRp247
S'ext_delay'
p248
I5
sS'source_ratio'
p249
F0.10000000000000001
sg220
S'ROCKET_FUEL'
p250
sS'asn'
p251
I3257
ssg11
(tRp252
S'SAT_RATE'
p253
g11
(tRp254
S'MEAN_CACHE_HIT'
p255
F0.26649944444444446
sS'MEAN_SERVER_HIT'
p256
F0.73350027777777782
sS'MEAN'
p257
F0.99999972222222222
ssS'CACHE_HIT_RATIO'
p258
g11
(tRp259
S'MEAN_OFF_PATH'
p260
F0.0090933358592599611
sS'MEAN_ON_PATH'
p261
F0.25740610858518448
sg257
F0.26649944444444446
ssS'OVERHEAD'
p262
g11
(tRp263
g257
F5.6275541666666671
ssS'LATENCY'
p264
g11
(tRp265
g257
F103.6252486938355
sstp266
a(g11
(tRp267
S'workload'
p268
g11
(tRp269
S'n_contents'
p270
I10000
sS'name'
p271
S'STATIONARY'
p272
sS'n_warmup'
p273
I360000
sS'rate'
p274
I1000
sS'n_measured'
p275
I3600000
sS'alpha'
p276
F0.80000000000000004
ssS'cache_policy'
p277
g11
(tRp278
g271
S'LRU'
p279
ssS'desc'
p280
S'RSN size sensitivity -> RSN/cache ratio: 4.0'
p281
sS'strategy'
p282
g11
(tRp283
S'p'
F0.10000000000000001
sg271
S'LIRA_DFIB'
p284
ssS'content_placement'
p285
g11
(tRp286
g271
S'LOWEST_DEGREE'
p287
ssS'joint_cache_rsn_placement'
p288
g11
(tRp289
S'network_cache'
p290
F0.94999999999999996
sS'network_rsn'
p291
F3.7999999999999998
sg271
S'CACHE_ALL_RSN_ALL'
p292
sS'rsn_cache_ratio'
p293
F4
ssS'warmup_strategy'
p294
g11
(tRp295
S'p'
F0.10000000000000001
sg271
S'NDN'
p296
ssS'topology'
p297
g11
(tRp298
S'ext_delay'
p299
I5
sS'source_ratio'
p300
F0.10000000000000001
sg271
S'ROCKET_FUEL'
p301
sS'asn'
p302
I3257
ssg11
(tRp303
S'SAT_RATE'
p304
g11
(tRp305
S'MEAN_CACHE_HIT'
p306
F0.27456111111111109
sS'MEAN_SERVER_HIT'
p307
F0.72543749999999996
sS'MEAN'
p308
F0.9999986111111111
ssS'CACHE_HIT_RATIO'
p309
g11
(tRp310
S'MEAN_OFF_PATH'
p311
F0.02008735178947945
sS'MEAN_ON_PATH'
p312
F0.25447375932163163
sg308
F0.27456111111111109
ssS'OVERHEAD'
p313
g11
(tRp314
g308
F5.6690919444444443
ssS'LATENCY'
p315
g11
(tRp316
g308
F101.81761877920542
sstp317
a(g11
(tRp318
S'workload'
p319
g11
(tRp320
S'n_contents'
p321
I10000
sS'name'
p322
S'STATIONARY'
p323
sS'n_warmup'
p324
I360000
sS'rate'
p325
I1000
sS'n_measured'
p326
I3600000
sS'alpha'
p327
F0.80000000000000004
ssS'cache_policy'
p328
g11
(tRp329
g322
S'LRU'
p330
ssS'desc'
p331
S'RSN size sensitivity -> RSN/cache ratio: 4.0'
p332
sS'strategy'
p333
g11
(tRp334
S'p'
F0.10000000000000001
sg322
S'LIRA_BC_HYBRID'
p335
ssS'content_placement'
p336
g11
(tRp337
g322
S'LOWEST_DEGREE'
p338
ssS'joint_cache_rsn_placement'
p339
g11
(tRp340
S'network_cache'
p341
F0.94999999999999996
sS'network_rsn'
p342
F3.7999999999999998
sg322
S'CACHE_ALL_RSN_ALL'
p343
sS'rsn_cache_ratio'
p344
F4
ssS'warmup_strategy'
p345
g11
(tRp346
S'p'
F0.10000000000000001
sg322
S'NDN'
p347
ssS'topology'
p348
g11
(tRp349
S'ext_delay'
p350
I5
sS'source_ratio'
p351
F0.10000000000000001
sg322
S'ROCKET_FUEL'
p352
sS'asn'
p353
I3257
ssg11
(tRp354
S'SAT_RATE'
p355
g11
(tRp356
S'MEAN_CACHE_HIT'
p357
F0.27284666666666668
sS'MEAN_SERVER_HIT'
p358
F0.72715111111111108
sS'MEAN'
p359
F0.99999777777777776
ssS'CACHE_HIT_RATIO'
p360
g11
(tRp361
S'MEAN_OFF_PATH'
p362
F0.019074406574017697
sS'MEAN_ON_PATH'
p363
F0.25377226009264897
sg359
F0.27284666666666668
ssS'OVERHEAD'
p364
g11
(tRp365
g359
F5.6222411111111112
ssS'LATENCY'
p366
g11
(tRp367
g359
F103.47866761179873
sstp368
a(g11
(tRp369
S'workload'
p370
g11
(tRp371
S'n_contents'
p372
I10000
sS'name'
p373
S'STATIONARY'
p374
sS'n_warmup'
p375
I360000
sS'rate'
p376
I1000
sS'n_measured'
p377
I3600000
sS'alpha'
p378
F0.80000000000000004
ssS'cache_policy'
p379
g11
(tRp380
g373
S'LRU'
p381
ssS'desc'
p382
S'RSN size sensitivity -> RSN/cache ratio: 8.0'
p383
sS'strategy'
p384
g11
(tRp385
S'p'
F0.10000000000000001
sg373
S'LIRA_BC_HYBRID'
p386
ssS'content_placement'
p387
g11
(tRp388
g373
S'LOWEST_DEGREE'
p389
ssS'joint_cache_rsn_placement'
p390
g11
(tRp391
S'network_cache'
p392
F0.94999999999999996
sS'network_rsn'
p393
F7.5999999999999996
sg373
S'CACHE_ALL_RSN_ALL'
p394
sS'rsn_cache_ratio'
p395
F8
ssS'warmup_strategy'
p396
g11
(tRp397
S'p'
F0.10000000000000001
sg373
S'NDN'
p398
ssS'topology'
p399
g11
(tRp400
S'ext_delay'
p401
I5
sS'source_ratio'
p402
F0.10000000000000001
sg373
S'ROCKET_FUEL'
p403
sS'asn'
p404
I3257
ssg11
(tRp405
S'SAT_RATE'
p406
g11
(tRp407
S'MEAN_CACHE_HIT'
p408
F0.2916597222222222
sS'MEAN_SERVER_HIT'
p409
F0.70827611111111111
sS'MEAN'
p410
F0.99993583333333336
ssS'CACHE_HIT_RATIO'
p411
g11
(tRp412
S'MEAN_OFF_PATH'
p413
F0.042346597997558161
sS'MEAN_ON_PATH'
p414
F0.24931312422466403
sg410
F0.2916597222222222
ssS'OVERHEAD'
p415
g11
(tRp416
g410
F5.5913216666666665
ssS'LATENCY'
p417
g11
(tRp418
g410
F101.93271561596319
sstp419
a(g11
(tRp420
S'workload'
p421
g11
(tRp422
S'n_contents'
p423
I10000
sS'name'
p424
S'STATIONARY'
p425
sS'n_warmup'
p426
I360000
sS'rate'
p427
I1000
sS'n_measured'
p428
I3600000
sS'alpha'
p429
F0.80000000000000004
ssS'cache_policy'
p430
g11
(tRp431
g424
S'LRU'
p432
ssS'desc'
p433
S'RSN size sensitivity -> RSN/cache ratio: 8.0'
p434
sS'strategy'
p435
g11
(tRp436
S'p'
F0.10000000000000001
sg424
S'LIRA_DFIB'
p437
ssS'content_placement'
p438
g11
(tRp439
g424
S'LOWEST_DEGREE'
p440
ssS'joint_cache_rsn_placement'
p441
g11
(tRp442
S'network_cache'
p443
F0.94999999999999996
sS'network_rsn'
p444
F7.5999999999999996
sg424
S'CACHE_ALL_RSN_ALL'
p445
sS'rsn_cache_ratio'
p446
F8
ssS'warmup_strategy'
p447
g11
(tRp448
S'p'
F0.10000000000000001
sg424
S'NDN'
p449
ssS'topology'
p450
g11
(tRp451
S'ext_delay'
p452
I5
sS'source_ratio'
p453
F0.10000000000000001
sg424
S'ROCKET_FUEL'
p454
sS'asn'
p455
I3257
ssg11
(tRp456
S'SAT_RATE'
p457
g11
(tRp458
S'MEAN_CACHE_HIT'
p459
F0.29628333333333334
sS'MEAN_SERVER_HIT'
p460
F0.70365638888888893
sS'MEAN'
p461
F0.99993972222222227
ssS'CACHE_HIT_RATIO'
p462
g11
(tRp463
S'MEAN_OFF_PATH'
p464
F0.046436902016985623
sS'MEAN_ON_PATH'
p465
F0.24984643131634771
sg461
F0.29628333333333334
ssS'OVERHEAD'
p466
g11
(tRp467
g461
F5.7237383333333334
ssS'LATENCY'
p468
g11
(tRp469
g461
F99.040490390498107
sstp470
a(g11
(tRp471
S'workload'
p472
g11
(tRp473
S'n_contents'
p474
I10000
sS'name'
p475
S'STATIONARY'
p476
sS'n_warmup'
p477
I360000
sS'rate'
p478
I1000
sS'n_measured'
p479
I3600000
sS'alpha'
p480
F0.80000000000000004
ssS'cache_policy'
p481
g11
(tRp482
g475
S'LRU'
p483
ssS'desc'
p484
S'RSN size sensitivity -> RSN/cache ratio: 16.0'
p485
sS'strategy'
p486
g11
(tRp487
S'p'
F0.10000000000000001
sg475
S'LIRA_DFIB'
p488
ssS'content_placement'
p489
g11
(tRp490
g475
S'LOWEST_DEGREE'
p491
ssS'joint_cache_rsn_placement'
p492
g11
(tRp493
S'network_cache'
p494
F0.94999999999999996
sS'network_rsn'
p495
F15.199999999999999
sg475
S'CACHE_ALL_RSN_ALL'
p496
sS'rsn_cache_ratio'
p497
F16
ssS'warmup_strategy'
p498
g11
(tRp499
S'p'
F0.10000000000000001
sg475
S'NDN'
p500
ssS'topology'
p501
g11
(tRp502
S'ext_delay'
p503
I5
sS'source_ratio'
p504
F0.10000000000000001
sg475
S'ROCKET_FUEL'
p505
sS'asn'
p506
I3257
ssg11
(tRp507
S'SAT_RATE'
p508
g11
(tRp509
S'MEAN_CACHE_HIT'
p510
F0.35956444444444446
sS'MEAN_SERVER_HIT'
p511
F0.63958138888888894
sS'MEAN'
p512
F0.99914583333333329
ssS'CACHE_HIT_RATIO'
p513
g11
(tRp514
S'MEAN_OFF_PATH'
p515
F0.11613446653784928
sS'MEAN_ON_PATH'
p516
F0.24342997790659518
sg512
F0.35956444444444446
ssS'OVERHEAD'
p517
g11
(tRp518
g512
F5.8387780555555553
ssS'LATENCY'
p519
g11
(tRp520
g512
F90.851584779699209
sstp521
a(g11
(tRp522
S'workload'
p523
g11
(tRp524
S'n_contents'
p525
I10000
sS'name'
p526
S'STATIONARY'
p527
sS'n_warmup'
p528
I360000
sS'rate'
p529
I1000
sS'n_measured'
p530
I3600000
sS'alpha'
p531
F0.80000000000000004
ssS'cache_policy'
p532
g11
(tRp533
g526
S'LRU'
p534
ssS'desc'
p535
S'RSN size sensitivity -> RSN/cache ratio: 16.0'
p536
sS'strategy'
p537
g11
(tRp538
S'p'
F0.10000000000000001
sg526
S'LIRA_DFIB_OPH'
p539
ssS'content_placement'
p540
g11
(tRp541
g526
S'LOWEST_DEGREE'
p542
ssS'joint_cache_rsn_placement'
p543
g11
(tRp544
S'network_cache'
p545
F0.94999999999999996
sS'network_rsn'
p546
F15.199999999999999
sg526
S'CACHE_ALL_RSN_ALL'
p547
sS'rsn_cache_ratio'
p548
F16
ssS'warmup_strategy'
p549
g11
(tRp550
S'p'
F0.10000000000000001
sg526
S'NDN'
p551
ssS'topology'
p552
g11
(tRp553
S'ext_delay'
p554
I5
sS'source_ratio'
p555
F0.10000000000000001
sg526
S'ROCKET_FUEL'
p556
sS'asn'
p557
I3257
ssg11
(tRp558
S'SAT_RATE'
p559
g11
(tRp560
S'MEAN_CACHE_HIT'
p561
F0.37654027777777777
sS'MEAN_SERVER_HIT'
p562
F0.62342500000000001
sS'MEAN'
p563
F0.99996527777777777
ssS'CACHE_HIT_RATIO'
p564
g11
(tRp565
S'MEAN_OFF_PATH'
p566
F0.15841980575480968
sS'MEAN_ON_PATH'
p567
F0.21812047202296808
sg563
F0.37654027777777777
ssS'OVERHEAD'
p568
g11
(tRp569
g563
F6.2823797222222222
ssS'LATENCY'
p570
g11
(tRp571
g563
F89.591053648315764
sstp572
a(g11
(tRp573
S'workload'
p574
g11
(tRp575
S'n_contents'
p576
I10000
sS'name'
p577
S'STATIONARY'
p578
sS'n_warmup'
p579
I360000
sS'rate'
p580
I1000
sS'n_measured'
p581
I3600000
sS'alpha'
p582
F0.80000000000000004
ssS'cache_policy'
p583
g11
(tRp584
g577
S'LRU'
p585
ssS'desc'
p586
S'RSN size sensitivity -> RSN/cache ratio: 16.0'
p587
sS'strategy'
p588
g11
(tRp589
S'p'
F0.10000000000000001
sg577
S'LIRA_BC_HYBRID'
p590
ssS'content_placement'
p591
g11
(tRp592
g577
S'LOWEST_DEGREE'
p593
ssS'joint_cache_rsn_placement'
p594
g11
(tRp595
S'network_cache'
p596
F0.94999999999999996
sS'network_rsn'
p597
F15.199999999999999
sg577
S'CACHE_ALL_RSN_ALL'
p598
sS'rsn_cache_ratio'
p599
F16
ssS'warmup_strategy'
p600
g11
(tRp601
S'p'
F0.10000000000000001
sg577
S'NDN'
p602
ssS'topology'
p603
g11
(tRp604
S'ext_delay'
p605
I5
sS'source_ratio'
p606
F0.10000000000000001
sg577
S'ROCKET_FUEL'
p607
sS'asn'
p608
I3257
ssg11
(tRp609
S'SAT_RATE'
p610
g11
(tRp611
S'MEAN_CACHE_HIT'
p612
F0.34375805555555555
sS'MEAN_SERVER_HIT'
p613
F0.65533249999999998
sS'MEAN'
p614
F0.99909055555555559
ssS'CACHE_HIT_RATIO'
p615
g11
(tRp616
S'MEAN_OFF_PATH'
p617
F0.11034428763386943
sS'MEAN_ON_PATH'
p618
F0.23341376792168611
sg614
F0.34375805555555555
ssS'OVERHEAD'
p619
g11
(tRp620
g614
F5.5059497222222218
ssS'LATENCY'
p621
g11
(tRp622
g614
F96.122598868530787
sstp623
a(g11
(tRp624
S'workload'
p625
g11
(tRp626
S'n_contents'
p627
I10000
sS'name'
p628
S'STATIONARY'
p629
sS'n_warmup'
p630
I360000
sS'rate'
p631
I1000
sS'n_measured'
p632
I3600000
sS'alpha'
p633
F0.80000000000000004
ssS'cache_policy'
p634
g11
(tRp635
g628
S'LRU'
p636
ssS'desc'
p637
S'RSN size sensitivity -> RSN/cache ratio: 32.0'
p638
sS'strategy'
p639
g11
(tRp640
S'p'
F0.10000000000000001
sg628
S'LIRA_DFIB_OPH'
p641
ssS'content_placement'
p642
g11
(tRp643
g628
S'LOWEST_DEGREE'
p644
ssS'joint_cache_rsn_placement'
p645
g11
(tRp646
S'network_cache'
p647
F0.94999999999999996
sS'network_rsn'
p648
F30.399999999999999
sg628
S'CACHE_ALL_RSN_ALL'
p649
sS'rsn_cache_ratio'
p650
F32
ssS'warmup_strategy'
p651
g11
(tRp652
S'p'
F0.10000000000000001
sg628
S'NDN'
p653
ssS'topology'
p654
g11
(tRp655
S'ext_delay'
p656
I5
sS'source_ratio'
p657
F0.10000000000000001
sg628
S'ROCKET_FUEL'
p658
sS'asn'
p659
I3257
ssg11
(tRp660
S'SAT_RATE'
p661
g11
(tRp662
S'MEAN_CACHE_HIT'
p663
F0.48475000000000001
sS'MEAN_SERVER_HIT'
p664
F0.51508500000000002
sS'MEAN'
p665
F0.99983500000000003
ssS'CACHE_HIT_RATIO'
p666
g11
(tRp667
S'MEAN_OFF_PATH'
p668
F0.25349192570806744
sS'MEAN_ON_PATH'
p669
F0.23125807429193257
sg665
F0.48475000000000001
ssS'OVERHEAD'
p670
g11
(tRp671
g665
F6.8167219444444447
ssS'LATENCY'
p672
g11
(tRp673
g665
F75.743600116302076
sstp674
a(g11
(tRp675
S'workload'
p676
g11
(tRp677
S'n_contents'
p678
I10000
sS'name'
p679
S'STATIONARY'
p680
sS'n_warmup'
p681
I360000
sS'rate'
p682
I1000
sS'n_measured'
p683
I3600000
sS'alpha'
p684
F0.80000000000000004
ssS'cache_policy'
p685
g11
(tRp686
g679
S'LRU'
p687
ssS'desc'
p688
S'RSN size sensitivity -> RSN/cache ratio: 32.0'
p689
sS'strategy'
p690
g11
(tRp691
S'p'
F0.10000000000000001
sg679
S'LIRA_BC_HYBRID'
p692
ssS'content_placement'
p693
g11
(tRp694
g679
S'LOWEST_DEGREE'
p695
ssS'joint_cache_rsn_placement'
p696
g11
(tRp697
S'network_cache'
p698
F0.94999999999999996
sS'network_rsn'
p699
F30.399999999999999
sg679
S'CACHE_ALL_RSN_ALL'
p700
sS'rsn_cache_ratio'
p701
F32
ssS'warmup_strategy'
p702
g11
(tRp703
S'p'
F0.10000000000000001
sg679
S'NDN'
p704
ssS'topology'
p705
g11
(tRp706
S'ext_delay'
p707
I5
sS'source_ratio'
p708
F0.10000000000000001
sg679
S'ROCKET_FUEL'
p709
sS'asn'
p710
I3257
ssg11
(tRp711
S'SAT_RATE'
p712
g11
(tRp713
S'MEAN_CACHE_HIT'
p714
F0.41503861111111112
sS'MEAN_SERVER_HIT'
p715
F0.58247249999999995
sS'MEAN'
p716
F0.99751111111111113
ssS'CACHE_HIT_RATIO'
p717
g11
(tRp718
S'MEAN_OFF_PATH'
p719
F0.19756671476226795
sS'MEAN_ON_PATH'
p720
F0.21747189634884317
sg716
F0.41503861111111112
ssS'OVERHEAD'
p721
g11
(tRp722
g716
F5.42422
ssS'LATENCY'
p723
g11
(tRp724
g716
F87.432429742759155
sstp725
a(g11
(tRp726
S'workload'
p727
g11
(tRp728
S'n_contents'
p729
I10000
sS'name'
p730
S'STATIONARY'
p731
sS'n_warmup'
p732
I360000
sS'rate'
p733
I1000
sS'n_measured'
p734
I3600000
sS'alpha'
p735
F0.80000000000000004
ssS'cache_policy'
p736
g11
(tRp737
g730
S'LRU'
p738
ssS'desc'
p739
S'RSN size sensitivity -> RSN/cache ratio: 32.0'
p740
sS'strategy'
p741
g11
(tRp742
S'p'
F0.10000000000000001
sg730
S'LIRA_DFIB'
p743
ssS'content_placement'
p744
g11
(tRp745
g730
S'LOWEST_DEGREE'
p746
ssS'joint_cache_rsn_placement'
p747
g11
(tRp748
S'network_cache'
p749
F0.94999999999999996
sS'network_rsn'
p750
F30.399999999999999
sg730
S'CACHE_ALL_RSN_ALL'
p751
sS'rsn_cache_ratio'
p752
F32
ssS'warmup_strategy'
p753
g11
(tRp754
S'p'
F0.10000000000000001
sg730
S'NDN'
p755
ssS'topology'
p756
g11
(tRp757
S'ext_delay'
p758
I5
sS'source_ratio'
p759
F0.10000000000000001
sg730
S'ROCKET_FUEL'
p760
sS'asn'
p761
I3257
ssg11
(tRp762
S'SAT_RATE'
p763
g11
(tRp764
S'MEAN_CACHE_HIT'
p765
F0.43480888888888891
sS'MEAN_SERVER_HIT'
p766
F0.56293138888888894
sS'MEAN'
p767
F0.99774027777777774
ssS'CACHE_HIT_RATIO'
p768
g11
(tRp769
S'MEAN_OFF_PATH'
p770
F0.19484781562681208
sS'MEAN_ON_PATH'
p771
F0.23996107326207683
sg767
F0.43480888888888891
ssS'OVERHEAD'
p772
g11
(tRp773
g767
F5.985531388888889
ssS'LATENCY'
p774
g11
(tRp775
g767
F81.047080141493467
sstp776
a(g11
(tRp777
S'workload'
p778
g11
(tRp779
S'n_contents'
p780
I10000
sS'name'
p781
S'STATIONARY'
p782
sS'n_warmup'
p783
I360000
sS'rate'
p784
I1000
sS'n_measured'
p785
I3600000
sS'alpha'
p786
F0.80000000000000004
ssS'cache_policy'
p787
g11
(tRp788
g781
S'LRU'
p789
ssS'desc'
p790
S'RSN size sensitivity -> RSN/cache ratio: 64.0'
p791
sS'strategy'
p792
g11
(tRp793
S'p'
F0.10000000000000001
sg781
S'LIRA_DFIB_OPH'
p794
ssS'content_placement'
p795
g11
(tRp796
g781
S'LOWEST_DEGREE'
p797
ssS'joint_cache_rsn_placement'
p798
g11
(tRp799
S'network_cache'
p800
F0.94999999999999996
sS'network_rsn'
p801
F60.799999999999997
sg781
S'CACHE_ALL_RSN_ALL'
p802
sS'rsn_cache_ratio'
p803
F64
ssS'warmup_strategy'
p804
g11
(tRp805
S'p'
F0.10000000000000001
sg781
S'NDN'
p806
ssS'topology'
p807
g11
(tRp808
S'ext_delay'
p809
I5
sS'source_ratio'
p810
F0.10000000000000001
sg781
S'ROCKET_FUEL'
p811
sS'asn'
p812
I3257
ssg11
(tRp813
S'SAT_RATE'
p814
g11
(tRp815
S'MEAN_CACHE_HIT'
p816
F0.62309999999999999
sS'MEAN_SERVER_HIT'
p817
F0.37615611111111114
sS'MEAN'
p818
F0.99925611111111112
ssS'CACHE_HIT_RATIO'
p819
g11
(tRp820
S'MEAN_OFF_PATH'
p821
F0.33949048616299055
sS'MEAN_ON_PATH'
p822
F0.28360951383700944
sg818
F0.62309999999999999
ssS'OVERHEAD'
p823
g11
(tRp824
g818
F7.3501288888888885
ssS'LATENCY'
p825
g11
(tRp826
g818
F58.59451025688896
sstp827
a(g11
(tRp828
S'workload'
p829
g11
(tRp830
S'n_contents'
p831
I10000
sS'name'
p832
S'STATIONARY'
p833
sS'n_warmup'
p834
I360000
sS'rate'
p835
I1000
sS'n_measured'
p836
I3600000
sS'alpha'
p837
F0.80000000000000004
ssS'cache_policy'
p838
g11
(tRp839
g832
S'LRU'
p840
ssS'desc'
p841
S'RSN size sensitivity -> RSN/cache ratio: 128.0'
p842
sS'strategy'
p843
g11
(tRp844
S'p'
F0.10000000000000001
sg832
S'LIRA_DFIB_OPH'
p845
ssS'content_placement'
p846
g11
(tRp847
g832
S'LOWEST_DEGREE'
p848
ssS'joint_cache_rsn_placement'
p849
g11
(tRp850
S'network_cache'
p851
F0.94999999999999996
sS'network_rsn'
p852
F121.59999999999999
sg832
S'CACHE_ALL_RSN_ALL'
p853
sS'rsn_cache_ratio'
p854
F128
ssS'warmup_strategy'
p855
g11
(tRp856
S'p'
F0.10000000000000001
sg832
S'NDN'
p857
ssS'topology'
p858
g11
(tRp859
S'ext_delay'
p860
I5
sS'source_ratio'
p861
F0.10000000000000001
sg832
S'ROCKET_FUEL'
p862
sS'asn'
p863
I3257
ssg11
(tRp864
S'SAT_RATE'
p865
g11
(tRp866
S'MEAN_CACHE_HIT'
p867
F0.76836111111111116
sS'MEAN_SERVER_HIT'
p868
F0.22891305555555555
sS'MEAN'
p869
F0.99727416666666668
ssS'CACHE_HIT_RATIO'
p870
g11
(tRp871
S'MEAN_OFF_PATH'
p872
F0.40791941526586944
sS'MEAN_ON_PATH'
p873
F0.36044169584524172
sg869
F0.76836111111111116
ssS'OVERHEAD'
p874
g11
(tRp875
g869
F7.7405491666666668
ssS'LATENCY'
p876
g11
(tRp877
g869
F41.25484218470141
sstp878
a(g11
(tRp879
S'workload'
p880
g11
(tRp881
S'n_contents'
p882
I10000
sS'name'
p883
S'STATIONARY'
p884
sS'n_warmup'
p885
I360000
sS'rate'
p886
I1000
sS'n_measured'
p887
I3600000
sS'alpha'
p888
F0.80000000000000004
ssS'cache_policy'
p889
g11
(tRp890
g883
S'LRU'
p891
ssS'desc'
p892
S'RSN size sensitivity -> RSN/cache ratio: 64.0'
p893
sS'strategy'
p894
g11
(tRp895
S'p'
F0.10000000000000001
sg883
S'LIRA_BC_HYBRID'
p896
ssS'content_placement'
p897
g11
(tRp898
g883
S'LOWEST_DEGREE'
p899
ssS'joint_cache_rsn_placement'
p900
g11
(tRp901
S'network_cache'
p902
F0.94999999999999996
sS'network_rsn'
p903
F60.799999999999997
sg883
S'CACHE_ALL_RSN_ALL'
p904
sS'rsn_cache_ratio'
p905
F64
ssS'warmup_strategy'
p906
g11
(tRp907
S'p'
F0.10000000000000001
sg883
S'NDN'
p908
ssS'topology'
p909
g11
(tRp910
S'ext_delay'
p911
I5
sS'source_ratio'
p912
F0.10000000000000001
sg883
S'ROCKET_FUEL'
p913
sS'asn'
p914
I3257
ssg11
(tRp915
S'SAT_RATE'
p916
g11
(tRp917
S'MEAN_CACHE_HIT'
p918
F0.4988488888888889
sS'MEAN_SERVER_HIT'
p919
F0.49564333333333332
sS'MEAN'
p920
F0.99449222222222222
ssS'CACHE_HIT_RATIO'
p921
g11
(tRp922
S'MEAN_OFF_PATH'
p923
F0.28920098336809585
sS'MEAN_ON_PATH'
p924
F0.20964790552079304
sg920
F0.4988488888888889
ssS'OVERHEAD'
p925
g11
(tRp926
g920
F5.3860477777777778
ssS'LATENCY'
p927
g11
(tRp928
g920
F76.993033475645348
sstp929
a(g11
(tRp930
S'workload'
p931
g11
(tRp932
S'n_contents'
p933
I10000
sS'name'
p934
S'STATIONARY'
p935
sS'n_warmup'
p936
I360000
sS'rate'
p937
I1000
sS'n_measured'
p938
I3600000
sS'alpha'
p939
F0.80000000000000004
ssS'cache_policy'
p940
g11
(tRp941
g934
S'LRU'
p942
ssS'desc'
p943
S'RSN size sensitivity -> RSN/cache ratio: 64.0'
p944
sS'strategy'
p945
g11
(tRp946
S'p'
F0.10000000000000001
sg934
S'LIRA_DFIB'
p947
ssS'content_placement'
p948
g11
(tRp949
g934
S'LOWEST_DEGREE'
p950
ssS'joint_cache_rsn_placement'
p951
g11
(tRp952
S'network_cache'
p953
F0.94999999999999996
sS'network_rsn'
p954
F60.799999999999997
sg934
S'CACHE_ALL_RSN_ALL'
p955
sS'rsn_cache_ratio'
p956
F64
ssS'warmup_strategy'
p957
g11
(tRp958
S'p'
F0.10000000000000001
sg934
S'NDN'
p959
ssS'topology'
p960
g11
(tRp961
S'ext_delay'
p962
I5
sS'source_ratio'
p963
F0.10000000000000001
sg934
S'ROCKET_FUEL'
p964
sS'asn'
p965
I3257
ssg11
(tRp966
S'SAT_RATE'
p967
g11
(tRp968
S'MEAN_CACHE_HIT'
p969
F0.51346805555555552
sS'MEAN_SERVER_HIT'
p970
F0.4814963888888889
sS'MEAN'
p971
F0.99496444444444443
ssS'CACHE_HIT_RATIO'
p972
g11
(tRp973
S'MEAN_OFF_PATH'
p974
F0.26499809976224264
sS'MEAN_ON_PATH'
p975
F0.24846995579331288
sg971
F0.51346805555555552
ssS'OVERHEAD'
p976
g11
(tRp977
g971
F6.1178716666666668
ssS'LATENCY'
p978
g11
(tRp979
g971
F70.97751955467271
sstp980
a(g11
(tRp981
S'workload'
p982
g11
(tRp983
S'n_contents'
p984
I10000
sS'name'
p985
S'STATIONARY'
p986
sS'n_warmup'
p987
I360000
sS'rate'
p988
I1000
sS'n_measured'
p989
I3600000
sS'alpha'
p990
F0.80000000000000004
ssS'cache_policy'
p991
g11
(tRp992
g985
S'LRU'
p993
ssS'desc'
p994
S'RSN size sensitivity -> RSN/cache ratio: 128.0'
p995
sS'strategy'
p996
g11
(tRp997
S'p'
F0.10000000000000001
sg985
S'LIRA_DFIB'
p998
ssS'content_placement'
p999
g11
(tRp1000
g985
S'LOWEST_DEGREE'
p1001
ssS'joint_cache_rsn_placement'
p1002
g11
(tRp1003
S'network_cache'
p1004
F0.94999999999999996
sS'network_rsn'
p1005
F121.59999999999999
sg985
S'CACHE_ALL_RSN_ALL'
p1006
sS'rsn_cache_ratio'
p1007
F128
ssS'warmup_strategy'
p1008
g11
(tRp1009
S'p'
F0.10000000000000001
sg985
S'NDN'
p1010
ssS'topology'
p1011
g11
(tRp1012
S'ext_delay'
p1013
I5
sS'source_ratio'
p1014
F0.10000000000000001
sg985
S'ROCKET_FUEL'
p1015
sS'asn'
p1016
I3257
ssg11
(tRp1017
S'SAT_RATE'
p1018
g11
(tRp1019
S'MEAN_CACHE_HIT'
p1020
F0.57553277777777778
sS'MEAN_SERVER_HIT'
p1021
F0.41382833333333335
sS'MEAN'
p1022
F0.98936111111111114
ssS'CACHE_HIT_RATIO'
p1023
g11
(tRp1024
S'MEAN_OFF_PATH'
p1025
F0.31216765030064525
sS'MEAN_ON_PATH'
p1026
F0.26336512747713253
sg1022
F0.57553277777777778
ssS'OVERHEAD'
p1027
g11
(tRp1028
g1022
F6.2110424999999996
ssS'LATENCY'
p1029
g11
(tRp1030
g1022
F62.814649086996184
sstp1031
a(g11
(tRp1032
S'workload'
p1033
g11
(tRp1034
S'n_contents'
p1035
I10000
sS'name'
p1036
S'STATIONARY'
p1037
sS'n_warmup'
p1038
I360000
sS'rate'
p1039
I1000
sS'n_measured'
p1040
I3600000
sS'alpha'
p1041
F0.80000000000000004
ssS'cache_policy'
p1042
g11
(tRp1043
g1036
S'LRU'
p1044
ssS'desc'
p1045
S'RSN size sensitivity -> RSN/cache ratio: 128.0'
p1046
sS'strategy'
p1047
g11
(tRp1048
S'p'
F0.10000000000000001
sg1036
S'LIRA_BC_HYBRID'
p1049
ssS'content_placement'
p1050
g11
(tRp1051
g1036
S'LOWEST_DEGREE'
p1052
ssS'joint_cache_rsn_placement'
p1053
g11
(tRp1054
S'network_cache'
p1055
F0.94999999999999996
sS'network_rsn'
p1056
F121.59999999999999
sg1036
S'CACHE_ALL_RSN_ALL'
p1057
sS'rsn_cache_ratio'
p1058
F128
ssS'warmup_strategy'
p1059
g11
(tRp1060
S'p'
F0.10000000000000001
sg1036
S'NDN'
p1061
ssS'topology'
p1062
g11
(tRp1063
S'ext_delay'
p1064
I5
sS'source_ratio'
p1065
F0.10000000000000001
sg1036
S'ROCKET_FUEL'
p1066
sS'asn'
p1067
I3257
ssg11
(tRp1068
S'SAT_RATE'
p1069
g11
(tRp1070
S'MEAN_CACHE_HIT'
p1071
F0.5824341666666667
sS'MEAN_SERVER_HIT'
p1072
F0.40654611111111111
sS'MEAN'
p1073
F0.98898027777777775
ssS'CACHE_HIT_RATIO'
p1074
g11
(tRp1075
S'MEAN_OFF_PATH'
p1076
F0.36799124606640354
sS'MEAN_ON_PATH'
p1077
F0.21444292060026315
sg1073
F0.5824341666666667
ssS'OVERHEAD'
p1078
g11
(tRp1079
g1073
F5.4477083333333329
ssS'LATENCY'
p1080
g11
(tRp1081
g1073
F65.005246241162283
sstp1082
atRp1083
sb.