ccopy_reg
_reconstructor
p1
(cicarus.results.readwrite
ResultSet
p2
c__builtin__
object
p3
NtRp4
(dp5
S'attr'
p6
(dp7
sS'_results'
p8
ccollections
deque
p9
((lp10
(cicarus.util
Tree
p11
(tRp12
S'workload'
p13
g11
(tRp14
S'n_contents'
p15
I10000
sS'name'
p16
S'STATIONARY'
p17
sS'n_warmup'
p18
I360000
sS'rate'
p19
I1000
sS'n_measured'
p20
I3600000
sS'alpha'
p21
F0.80000000000000004
ssS'cache_policy'
p22
g11
(tRp23
g16
S'LRU'
p24
ssS'desc'
p25
S'RSN fresh_interval: 120.0'
p26
sS'strategy'
p27
g11
(tRp28
S'extra_quota'
p29
I3
sS'p'
F0.10000000000000001
sg16
S'LIRA_BC_HYBRID'
p30
sS'rsn_fresh'
p31
F120
ssS'content_placement'
p32
g11
(tRp33
g16
S'LOWEST_DEGREE'
p34
ssS'joint_cache_rsn_placement'
p35
g11
(tRp36
S'network_cache'
p37
F0.94999999999999996
sS'network_rsn'
p38
F60.799999999999997
sg16
S'CACHE_ALL_RSN_ALL'
p39
sS'rsn_cache_ratio'
p40
I64
ssS'warmup_strategy'
p41
g11
(tRp42
S'p'
F0.10000000000000001
sg16
S'NDN'
p43
ssS'topology'
p44
g11
(tRp45
S'ext_delay'
p46
I5
sS'source_ratio'
p47
F0.10000000000000001
sg16
S'ROCKET_FUEL'
p48
sS'asn'
p49
I3257
ssg11
(tRp50
S'SAT_RATE'
p51
g11
(tRp52
S'MEAN_CACHE_HIT'
p53
F0.46900361111111111
sS'MEAN_SERVER_HIT'
p54
F0.52451194444444449
sS'MEAN'
p55
F0.9935155555555556
ssS'CACHE_HIT_RATIO'
p56
g11
(tRp57
S'MEAN_OFF_PATH'
p58
F0.27553230666220285
sS'MEAN_ON_PATH'
p59
F0.19347130444890825
sg55
F0.46900361111111111
ssS'OVERHEAD'
p60
g11
(tRp61
g55
F5.1201319444444442
ssS'LATENCY'
p62
g11
(tRp63
g55
F83.583816967560224
sstp64
a(g11
(tRp65
S'workload'
p66
g11
(tRp67
S'n_contents'
p68
I10000
sS'name'
p69
S'STATIONARY'
p70
sS'n_warmup'
p71
I360000
sS'rate'
p72
I1000
sS'n_measured'
p73
I3600000
sS'alpha'
p74
F0.80000000000000004
ssS'cache_policy'
p75
g11
(tRp76
g69
S'LRU'
p77
ssS'desc'
p78
S'RSN fresh_interval: 60.0'
p79
sS'strategy'
p80
g11
(tRp81
S'extra_quota'
p82
I3
sS'p'
F0.10000000000000001
sg69
S'LIRA_BC_HYBRID'
p83
sS'rsn_fresh'
p84
F60
ssS'content_placement'
p85
g11
(tRp86
g69
S'LOWEST_DEGREE'
p87
ssS'joint_cache_rsn_placement'
p88
g11
(tRp89
S'network_cache'
p90
F0.94999999999999996
sS'network_rsn'
p91
F60.799999999999997
sg69
S'CACHE_ALL_RSN_ALL'
p92
sS'rsn_cache_ratio'
p93
I64
ssS'warmup_strategy'
p94
g11
(tRp95
S'p'
F0.10000000000000001
sg69
S'NDN'
p96
ssS'topology'
p97
g11
(tRp98
S'ext_delay'
p99
I5
sS'source_ratio'
p100
F0.10000000000000001
sg69
S'ROCKET_FUEL'
p101
sS'asn'
p102
I3257
ssg11
(tRp103
S'SAT_RATE'
p104
g11
(tRp105
S'MEAN_CACHE_HIT'
p106
F0.47364416666666664
sS'MEAN_SERVER_HIT'
p107
F0.51995611111111106
sS'MEAN'
p108
F0.99360027777777782
ssS'CACHE_HIT_RATIO'
p109
g11
(tRp110
S'MEAN_OFF_PATH'
p111
F0.27936057212261073
sS'MEAN_ON_PATH'
p112
F0.19428359454405592
sg108
F0.47364416666666664
ssS'OVERHEAD'
p113
g11
(tRp114
g108
F5.1488180555555552
ssS'LATENCY'
p115
g11
(tRp116
g108
F82.46390441572062
sstp117
a(g11
(tRp118
S'workload'
p119
g11
(tRp120
S'n_contents'
p121
I10000
sS'name'
p122
S'STATIONARY'
p123
sS'n_warmup'
p124
I360000
sS'rate'
p125
I1000
sS'n_measured'
p126
I3600000
sS'alpha'
p127
F0.80000000000000004
ssS'cache_policy'
p128
g11
(tRp129
g122
S'LRU'
p130
ssS'desc'
p131
S'RSN fresh_interval: 30.0'
p132
sS'strategy'
p133
g11
(tRp134
S'extra_quota'
p135
I3
sS'p'
F0.10000000000000001
sg122
S'LIRA_BC_HYBRID'
p136
sS'rsn_fresh'
p137
F30
ssS'content_placement'
p138
g11
(tRp139
g122
S'LOWEST_DEGREE'
p140
ssS'joint_cache_rsn_placement'
p141
g11
(tRp142
S'network_cache'
p143
F0.94999999999999996
sS'network_rsn'
p144
F60.799999999999997
sg122
S'CACHE_ALL_RSN_ALL'
p145
sS'rsn_cache_ratio'
p146
I64
ssS'warmup_strategy'
p147
g11
(tRp148
S'p'
F0.10000000000000001
sg122
S'NDN'
p149
ssS'topology'
p150
g11
(tRp151
S'ext_delay'
p152
I5
sS'source_ratio'
p153
F0.10000000000000001
sg122
S'ROCKET_FUEL'
p154
sS'asn'
p155
I3257
ssg11
(tRp156
S'SAT_RATE'
p157
g11
(tRp158
S'MEAN_CACHE_HIT'
p159
F0.48241722222222222
sS'MEAN_SERVER_HIT'
p160
F0.51148749999999998
sS'MEAN'
p161
F0.99390472222222226
ssS'CACHE_HIT_RATIO'
p162
g11
(tRp163
S'MEAN_OFF_PATH'
p164
F0.28189096211367282
sS'MEAN_ON_PATH'
p165
F0.2005262601085494
sg161
F0.48241722222222222
ssS'OVERHEAD'
p166
g11
(tRp167
g161
F5.2116394444444447
ssS'LATENCY'
p168
g11
(tRp169
g161
F80.568647624279564
sstp170
a(g11
(tRp171
S'workload'
p172
g11
(tRp173
S'n_contents'
p174
I10000
sS'name'
p175
S'STATIONARY'
p176
sS'n_warmup'
p177
I360000
sS'rate'
p178
I1000
sS'n_measured'
p179
I3600000
sS'alpha'
p180
F0.80000000000000004
ssS'cache_policy'
p181
g11
(tRp182
g175
S'LRU'
p183
ssS'desc'
p184
S'RSN fresh_interval: 10.0'
p185
sS'strategy'
p186
g11
(tRp187
S'extra_quota'
p188
I3
sS'p'
F0.10000000000000001
sg175
S'LIRA_BC_HYBRID'
p189
sS'rsn_fresh'
p190
F10
ssS'content_placement'
p191
g11
(tRp192
g175
S'LOWEST_DEGREE'
p193
ssS'joint_cache_rsn_placement'
p194
g11
(tRp195
S'network_cache'
p196
F0.94999999999999996
sS'network_rsn'
p197
F60.799999999999997
sg175
S'CACHE_ALL_RSN_ALL'
p198
sS'rsn_cache_ratio'
p199
I64
ssS'warmup_strategy'
p200
g11
(tRp201
S'p'
F0.10000000000000001
sg175
S'NDN'
p202
ssS'topology'
p203
g11
(tRp204
S'ext_delay'
p205
I5
sS'source_ratio'
p206
F0.10000000000000001
sg175
S'ROCKET_FUEL'
p207
sS'asn'
p208
I3257
ssg11
(tRp209
S'SAT_RATE'
p210
g11
(tRp211
S'MEAN_CACHE_HIT'
p212
F0.49950749999999999
sS'MEAN_SERVER_HIT'
p213
F0.49507694444444444
sS'MEAN'
p214
F0.99458444444444449
ssS'CACHE_HIT_RATIO'
p215
g11
(tRp216
S'MEAN_OFF_PATH'
p217
F0.29017656926941959
sS'MEAN_ON_PATH'
p218
F0.2093309307305804
sg214
F0.49950749999999999
ssS'OVERHEAD'
p219
g11
(tRp220
g214
F5.3870744444444441
ssS'LATENCY'
p221
g11
(tRp222
g214
F76.906823908879559
sstp223
a(g11
(tRp224
S'workload'
p225
g11
(tRp226
S'n_contents'
p227
I10000
sS'name'
p228
S'STATIONARY'
p229
sS'n_warmup'
p230
I360000
sS'rate'
p231
I1000
sS'n_measured'
p232
I3600000
sS'alpha'
p233
F0.80000000000000004
ssS'cache_policy'
p234
g11
(tRp235
g228
S'LRU'
p236
ssS'desc'
p237
S'RSN fresh_interval: 180.0'
p238
sS'strategy'
p239
g11
(tRp240
S'extra_quota'
p241
I3
sS'p'
F0.10000000000000001
sg228
S'LIRA_BC_HYBRID'
p242
sS'rsn_fresh'
p243
F180
ssS'content_placement'
p244
g11
(tRp245
g228
S'LOWEST_DEGREE'
p246
ssS'joint_cache_rsn_placement'
p247
g11
(tRp248
S'network_cache'
p249
F0.94999999999999996
sS'network_rsn'
p250
F60.799999999999997
sg228
S'CACHE_ALL_RSN_ALL'
p251
sS'rsn_cache_ratio'
p252
I64
ssS'warmup_strategy'
p253
g11
(tRp254
S'p'
F0.10000000000000001
sg228
S'NDN'
p255
ssS'topology'
p256
g11
(tRp257
S'ext_delay'
p258
I5
sS'source_ratio'
p259
F0.10000000000000001
sg228
S'ROCKET_FUEL'
p260
sS'asn'
p261
I3257
ssg11
(tRp262
S'SAT_RATE'
p263
g11
(tRp264
S'MEAN_CACHE_HIT'
p265
F0.46597944444444445
sS'MEAN_SERVER_HIT'
p266
F0.52731527777777776
sS'MEAN'
p267
F0.99329472222222226
ssS'CACHE_HIT_RATIO'
p268
g11
(tRp269
S'MEAN_OFF_PATH'
p270
F0.27323390541940862
sS'MEAN_ON_PATH'
p271
F0.19274553902503583
sg267
F0.46597944444444445
ssS'OVERHEAD'
p272
g11
(tRp273
g267
F5.1089955555555555
ssS'LATENCY'
p274
g11
(tRp275
g267
F84.087577743147023
sstp276
a(g11
(tRp277
S'workload'
p278
g11
(tRp279
S'n_contents'
p280
I10000
sS'name'
p281
S'STATIONARY'
p282
sS'n_warmup'
p283
I360000
sS'rate'
p284
I1000
sS'n_measured'
p285
I3600000
sS'alpha'
p286
F0.80000000000000004
ssS'cache_policy'
p287
g11
(tRp288
g281
S'LRU'
p289
ssS'desc'
p290
S'RSN fresh_interval: 240.0'
p291
sS'strategy'
p292
g11
(tRp293
S'extra_quota'
p294
I3
sS'p'
F0.10000000000000001
sg281
S'LIRA_BC_HYBRID'
p295
sS'rsn_fresh'
p296
F240
ssS'content_placement'
p297
g11
(tRp298
g281
S'LOWEST_DEGREE'
p299
ssS'joint_cache_rsn_placement'
p300
g11
(tRp301
S'network_cache'
p302
F0.94999999999999996
sS'network_rsn'
p303
F60.799999999999997
sg281
S'CACHE_ALL_RSN_ALL'
p304
sS'rsn_cache_ratio'
p305
I64
ssS'warmup_strategy'
p306
g11
(tRp307
S'p'
F0.10000000000000001
sg281
S'NDN'
p308
ssS'topology'
p309
g11
(tRp310
S'ext_delay'
p311
I5
sS'source_ratio'
p312
F0.10000000000000001
sg281
S'ROCKET_FUEL'
p313
sS'asn'
p314
I3257
ssg11
(tRp315
S'SAT_RATE'
p316
g11
(tRp317
S'MEAN_CACHE_HIT'
p318
F0.46455750000000001
sS'MEAN_SERVER_HIT'
p319
F0.52870027777777773
sS'MEAN'
p320
F0.99325777777777779
ssS'CACHE_HIT_RATIO'
p321
g11
(tRp322
S'MEAN_OFF_PATH'
p323
F0.27193360342978917
sS'MEAN_ON_PATH'
p324
F0.19262389657021084
sg320
F0.46455750000000001
ssS'OVERHEAD'
p325
g11
(tRp326
g320
F5.1079938888888892
ssS'LATENCY'
p327
g11
(tRp328
g320
F84.436785416006416
sstp329
a(g11
(tRp330
S'workload'
p331
g11
(tRp332
S'n_contents'
p333
I10000
sS'name'
p334
S'STATIONARY'
p335
sS'n_warmup'
p336
I360000
sS'rate'
p337
I1000
sS'n_measured'
p338
I3600000
sS'alpha'
p339
F0.80000000000000004
ssS'cache_policy'
p340
g11
(tRp341
g334
S'LRU'
p342
ssS'desc'
p343
S'RSN fresh_interval: 300.0'
p344
sS'strategy'
p345
g11
(tRp346
S'extra_quota'
p347
I3
sS'p'
F0.10000000000000001
sg334
S'LIRA_BC_HYBRID'
p348
sS'rsn_fresh'
p349
F300
ssS'content_placement'
p350
g11
(tRp351
g334
S'LOWEST_DEGREE'
p352
ssS'joint_cache_rsn_placement'
p353
g11
(tRp354
S'network_cache'
p355
F0.94999999999999996
sS'network_rsn'
p356
F60.799999999999997
sg334
S'CACHE_ALL_RSN_ALL'
p357
sS'rsn_cache_ratio'
p358
I64
ssS'warmup_strategy'
p359
g11
(tRp360
S'p'
F0.10000000000000001
sg334
S'NDN'
p361
ssS'topology'
p362
g11
(tRp363
S'ext_delay'
p364
I5
sS'source_ratio'
p365
F0.10000000000000001
sg334
S'ROCKET_FUEL'
p366
sS'asn'
p367
I3257
ssg11
(tRp368
S'SAT_RATE'
p369
g11
(tRp370
S'MEAN_CACHE_HIT'
p371
F0.46390416666666667
sS'MEAN_SERVER_HIT'
p372
F0.52918777777777781
sS'MEAN'
p373
F0.99309194444444449
ssS'CACHE_HIT_RATIO'
p374
g11
(tRp375
S'MEAN_OFF_PATH'
p376
F0.27163941165965205
sS'MEAN_ON_PATH'
p377
F0.19226475500701462
sg373
F0.46390416666666667
ssS'OVERHEAD'
p378
g11
(tRp379
g373
F5.1058252777777779
ssS'LATENCY'
p380
g11
(tRp381
g373
F84.487172098792129
sstp382
a(g11
(tRp383
S'workload'
p384
g11
(tRp385
S'n_contents'
p386
I10000
sS'name'
p387
S'STATIONARY'
p388
sS'n_warmup'
p389
I360000
sS'rate'
p390
I1000
sS'n_measured'
p391
I3600000
sS'alpha'
p392
F0.80000000000000004
ssS'cache_policy'
p393
g11
(tRp394
g387
S'LRU'
p395
ssS'desc'
p396
S'RSN fresh_interval: 600.0'
p397
sS'strategy'
p398
g11
(tRp399
S'extra_quota'
p400
I3
sS'p'
F0.10000000000000001
sg387
S'LIRA_BC_HYBRID'
p401
sS'rsn_fresh'
p402
F600
ssS'content_placement'
p403
g11
(tRp404
g387
S'LOWEST_DEGREE'
p405
ssS'joint_cache_rsn_placement'
p406
g11
(tRp407
S'network_cache'
p408
F0.94999999999999996
sS'network_rsn'
p409
F60.799999999999997
sg387
S'CACHE_ALL_RSN_ALL'
p410
sS'rsn_cache_ratio'
p411
I64
ssS'warmup_strategy'
p412
g11
(tRp413
S'p'
F0.10000000000000001
sg387
S'NDN'
p414
ssS'topology'
p415
g11
(tRp416
S'ext_delay'
p417
I5
sS'source_ratio'
p418
F0.10000000000000001
sg387
S'ROCKET_FUEL'
p419
sS'asn'
p420
I3257
ssg11
(tRp421
S'SAT_RATE'
p422
g11
(tRp423
S'MEAN_CACHE_HIT'
p424
F0.4608525
sS'MEAN_SERVER_HIT'
p425
F0.53218888888888893
sS'MEAN'
p426
F0.99304138888888893
ssS'CACHE_HIT_RATIO'
p427
g11
(tRp428
S'MEAN_OFF_PATH'
p429
F0.2694975110869256
sS'MEAN_ON_PATH'
p430
F0.1913549889130744
sg426
F0.4608525
ssS'OVERHEAD'
p431
g11
(tRp432
g426
F5.1011816666666663
ssS'LATENCY'
p433
g11
(tRp434
g426
F84.963610901410931
sstp435
a(g11
(tRp436
S'workload'
p437
g11
(tRp438
S'n_contents'
p439
I10000
sS'name'
p440
S'STATIONARY'
p441
sS'n_warmup'
p442
I360000
sS'rate'
p443
I1000
sS'n_measured'
p444
I3600000
sS'alpha'
p445
F0.80000000000000004
ssS'cache_policy'
p446
g11
(tRp447
g440
S'LRU'
p448
ssS'desc'
p449
S'RSN fresh_interval: 1200.0'
p450
sS'strategy'
p451
g11
(tRp452
S'extra_quota'
p453
I3
sS'p'
F0.10000000000000001
sg440
S'LIRA_BC_HYBRID'
p454
sS'rsn_fresh'
p455
F1200
ssS'content_placement'
p456
g11
(tRp457
g440
S'LOWEST_DEGREE'
p458
ssS'joint_cache_rsn_placement'
p459
g11
(tRp460
S'network_cache'
p461
F0.94999999999999996
sS'network_rsn'
p462
F60.799999999999997
sg440
S'CACHE_ALL_RSN_ALL'
p463
sS'rsn_cache_ratio'
p464
I64
ssS'warmup_strategy'
p465
g11
(tRp466
S'p'
F0.10000000000000001
sg440
S'NDN'
p467
ssS'topology'
p468
g11
(tRp469
S'ext_delay'
p470
I5
sS'source_ratio'
p471
F0.10000000000000001
sg440
S'ROCKET_FUEL'
p472
sS'asn'
p473
I3257
ssg11
(tRp474
S'SAT_RATE'
p475
g11
(tRp476
S'MEAN_CACHE_HIT'
p477
F0.4590838888888889
sS'MEAN_SERVER_HIT'
p478
F0.53390611111111108
sS'MEAN'
p479
F0.99299000000000004
ssS'CACHE_HIT_RATIO'
p480
g11
(tRp481
S'MEAN_OFF_PATH'
p482
F0.26602758018440309
sS'MEAN_ON_PATH'
p483
F0.19305630870448581
sg479
F0.4590838888888889
ssS'OVERHEAD'
p484
g11
(tRp485
g479
F5.1079688888888892
ssS'LATENCY'
p486
g11
(tRp487
g479
F85.344685913017926
sstp488
atRp489
sb.